ARM GAS  C:\Users\shadi\AppData\Local\Temp\ccjiUIWy.s 			page 1


   1              		.cpu cortex-m4
   2              		.eabi_attribute 27, 1
   3              		.eabi_attribute 28, 1
   4              		.eabi_attribute 20, 1
   5              		.eabi_attribute 21, 1
   6              		.eabi_attribute 23, 3
   7              		.eabi_attribute 24, 1
   8              		.eabi_attribute 25, 1
   9              		.eabi_attribute 26, 1
  10              		.eabi_attribute 30, 2
  11              		.eabi_attribute 34, 1
  12              		.eabi_attribute 18, 4
  13              		.file	"cmd.c"
  14              		.text
  15              	.Ltext0:
  16              		.cfi_sections	.debug_frame
  17              		.section	.text.chprintf,"ax",%progbits
  18              		.align	1
  19              		.p2align 4,,15
  20              		.syntax unified
  21              		.thumb
  22              		.thumb_func
  23              		.fpu fpv4-sp-d16
  24              		.type	chprintf, %function
  25              	chprintf:
  26              	.LFB259:
  27              		.file 1 "../../lib/e-puck2_main-processor/ChibiOS//os/hal/lib/streams/chprintf.h"
  28              		.loc 1 69 0
  29              		.cfi_startproc
  30              		@ args = 4, pretend = 12, frame = 8
  31              		@ frame_needed = 0, uses_anonymous_args = 1
  32              	.LVL0:
  33 0000 0EB4     		push	{r1, r2, r3}
  34              		.cfi_def_cfa_offset 12
  35              		.cfi_offset 1, -12
  36              		.cfi_offset 2, -8
  37              		.cfi_offset 3, -4
  38 0002 10B5     		push	{r4, lr}
  39              		.cfi_def_cfa_offset 20
  40              		.cfi_offset 4, -20
  41              		.cfi_offset 14, -16
  42 0004 83B0     		sub	sp, sp, #12
  43              		.cfi_def_cfa_offset 32
  44              		.loc 1 69 0
  45 0006 05AA     		add	r2, sp, #20
  46 0008 094C     		ldr	r4, .L6
  47 000a 52F8041B 		ldr	r1, [r2], #4
  48 000e 2368     		ldr	r3, [r4]
  49              		.loc 1 73 0
  50 0010 0092     		str	r2, [sp]
  51              		.loc 1 69 0
  52 0012 0193     		str	r3, [sp, #4]
  53              		.loc 1 74 0
  54 0014 FFF7FEFF 		bl	chvprintf
  55              	.LVL1:
  56              		.loc 1 78 0
  57 0018 019A     		ldr	r2, [sp, #4]
ARM GAS  C:\Users\shadi\AppData\Local\Temp\ccjiUIWy.s 			page 2


  58 001a 2368     		ldr	r3, [r4]
  59 001c 9A42     		cmp	r2, r3
  60 001e 04D1     		bne	.L5
  61 0020 03B0     		add	sp, sp, #12
  62              		.cfi_remember_state
  63              		.cfi_def_cfa_offset 20
  64              		@ sp needed
  65 0022 BDE81040 		pop	{r4, lr}
  66              		.cfi_restore 14
  67              		.cfi_restore 4
  68              		.cfi_def_cfa_offset 12
  69 0026 03B0     		add	sp, sp, #12
  70              		.cfi_restore 3
  71              		.cfi_restore 2
  72              		.cfi_restore 1
  73              		.cfi_def_cfa_offset 0
  74 0028 7047     		bx	lr
  75              	.L5:
  76              		.cfi_restore_state
  77 002a FFF7FEFF 		bl	__stack_chk_fail
  78              	.LVL2:
  79              	.L7:
  80 002e 00BF     		.align	2
  81              	.L6:
  82 0030 00000000 		.word	__stack_chk_guard
  83              		.cfi_endproc
  84              	.LFE259:
  85              		.size	chprintf, .-chprintf
  86              		.section	.text.cmd_mount,"ax",%progbits
  87              		.align	1
  88              		.p2align 4,,15
  89              		.global	cmd_mount
  90              		.syntax unified
  91              		.thumb
  92              		.thumb_func
  93              		.fpu fpv4-sp-d16
  94              		.type	cmd_mount, %function
  95              	cmd_mount:
  96              	.LFB261:
  97              		.file 2 "../../lib/e-puck2_main-processor/src/cmd.c"
  98              		.loc 2 53 0
  99              		.cfi_startproc
 100              		@ args = 0, pretend = 0, frame = 8
 101              		@ frame_needed = 0, uses_anonymous_args = 0
 102              	.LVL3:
 103 0000 30B5     		push	{r4, r5, lr}
 104              		.cfi_def_cfa_offset 12
 105              		.cfi_offset 4, -12
 106              		.cfi_offset 5, -8
 107              		.cfi_offset 14, -4
 108 0002 0F4C     		ldr	r4, .L17
 109 0004 83B0     		sub	sp, sp, #12
 110              		.cfi_def_cfa_offset 24
 111              		.loc 2 53 0
 112 0006 2368     		ldr	r3, [r4]
 113 0008 0193     		str	r3, [sp, #4]
 114 000a 0546     		mov	r5, r0
ARM GAS  C:\Users\shadi\AppData\Local\Temp\ccjiUIWy.s 			page 3


 115              		.loc 2 60 0
 116 000c FFF7FEFF 		bl	mountSDCard
 117              	.LVL4:
 118              		.loc 2 61 0
 119 0010 019A     		ldr	r2, [sp, #4]
 120 0012 2368     		ldr	r3, [r4]
 121              		.loc 2 60 0
 122 0014 40B1     		cbz	r0, .L16
 123              		.loc 2 64 0
 124 0016 9A42     		cmp	r2, r3
 125 0018 0FD1     		bne	.L15
 126 001a 0A49     		ldr	r1, .L17+4
 127 001c 2846     		mov	r0, r5
 128              		.loc 2 65 0
 129 001e 03B0     		add	sp, sp, #12
 130              		.cfi_remember_state
 131              		.cfi_def_cfa_offset 12
 132              		@ sp needed
 133 0020 BDE83040 		pop	{r4, r5, lr}
 134              		.cfi_restore 14
 135              		.cfi_restore 5
 136              		.cfi_restore 4
 137              		.cfi_def_cfa_offset 0
 138              	.LVL5:
 139              		.loc 2 64 0
 140 0024 FFF7FEBF 		b	chprintf
 141              	.LVL6:
 142              	.L16:
 143              		.cfi_restore_state
 144              		.loc 2 61 0
 145 0028 9A42     		cmp	r2, r3
 146 002a 06D1     		bne	.L15
 147 002c 0649     		ldr	r1, .L17+8
 148 002e 2846     		mov	r0, r5
 149              		.loc 2 65 0
 150 0030 03B0     		add	sp, sp, #12
 151              		.cfi_remember_state
 152              		.cfi_def_cfa_offset 12
 153              		@ sp needed
 154 0032 BDE83040 		pop	{r4, r5, lr}
 155              		.cfi_restore 14
 156              		.cfi_restore 5
 157              		.cfi_restore 4
 158              		.cfi_def_cfa_offset 0
 159              	.LVL7:
 160              		.loc 2 64 0
 161 0036 FFF7FEBF 		b	chprintf
 162              	.LVL8:
 163              	.L15:
 164              		.cfi_restore_state
 165 003a FFF7FEFF 		bl	__stack_chk_fail
 166              	.LVL9:
 167              	.L18:
 168 003e 00BF     		.align	2
 169              	.L17:
 170 0040 00000000 		.word	__stack_chk_guard
 171 0044 34000000 		.word	.LC1
ARM GAS  C:\Users\shadi\AppData\Local\Temp\ccjiUIWy.s 			page 4


 172 0048 00000000 		.word	.LC0
 173              		.cfi_endproc
 174              	.LFE261:
 175              		.size	cmd_mount, .-cmd_mount
 176              		.section	.text.cmd_readclock,"ax",%progbits
 177              		.align	1
 178              		.p2align 4,,15
 179              		.syntax unified
 180              		.thumb
 181              		.thumb_func
 182              		.fpu fpv4-sp-d16
 183              		.type	cmd_readclock, %function
 184              	cmd_readclock:
 185              	.LFB278:
 186              		.loc 2 406 0
 187              		.cfi_startproc
 188              		@ args = 0, pretend = 0, frame = 8
 189              		@ frame_needed = 0, uses_anonymous_args = 0
 190              	.LVL10:
 191 0000 30B5     		push	{r4, r5, lr}
 192              		.cfi_def_cfa_offset 12
 193              		.cfi_offset 4, -12
 194              		.cfi_offset 5, -8
 195              		.cfi_offset 14, -4
 196              		.loc 2 409 0
 197 0002 0A4B     		ldr	r3, .L23
 198              		.loc 2 406 0
 199 0004 0A4C     		ldr	r4, .L23+4
 200              		.loc 2 409 0
 201 0006 0B49     		ldr	r1, .L23+8
 202              	.LVL11:
 203 0008 0B4A     		ldr	r2, .L23+12
 204              	.LVL12:
 205              		.loc 2 406 0
 206 000a 2568     		ldr	r5, [r4]
 207 000c 85B0     		sub	sp, sp, #20
 208              		.cfi_def_cfa_offset 32
 209              		.loc 2 409 0
 210 000e CDE90021 		strd	r2, r1, [sp]
 211 0012 1A46     		mov	r2, r3
 212 0014 0949     		ldr	r1, .L23+16
 213              		.loc 2 406 0
 214 0016 0395     		str	r5, [sp, #12]
 215              		.loc 2 409 0
 216 0018 FFF7FEFF 		bl	chprintf
 217              	.LVL13:
 218              		.loc 2 411 0
 219 001c 039A     		ldr	r2, [sp, #12]
 220 001e 2368     		ldr	r3, [r4]
 221 0020 9A42     		cmp	r2, r3
 222 0022 01D1     		bne	.L22
 223 0024 05B0     		add	sp, sp, #20
 224              		.cfi_remember_state
 225              		.cfi_def_cfa_offset 12
 226              		@ sp needed
 227 0026 30BD     		pop	{r4, r5, pc}
 228              	.L22:
ARM GAS  C:\Users\shadi\AppData\Local\Temp\ccjiUIWy.s 			page 5


 229              		.cfi_restore_state
 230 0028 FFF7FEFF 		bl	__stack_chk_fail
 231              	.LVL14:
 232              	.L24:
 233              		.align	2
 234              	.L23:
 235 002c 007A030A 		.word	168000000
 236 0030 00000000 		.word	__stack_chk_guard
 237 0034 00BD0105 		.word	84000000
 238 0038 80DE8002 		.word	42000000
 239 003c 00000000 		.word	.LC2
 240              		.cfi_endproc
 241              	.LFE278:
 242              		.size	cmd_readclock, .-cmd_readclock
 243              		.section	.text.cmd_unmount,"ax",%progbits
 244              		.align	1
 245              		.p2align 4,,15
 246              		.global	cmd_unmount
 247              		.syntax unified
 248              		.thumb
 249              		.thumb_func
 250              		.fpu fpv4-sp-d16
 251              		.type	cmd_unmount, %function
 252              	cmd_unmount:
 253              	.LFB262:
 254              		.loc 2 67 0
 255              		.cfi_startproc
 256              		@ args = 0, pretend = 0, frame = 8
 257              		@ frame_needed = 0, uses_anonymous_args = 0
 258              	.LVL15:
 259 0000 30B5     		push	{r4, r5, lr}
 260              		.cfi_def_cfa_offset 12
 261              		.cfi_offset 4, -12
 262              		.cfi_offset 5, -8
 263              		.cfi_offset 14, -4
 264 0002 0C4C     		ldr	r4, .L32
 265 0004 83B0     		sub	sp, sp, #12
 266              		.cfi_def_cfa_offset 24
 267              		.loc 2 67 0
 268 0006 2368     		ldr	r3, [r4]
 269 0008 0193     		str	r3, [sp, #4]
 270 000a 0546     		mov	r5, r0
 271              		.loc 2 71 0
 272 000c FFF7FEFF 		bl	unmountSDCard
 273              	.LVL16:
 274              		.loc 2 72 0
 275 0010 019A     		ldr	r2, [sp, #4]
 276 0012 2368     		ldr	r3, [r4]
 277              		.loc 2 71 0
 278 0014 18B1     		cbz	r0, .L31
 279              		.loc 2 75 0
 280 0016 9A42     		cmp	r2, r3
 281 0018 0AD1     		bne	.L30
 282 001a 03B0     		add	sp, sp, #12
 283              		.cfi_remember_state
 284              		.cfi_def_cfa_offset 12
 285              		@ sp needed
ARM GAS  C:\Users\shadi\AppData\Local\Temp\ccjiUIWy.s 			page 6


 286 001c 30BD     		pop	{r4, r5, pc}
 287              	.LVL17:
 288              	.L31:
 289              		.cfi_restore_state
 290              		.loc 2 72 0
 291 001e 9A42     		cmp	r2, r3
 292 0020 06D1     		bne	.L30
 293 0022 0549     		ldr	r1, .L32+4
 294 0024 2846     		mov	r0, r5
 295              		.loc 2 75 0
 296 0026 03B0     		add	sp, sp, #12
 297              		.cfi_remember_state
 298              		.cfi_def_cfa_offset 12
 299              		@ sp needed
 300 0028 BDE83040 		pop	{r4, r5, lr}
 301              		.cfi_restore 14
 302              		.cfi_restore 5
 303              		.cfi_restore 4
 304              		.cfi_def_cfa_offset 0
 305              	.LVL18:
 306              		.loc 2 72 0
 307 002c FFF7FEBF 		b	chprintf
 308              	.LVL19:
 309              	.L30:
 310              		.cfi_restore_state
 311              		.loc 2 75 0
 312 0030 FFF7FEFF 		bl	__stack_chk_fail
 313              	.LVL20:
 314              	.L33:
 315              		.align	2
 316              	.L32:
 317 0034 00000000 		.word	__stack_chk_guard
 318 0038 00000000 		.word	.LC3
 319              		.cfi_endproc
 320              	.LFE262:
 321              		.size	cmd_unmount, .-cmd_unmount
 322              		.section	.text.cmd_free,"ax",%progbits
 323              		.align	1
 324              		.p2align 4,,15
 325              		.global	cmd_free
 326              		.syntax unified
 327              		.thumb
 328              		.thumb_func
 329              		.fpu fpv4-sp-d16
 330              		.type	cmd_free, %function
 331              	cmd_free:
 332              	.LFB263:
 333              		.loc 2 77 0
 334              		.cfi_startproc
 335              		@ args = 0, pretend = 0, frame = 16
 336              		@ frame_needed = 0, uses_anonymous_args = 0
 337              	.LVL21:
 338 0000 70B5     		push	{r4, r5, r6, lr}
 339              		.cfi_def_cfa_offset 16
 340              		.cfi_offset 4, -16
 341              		.cfi_offset 5, -12
 342              		.cfi_offset 6, -8
ARM GAS  C:\Users\shadi\AppData\Local\Temp\ccjiUIWy.s 			page 7


 343              		.cfi_offset 14, -4
 344 0002 1D4E     		ldr	r6, .L41
 345 0004 84B0     		sub	sp, sp, #16
 346              		.cfi_def_cfa_offset 32
 347              		.loc 2 77 0
 348 0006 0546     		mov	r5, r0
 349 0008 3368     		ldr	r3, [r6]
 350              		.loc 2 85 0
 351 000a 1C48     		ldr	r0, .L41+4
 352              	.LVL22:
 353              		.loc 2 77 0
 354 000c 0393     		str	r3, [sp, #12]
 355              		.loc 2 85 0
 356 000e 02AA     		add	r2, sp, #8
 357              	.LVL23:
 358 0010 01A9     		add	r1, sp, #4
 359              	.LVL24:
 360 0012 FFF7FEFF 		bl	f_getfree
 361              	.LVL25:
 362              		.loc 2 86 0
 363 0016 40BB     		cbnz	r0, .L39
 364              		.loc 2 91 0
 365 0018 FFF7FEFF 		bl	getSDCardClusterSize
 366              	.LVL26:
 367              		.loc 2 95 0
 368 001c 019A     		ldr	r2, [sp, #4]
 369 001e 1849     		ldr	r1, .L41+8
 370              		.loc 2 91 0
 371 0020 0446     		mov	r4, r0
 372              	.LVL27:
 373              		.loc 2 95 0
 374 0022 0346     		mov	r3, r0
 375 0024 2846     		mov	r0, r5
 376              	.LVL28:
 377 0026 FFF7FEFF 		bl	chprintf
 378              	.LVL29:
 379              		.loc 2 97 0
 380 002a 019A     		ldr	r2, [sp, #4]
 381 002c 1549     		ldr	r1, .L41+12
 382 002e 5202     		lsls	r2, r2, #9
 383 0030 04FB02F2 		mul	r2, r4, r2
 384 0034 2846     		mov	r0, r5
 385 0036 FFF7FEFF 		bl	chprintf
 386              	.LVL30:
 387              		.loc 2 100 0
 388 003a 019A     		ldr	r2, [sp, #4]
 389              		.loc 2 99 0
 390 003c 1249     		ldr	r1, .L41+16
 391              		.loc 2 100 0
 392 003e 5202     		lsls	r2, r2, #9
 393 0040 04FB02F2 		mul	r2, r4, r2
 394              		.loc 2 99 0
 395 0044 920A     		lsrs	r2, r2, #10
 396 0046 2846     		mov	r0, r5
 397 0048 FFF7FEFF 		bl	chprintf
 398              	.LVL31:
 399              		.loc 2 102 0
ARM GAS  C:\Users\shadi\AppData\Local\Temp\ccjiUIWy.s 			page 8


 400 004c 019A     		ldr	r2, [sp, #4]
 401              		.loc 2 101 0
 402 004e 0F49     		ldr	r1, .L41+20
 403              		.loc 2 102 0
 404 0050 5202     		lsls	r2, r2, #9
 405 0052 04FB02F2 		mul	r2, r4, r2
 406              		.loc 2 101 0
 407 0056 2846     		mov	r0, r5
 408 0058 120D     		lsrs	r2, r2, #20
 409 005a FFF7FEFF 		bl	chprintf
 410              	.LVL32:
 411              	.L34:
 412              		.loc 2 103 0
 413 005e 039A     		ldr	r2, [sp, #12]
 414 0060 3368     		ldr	r3, [r6]
 415 0062 9A42     		cmp	r2, r3
 416 0064 06D1     		bne	.L40
 417 0066 04B0     		add	sp, sp, #16
 418              		.cfi_remember_state
 419              		.cfi_def_cfa_offset 16
 420              		@ sp needed
 421 0068 70BD     		pop	{r4, r5, r6, pc}
 422              	.LVL33:
 423              	.L39:
 424              		.cfi_restore_state
 425              		.loc 2 87 0
 426 006a 2846     		mov	r0, r5
 427              	.LVL34:
 428 006c 0849     		ldr	r1, .L41+24
 429 006e FFF7FEFF 		bl	chprintf
 430              	.LVL35:
 431 0072 F4E7     		b	.L34
 432              	.L40:
 433              		.loc 2 103 0
 434 0074 FFF7FEFF 		bl	__stack_chk_fail
 435              	.LVL36:
 436              	.L42:
 437              		.align	2
 438              	.L41:
 439 0078 00000000 		.word	__stack_chk_guard
 440 007c 00000000 		.word	.LC4
 441 0080 20000000 		.word	.LC6
 442 0084 58000000 		.word	.LC7
 443 0088 68000000 		.word	.LC8
 444 008c 78000000 		.word	.LC9
 445 0090 04000000 		.word	.LC5
 446              		.cfi_endproc
 447              	.LFE263:
 448              		.size	cmd_free, .-cmd_free
 449              		.section	.text.cmd_tree,"ax",%progbits
 450              		.align	1
 451              		.p2align 4,,15
 452              		.global	cmd_tree
 453              		.syntax unified
 454              		.thumb
 455              		.thumb_func
 456              		.fpu fpv4-sp-d16
ARM GAS  C:\Users\shadi\AppData\Local\Temp\ccjiUIWy.s 			page 9


 457              		.type	cmd_tree, %function
 458              	cmd_tree:
 459              	.LFB264:
 460              		.loc 2 105 0
 461              		.cfi_startproc
 462              		@ args = 0, pretend = 0, frame = 8
 463              		@ frame_needed = 0, uses_anonymous_args = 0
 464              	.LVL37:
 465 0000 30B5     		push	{r4, r5, lr}
 466              		.cfi_def_cfa_offset 12
 467              		.cfi_offset 4, -12
 468              		.cfi_offset 5, -8
 469              		.cfi_offset 14, -4
 470 0002 0C4C     		ldr	r4, .L48
 471 0004 83B0     		sub	sp, sp, #12
 472              		.cfi_def_cfa_offset 24
 473              		.loc 2 105 0
 474 0006 2368     		ldr	r3, [r4]
 475 0008 0193     		str	r3, [sp, #4]
 476              		.loc 2 112 0
 477 000a 4FF48072 		mov	r2, #256
 478              	.LVL38:
 479              		.loc 2 105 0
 480 000e 0546     		mov	r5, r0
 481              		.loc 2 112 0
 482 0010 0021     		movs	r1, #0
 483              	.LVL39:
 484 0012 0948     		ldr	r0, .L48+4
 485              	.LVL40:
 486 0014 FFF7FEFF 		bl	memset
 487              	.LVL41:
 488              		.loc 2 114 0
 489 0018 019A     		ldr	r2, [sp, #4]
 490 001a 2368     		ldr	r3, [r4]
 491 001c 9A42     		cmp	r2, r3
 492 001e 06D1     		bne	.L47
 493 0020 0549     		ldr	r1, .L48+4
 494 0022 2846     		mov	r0, r5
 495              		.loc 2 115 0
 496 0024 03B0     		add	sp, sp, #12
 497              		.cfi_remember_state
 498              		.cfi_def_cfa_offset 12
 499              		@ sp needed
 500 0026 BDE83040 		pop	{r4, r5, lr}
 501              		.cfi_restore 14
 502              		.cfi_restore 5
 503              		.cfi_restore 4
 504              		.cfi_def_cfa_offset 0
 505              	.LVL42:
 506              		.loc 2 114 0
 507 002a FFF7FEBF 		b	scan_files
 508              	.LVL43:
 509              	.L47:
 510              		.cfi_restore_state
 511 002e FFF7FEFF 		bl	__stack_chk_fail
 512              	.LVL44:
 513              	.L49:
ARM GAS  C:\Users\shadi\AppData\Local\Temp\ccjiUIWy.s 			page 10


 514 0032 00BF     		.align	2
 515              	.L48:
 516 0034 00000000 		.word	__stack_chk_guard
 517 0038 00000000 		.word	.LANCHOR0
 518              		.cfi_endproc
 519              	.LFE264:
 520              		.size	cmd_tree, .-cmd_tree
 521              		.section	.text.cmd_hello,"ax",%progbits
 522              		.align	1
 523              		.p2align 4,,15
 524              		.global	cmd_hello
 525              		.syntax unified
 526              		.thumb
 527              		.thumb_func
 528              		.fpu fpv4-sp-d16
 529              		.type	cmd_hello, %function
 530              	cmd_hello:
 531              	.LFB265:
 532              		.loc 2 118 0
 533              		.cfi_startproc
 534              		@ args = 0, pretend = 0, frame = 560
 535              		@ frame_needed = 0, uses_anonymous_args = 0
 536              	.LVL45:
 537 0000 70B5     		push	{r4, r5, r6, lr}
 538              		.cfi_def_cfa_offset 16
 539              		.cfi_offset 4, -16
 540              		.cfi_offset 5, -12
 541              		.cfi_offset 6, -8
 542              		.cfi_offset 14, -4
 543 0002 1D4C     		ldr	r4, .L60
 544 0004 ADF50C7D 		sub	sp, sp, #560
 545              		.cfi_def_cfa_offset 576
 546              		.loc 2 118 0
 547 0008 2368     		ldr	r3, [r4]
 548 000a 8B93     		str	r3, [sp, #556]
 549              		.loc 2 126 0
 550 000c 0029     		cmp	r1, #0
 551              		.loc 2 118 0
 552 000e 0546     		mov	r5, r0
 553              		.loc 2 126 0
 554 0010 0DDD     		ble	.L51
 555              		.loc 2 127 0
 556 0012 1A49     		ldr	r1, .L60+4
 557              	.LVL46:
 558 0014 FFF7FEFF 		bl	chprintf
 559              	.LVL47:
 560              		.loc 2 128 0
 561 0018 2846     		mov	r0, r5
 562 001a 1949     		ldr	r1, .L60+8
 563 001c FFF7FEFF 		bl	chprintf
 564              	.LVL48:
 565              	.L50:
 566              		.loc 2 155 0
 567 0020 8B9A     		ldr	r2, [sp, #556]
 568 0022 2368     		ldr	r3, [r4]
 569 0024 9A42     		cmp	r2, r3
 570 0026 25D1     		bne	.L59
ARM GAS  C:\Users\shadi\AppData\Local\Temp\ccjiUIWy.s 			page 11


 571 0028 0DF50C7D 		add	sp, sp, #560
 572              		.cfi_remember_state
 573              		.cfi_def_cfa_offset 16
 574              		@ sp needed
 575 002c 70BD     		pop	{r4, r5, r6, pc}
 576              	.LVL49:
 577              	.L51:
 578              		.cfi_restore_state
 579              		.loc 2 134 0
 580 002e 01A8     		add	r0, sp, #4
 581              	.LVL50:
 582 0030 0B22     		movs	r2, #11
 583              	.LVL51:
 584 0032 1449     		ldr	r1, .L60+12
 585              	.LVL52:
 586 0034 FFF7FEFF 		bl	f_open
 587              	.LVL53:
 588              		.loc 2 135 0
 589 0038 0646     		mov	r6, r0
 590 003a 40B1     		cbz	r0, .L53
 591              		.loc 2 136 0
 592 003c 1249     		ldr	r1, .L60+16
 593 003e 2846     		mov	r0, r5
 594              	.LVL54:
 595 0040 FFF7FEFF 		bl	chprintf
 596              	.LVL55:
 597              		.loc 2 137 0
 598 0044 3146     		mov	r1, r6
 599 0046 2846     		mov	r0, r5
 600 0048 FFF7FEFF 		bl	fverbose_error
 601              	.LVL56:
 602              		.loc 2 138 0
 603 004c E8E7     		b	.L50
 604              	.LVL57:
 605              	.L53:
 606              		.loc 2 140 0
 607 004e 0F49     		ldr	r1, .L60+20
 608 0050 2846     		mov	r0, r5
 609              	.LVL58:
 610 0052 FFF7FEFF 		bl	chprintf
 611              	.LVL59:
 612              		.loc 2 145 0
 613 0056 01A9     		add	r1, sp, #4
 614 0058 0D48     		ldr	r0, .L60+24
 615 005a FFF7FEFF 		bl	f_puts
 616              	.LVL60:
 617              		.loc 2 146 0
 618 005e 0130     		adds	r0, r0, #1
 619              	.LVL61:
 620              		.loc 2 147 0
 621 0060 0CBF     		ite	eq
 622 0062 0C49     		ldreq	r1, .L60+28
 623              		.loc 2 149 0
 624 0064 0C49     		ldrne	r1, .L60+32
 625              		.loc 2 147 0
 626 0066 2846     		mov	r0, r5
 627              	.LVL62:
ARM GAS  C:\Users\shadi\AppData\Local\Temp\ccjiUIWy.s 			page 12


 628              		.loc 2 149 0
 629 0068 FFF7FEFF 		bl	chprintf
 630              	.LVL63:
 631              		.loc 2 154 0
 632 006c 01A8     		add	r0, sp, #4
 633 006e FFF7FEFF 		bl	f_close
 634              	.LVL64:
 635 0072 D5E7     		b	.L50
 636              	.L59:
 637              		.loc 2 155 0
 638 0074 FFF7FEFF 		bl	__stack_chk_fail
 639              	.LVL65:
 640              	.L61:
 641              		.align	2
 642              	.L60:
 643 0078 00000000 		.word	__stack_chk_guard
 644 007c 00000000 		.word	.LC10
 645 0080 10000000 		.word	.LC11
 646 0084 40000000 		.word	.LC12
 647 0088 4C000000 		.word	.LC13
 648 008c 70000000 		.word	.LC14
 649 0090 94000000 		.word	.LC15
 650 0094 A0000000 		.word	.LC16
 651 0098 D0000000 		.word	.LC17
 652              		.cfi_endproc
 653              	.LFE265:
 654              		.size	cmd_hello, .-cmd_hello
 655              		.section	.text.cmd_mic_data,"ax",%progbits
 656              		.align	1
 657              		.p2align 4,,15
 658              		.syntax unified
 659              		.thumb
 660              		.thumb_func
 661              		.fpu fpv4-sp-d16
 662              		.type	cmd_mic_data, %function
 663              	cmd_mic_data:
 664              	.LFB307:
 665              		.loc 2 1016 0
 666              		.cfi_startproc
 667              		@ args = 0, pretend = 0, frame = 8
 668              		@ frame_needed = 0, uses_anonymous_args = 0
 669              	.LVL66:
 670 0000 70B5     		push	{r4, r5, r6, lr}
 671              		.cfi_def_cfa_offset 16
 672              		.cfi_offset 4, -16
 673              		.cfi_offset 5, -12
 674              		.cfi_offset 6, -8
 675              		.cfi_offset 14, -4
 676 0002 164E     		ldr	r6, .L69
 677              		.loc 2 1024 0
 678 0004 164D     		ldr	r5, .L69+4
 679              		.loc 2 1016 0
 680 0006 3368     		ldr	r3, [r6]
 681 0008 82B0     		sub	sp, sp, #8
 682              		.cfi_def_cfa_offset 24
 683              		.loc 2 1016 0
 684 000a 0193     		str	r3, [sp, #4]
ARM GAS  C:\Users\shadi\AppData\Local\Temp\ccjiUIWy.s 			page 13


 685              		.loc 2 1021 0
 686 000c FFF7FEFF 		bl	mic_buffer_get_size
 687              	.LVL67:
 688              		.loc 2 1022 0
 689 0010 45F2AA52 		movw	r2, #21930
 690 0014 010A     		lsrs	r1, r0, #8
 691              		.loc 2 1024 0
 692 0016 2B68     		ldr	r3, [r5]
 693              		.loc 2 1022 0
 694 0018 8DF80300 		strb	r0, [sp, #3]
 695 001c 8DF80210 		strb	r1, [sp, #2]
 696 0020 ADF80020 		strh	r2, [sp]	@ movhi
 697              		.loc 2 1021 0
 698 0024 0446     		mov	r4, r0
 699              	.LVL68:
 700              		.loc 2 1024 0
 701 0026 1B68     		ldr	r3, [r3]
 702 0028 0422     		movs	r2, #4
 703 002a 6946     		mov	r1, sp
 704 002c 2846     		mov	r0, r5
 705              	.LVL69:
 706 002e 9847     		blx	r3
 707              	.LVL70:
 708              		.loc 2 1025 0
 709 0030 FFF7FEFF 		bl	mic_buffer_ready_reset
 710              	.LVL71:
 711              	.L63:
 712              		.loc 2 1026 0 discriminator 1
 713 0034 FFF7FEFF 		bl	mic_buffer_is_ready
 714              	.LVL72:
 715 0038 0028     		cmp	r0, #0
 716 003a FBD0     		beq	.L63
 717              		.loc 2 1027 0
 718 003c FFF7FEFF 		bl	mic_get_buffer_ptr
 719              	.LVL73:
 720              		.loc 2 1028 0
 721 0040 2B68     		ldr	r3, [r5]
 722 0042 0146     		mov	r1, r0
 723 0044 1B68     		ldr	r3, [r3]
 724 0046 0648     		ldr	r0, .L69+4
 725              	.LVL74:
 726 0048 2246     		mov	r2, r4
 727 004a 9847     		blx	r3
 728              	.LVL75:
 729              		.loc 2 1029 0
 730 004c 019A     		ldr	r2, [sp, #4]
 731 004e 3368     		ldr	r3, [r6]
 732 0050 9A42     		cmp	r2, r3
 733 0052 01D1     		bne	.L68
 734 0054 02B0     		add	sp, sp, #8
 735              		.cfi_remember_state
 736              		.cfi_def_cfa_offset 16
 737              		@ sp needed
 738 0056 70BD     		pop	{r4, r5, r6, pc}
 739              	.L68:
 740              		.cfi_restore_state
 741 0058 FFF7FEFF 		bl	__stack_chk_fail
ARM GAS  C:\Users\shadi\AppData\Local\Temp\ccjiUIWy.s 			page 14


 742              	.LVL76:
 743              	.L70:
 744              		.align	2
 745              	.L69:
 746 005c 00000000 		.word	__stack_chk_guard
 747 0060 00000000 		.word	SDU1
 748              		.cfi_endproc
 749              	.LFE307:
 750              		.size	cmd_mic_data, .-cmd_mic_data
 751              		.section	.text.cmd_audio_stop,"ax",%progbits
 752              		.align	1
 753              		.p2align 4,,15
 754              		.syntax unified
 755              		.thumb
 756              		.thumb_func
 757              		.fpu fpv4-sp-d16
 758              		.type	cmd_audio_stop, %function
 759              	cmd_audio_stop:
 760              	.LFB305:
 761              		.loc 2 997 0
 762              		.cfi_startproc
 763              		@ args = 0, pretend = 0, frame = 8
 764              		@ frame_needed = 0, uses_anonymous_args = 0
 765              	.LVL77:
 766 0000 00B5     		push	{lr}
 767              		.cfi_def_cfa_offset 4
 768              		.cfi_offset 14, -4
 769 0002 074B     		ldr	r3, .L76
 770 0004 83B0     		sub	sp, sp, #12
 771              		.cfi_def_cfa_offset 16
 772              		.loc 2 997 0
 773 0006 1A68     		ldr	r2, [r3]
 774              	.LVL78:
 775 0008 0192     		str	r2, [sp, #4]
 776              		.loc 2 1001 0
 777 000a 019A     		ldr	r2, [sp, #4]
 778 000c 1B68     		ldr	r3, [r3]
 779 000e 9A42     		cmp	r2, r3
 780 0010 04D1     		bne	.L75
 781              		.loc 2 1002 0
 782 0012 03B0     		add	sp, sp, #12
 783              		.cfi_remember_state
 784              		.cfi_def_cfa_offset 4
 785              		@ sp needed
 786 0014 5DF804EB 		ldr	lr, [sp], #4
 787              		.cfi_restore 14
 788              		.cfi_def_cfa_offset 0
 789              		.loc 2 1001 0
 790 0018 FFF7FEBF 		b	dac_stop
 791              	.LVL79:
 792              	.L75:
 793              		.cfi_restore_state
 794 001c FFF7FEFF 		bl	__stack_chk_fail
 795              	.LVL80:
 796              	.L77:
 797              		.align	2
 798              	.L76:
ARM GAS  C:\Users\shadi\AppData\Local\Temp\ccjiUIWy.s 			page 15


 799 0020 00000000 		.word	__stack_chk_guard
 800              		.cfi_endproc
 801              	.LFE305:
 802              		.size	cmd_audio_stop, .-cmd_audio_stop
 803              		.section	.text.cmd_get_battery,"ax",%progbits
 804              		.align	1
 805              		.p2align 4,,15
 806              		.syntax unified
 807              		.thumb
 808              		.thumb_func
 809              		.fpu fpv4-sp-d16
 810              		.type	cmd_get_battery, %function
 811              	cmd_get_battery:
 812              	.LFB303:
 813              		.loc 2 977 0
 814              		.cfi_startproc
 815              		@ args = 0, pretend = 0, frame = 8
 816              		@ frame_needed = 0, uses_anonymous_args = 0
 817              	.LVL81:
 818 0000 30B5     		push	{r4, r5, lr}
 819              		.cfi_def_cfa_offset 12
 820              		.cfi_offset 4, -12
 821              		.cfi_offset 5, -8
 822              		.cfi_offset 14, -4
 823 0002 0A4C     		ldr	r4, .L83
 824 0004 83B0     		sub	sp, sp, #12
 825              		.cfi_def_cfa_offset 24
 826              		.loc 2 977 0
 827 0006 2368     		ldr	r3, [r4]
 828 0008 0193     		str	r3, [sp, #4]
 829 000a 0546     		mov	r5, r0
 830              		.loc 2 981 0
 831 000c FFF7FEFF 		bl	get_battery_raw
 832              	.LVL82:
 833 0010 0199     		ldr	r1, [sp, #4]
 834 0012 2368     		ldr	r3, [r4]
 835 0014 9942     		cmp	r1, r3
 836 0016 07D1     		bne	.L82
 837 0018 0549     		ldr	r1, .L83+4
 838 001a 0246     		mov	r2, r0
 839 001c 2846     		mov	r0, r5
 840              		.loc 2 982 0
 841 001e 03B0     		add	sp, sp, #12
 842              		.cfi_remember_state
 843              		.cfi_def_cfa_offset 12
 844              		@ sp needed
 845 0020 BDE83040 		pop	{r4, r5, lr}
 846              		.cfi_restore 14
 847              		.cfi_restore 5
 848              		.cfi_restore 4
 849              		.cfi_def_cfa_offset 0
 850              	.LVL83:
 851              		.loc 2 981 0
 852 0024 FFF7FEBF 		b	chprintf
 853              	.LVL84:
 854              	.L82:
 855              		.cfi_restore_state
ARM GAS  C:\Users\shadi\AppData\Local\Temp\ccjiUIWy.s 			page 16


 856 0028 FFF7FEFF 		bl	__stack_chk_fail
 857              	.LVL85:
 858              	.L84:
 859              		.align	2
 860              	.L83:
 861 002c 00000000 		.word	__stack_chk_guard
 862 0030 00000000 		.word	.LC18
 863              		.cfi_endproc
 864              	.LFE303:
 865              		.size	cmd_get_battery, .-cmd_get_battery
 866              		.section	.text.cmd_cam_capture,"ax",%progbits
 867              		.align	1
 868              		.p2align 4,,15
 869              		.syntax unified
 870              		.thumb
 871              		.thumb_func
 872              		.fpu fpv4-sp-d16
 873              		.type	cmd_cam_capture, %function
 874              	cmd_cam_capture:
 875              	.LFB299:
 876              		.loc 2 906 0
 877              		.cfi_startproc
 878              		@ args = 0, pretend = 0, frame = 8
 879              		@ frame_needed = 0, uses_anonymous_args = 0
 880              	.LVL86:
 881 0000 00B5     		push	{lr}
 882              		.cfi_def_cfa_offset 4
 883              		.cfi_offset 14, -4
 884 0002 074B     		ldr	r3, .L90
 885 0004 83B0     		sub	sp, sp, #12
 886              		.cfi_def_cfa_offset 16
 887              		.loc 2 906 0
 888 0006 1A68     		ldr	r2, [r3]
 889              	.LVL87:
 890 0008 0192     		str	r2, [sp, #4]
 891              		.loc 2 910 0
 892 000a 019A     		ldr	r2, [sp, #4]
 893 000c 1B68     		ldr	r3, [r3]
 894 000e 9A42     		cmp	r2, r3
 895 0010 04D1     		bne	.L89
 896              		.loc 2 911 0
 897 0012 03B0     		add	sp, sp, #12
 898              		.cfi_remember_state
 899              		.cfi_def_cfa_offset 4
 900              		@ sp needed
 901 0014 5DF804EB 		ldr	lr, [sp], #4
 902              		.cfi_restore 14
 903              		.cfi_def_cfa_offset 0
 904              		.loc 2 910 0
 905 0018 FFF7FEBF 		b	dcmi_capture_start
 906              	.LVL88:
 907              	.L89:
 908              		.cfi_restore_state
 909 001c FFF7FEFF 		bl	__stack_chk_fail
 910              	.LVL89:
 911              	.L91:
 912              		.align	2
ARM GAS  C:\Users\shadi\AppData\Local\Temp\ccjiUIWy.s 			page 17


 913              	.L90:
 914 0020 00000000 		.word	__stack_chk_guard
 915              		.cfi_endproc
 916              	.LFE299:
 917              		.size	cmd_cam_capture, .-cmd_cam_capture
 918              		.section	.text.cmd_cam_dcmi_unprepare,"ax",%progbits
 919              		.align	1
 920              		.p2align 4,,15
 921              		.syntax unified
 922              		.thumb
 923              		.thumb_func
 924              		.fpu fpv4-sp-d16
 925              		.type	cmd_cam_dcmi_unprepare, %function
 926              	cmd_cam_dcmi_unprepare:
 927              	.LFB298:
 928              		.loc 2 895 0
 929              		.cfi_startproc
 930              		@ args = 0, pretend = 0, frame = 8
 931              		@ frame_needed = 0, uses_anonymous_args = 0
 932              	.LVL90:
 933 0000 30B5     		push	{r4, r5, lr}
 934              		.cfi_def_cfa_offset 12
 935              		.cfi_offset 4, -12
 936              		.cfi_offset 5, -8
 937              		.cfi_offset 14, -4
 938 0002 0A4C     		ldr	r4, .L97
 939 0004 83B0     		sub	sp, sp, #12
 940              		.cfi_def_cfa_offset 24
 941              		.loc 2 895 0
 942 0006 2368     		ldr	r3, [r4]
 943 0008 0193     		str	r3, [sp, #4]
 944 000a 0546     		mov	r5, r0
 945              		.loc 2 899 0
 946 000c FFF7FEFF 		bl	dcmi_unprepare
 947              	.LVL91:
 948              		.loc 2 901 0
 949 0010 019A     		ldr	r2, [sp, #4]
 950 0012 2368     		ldr	r3, [r4]
 951 0014 9A42     		cmp	r2, r3
 952 0016 06D1     		bne	.L96
 953 0018 0549     		ldr	r1, .L97+4
 954 001a 2846     		mov	r0, r5
 955              		.loc 2 903 0
 956 001c 03B0     		add	sp, sp, #12
 957              		.cfi_remember_state
 958              		.cfi_def_cfa_offset 12
 959              		@ sp needed
 960 001e BDE83040 		pop	{r4, r5, lr}
 961              		.cfi_restore 14
 962              		.cfi_restore 5
 963              		.cfi_restore 4
 964              		.cfi_def_cfa_offset 0
 965              	.LVL92:
 966              		.loc 2 901 0
 967 0022 FFF7FEBF 		b	chprintf
 968              	.LVL93:
 969              	.L96:
ARM GAS  C:\Users\shadi\AppData\Local\Temp\ccjiUIWy.s 			page 18


 970              		.cfi_restore_state
 971 0026 FFF7FEFF 		bl	__stack_chk_fail
 972              	.LVL94:
 973              	.L98:
 974 002a 00BF     		.align	2
 975              	.L97:
 976 002c 00000000 		.word	__stack_chk_guard
 977 0030 00000000 		.word	.LC19
 978              		.cfi_endproc
 979              	.LFE298:
 980              		.size	cmd_cam_dcmi_unprepare, .-cmd_cam_dcmi_unprepare
 981              		.section	.text.cmd_config_erase,"ax",%progbits
 982              		.align	1
 983              		.p2align 4,,15
 984              		.syntax unified
 985              		.thumb
 986              		.thumb_func
 987              		.fpu fpv4-sp-d16
 988              		.type	cmd_config_erase, %function
 989              	cmd_config_erase:
 990              	.LFB285:
 991              		.loc 2 615 0
 992              		.cfi_startproc
 993              		@ args = 0, pretend = 0, frame = 8
 994              		@ frame_needed = 0, uses_anonymous_args = 0
 995              	.LVL95:
 996 0000 00B5     		push	{lr}
 997              		.cfi_def_cfa_offset 4
 998              		.cfi_offset 14, -4
 999 0002 084B     		ldr	r3, .L104
 1000 0004 83B0     		sub	sp, sp, #12
 1001              		.cfi_def_cfa_offset 16
 1002              		.loc 2 615 0
 1003 0006 1A68     		ldr	r2, [r3]
 1004              	.LVL96:
 1005 0008 0192     		str	r2, [sp, #4]
 1006              		.loc 2 621 0
 1007 000a 019A     		ldr	r2, [sp, #4]
 1008 000c 1B68     		ldr	r3, [r3]
 1009 000e 9A42     		cmp	r2, r3
 1010 0010 05D1     		bne	.L103
 1011 0012 0548     		ldr	r0, .L104+4
 1012              	.LVL97:
 1013              		.loc 2 622 0
 1014 0014 03B0     		add	sp, sp, #12
 1015              		.cfi_remember_state
 1016              		.cfi_def_cfa_offset 4
 1017              		@ sp needed
 1018 0016 5DF804EB 		ldr	lr, [sp], #4
 1019              		.cfi_restore 14
 1020              		.cfi_def_cfa_offset 0
 1021              		.loc 2 621 0
 1022 001a FFF7FEBF 		b	config_erase
 1023              	.LVL98:
 1024              	.L103:
 1025              		.cfi_restore_state
 1026 001e FFF7FEFF 		bl	__stack_chk_fail
ARM GAS  C:\Users\shadi\AppData\Local\Temp\ccjiUIWy.s 			page 19


 1027              	.LVL99:
 1028              	.L105:
 1029 0022 00BF     		.align	2
 1030              	.L104:
 1031 0024 00000000 		.word	__stack_chk_guard
 1032 0028 00000000 		.word	_config_start
 1033              		.cfi_endproc
 1034              	.LFE285:
 1035              		.size	cmd_config_erase, .-cmd_config_erase
 1036              		.section	.text.cmd_config_load,"ax",%progbits
 1037              		.align	1
 1038              		.p2align 4,,15
 1039              		.syntax unified
 1040              		.thumb
 1041              		.thumb_func
 1042              		.fpu fpv4-sp-d16
 1043              		.type	cmd_config_load, %function
 1044              	cmd_config_load:
 1045              	.LFB287:
 1046              		.loc 2 646 0
 1047              		.cfi_startproc
 1048              		@ args = 0, pretend = 0, frame = 8
 1049              		@ frame_needed = 0, uses_anonymous_args = 0
 1050              	.LVL100:
 1051 0000 30B5     		push	{r4, r5, lr}
 1052              		.cfi_def_cfa_offset 12
 1053              		.cfi_offset 4, -12
 1054              		.cfi_offset 5, -8
 1055              		.cfi_offset 14, -4
 1056 0002 104C     		ldr	r4, .L115
 1057              		.loc 2 652 0
 1058 0004 1049     		ldr	r1, .L115+4
 1059              	.LVL101:
 1060              		.loc 2 646 0
 1061 0006 2368     		ldr	r3, [r4]
 1062 0008 83B0     		sub	sp, sp, #12
 1063              		.cfi_def_cfa_offset 24
 1064              		.loc 2 646 0
 1065 000a 0546     		mov	r5, r0
 1066              		.loc 2 652 0
 1067 000c 0F48     		ldr	r0, .L115+8
 1068              	.LVL102:
 1069              		.loc 2 646 0
 1070 000e 0193     		str	r3, [sp, #4]
 1071              		.loc 2 652 0
 1072 0010 FFF7FEFF 		bl	config_load
 1073              	.LVL103:
 1074              		.loc 2 655 0
 1075 0014 019A     		ldr	r2, [sp, #4]
 1076 0016 2368     		ldr	r3, [r4]
 1077              		.loc 2 654 0
 1078 0018 40B9     		cbnz	r0, .L114
 1079              		.loc 2 657 0
 1080 001a 9A42     		cmp	r2, r3
 1081 001c 0FD1     		bne	.L113
 1082 001e 0C49     		ldr	r1, .L115+12
 1083 0020 2846     		mov	r0, r5
ARM GAS  C:\Users\shadi\AppData\Local\Temp\ccjiUIWy.s 			page 20


 1084              	.LVL104:
 1085              		.loc 2 659 0
 1086 0022 03B0     		add	sp, sp, #12
 1087              		.cfi_remember_state
 1088              		.cfi_def_cfa_offset 12
 1089              		@ sp needed
 1090 0024 BDE83040 		pop	{r4, r5, lr}
 1091              		.cfi_restore 14
 1092              		.cfi_restore 5
 1093              		.cfi_restore 4
 1094              		.cfi_def_cfa_offset 0
 1095              	.LVL105:
 1096              		.loc 2 657 0
 1097 0028 FFF7FEBF 		b	chprintf
 1098              	.LVL106:
 1099              	.L114:
 1100              		.cfi_restore_state
 1101              		.loc 2 655 0
 1102 002c 9A42     		cmp	r2, r3
 1103 002e 06D1     		bne	.L113
 1104 0030 0849     		ldr	r1, .L115+16
 1105 0032 2846     		mov	r0, r5
 1106              	.LVL107:
 1107              		.loc 2 659 0
 1108 0034 03B0     		add	sp, sp, #12
 1109              		.cfi_remember_state
 1110              		.cfi_def_cfa_offset 12
 1111              		@ sp needed
 1112 0036 BDE83040 		pop	{r4, r5, lr}
 1113              		.cfi_restore 14
 1114              		.cfi_restore 5
 1115              		.cfi_restore 4
 1116              		.cfi_def_cfa_offset 0
 1117              	.LVL108:
 1118              		.loc 2 657 0
 1119 003a FFF7FEBF 		b	chprintf
 1120              	.LVL109:
 1121              	.L113:
 1122              		.cfi_restore_state
 1123 003e FFF7FEFF 		bl	__stack_chk_fail
 1124              	.LVL110:
 1125              	.L116:
 1126 0042 00BF     		.align	2
 1127              	.L115:
 1128 0044 00000000 		.word	__stack_chk_guard
 1129 0048 00000000 		.word	_config_start
 1130 004c 00000000 		.word	parameter_root
 1131 0050 08000000 		.word	.LC21
 1132 0054 00000000 		.word	.LC20
 1133              		.cfi_endproc
 1134              	.LFE287:
 1135              		.size	cmd_config_load, .-cmd_config_load
 1136              		.section	.text.cmd_config_save,"ax",%progbits
 1137              		.align	1
 1138              		.p2align 4,,15
 1139              		.syntax unified
 1140              		.thumb
ARM GAS  C:\Users\shadi\AppData\Local\Temp\ccjiUIWy.s 			page 21


 1141              		.thumb_func
 1142              		.fpu fpv4-sp-d16
 1143              		.type	cmd_config_save, %function
 1144              	cmd_config_save:
 1145              	.LFB286:
 1146              		.loc 2 625 0
 1147              		.cfi_startproc
 1148              		@ args = 0, pretend = 0, frame = 8
 1149              		@ frame_needed = 0, uses_anonymous_args = 0
 1150              	.LVL111:
 1151 0000 70B5     		push	{r4, r5, r6, lr}
 1152              		.cfi_def_cfa_offset 16
 1153              		.cfi_offset 4, -16
 1154              		.cfi_offset 5, -12
 1155              		.cfi_offset 6, -8
 1156              		.cfi_offset 14, -4
 1157              		.loc 2 629 0
 1158 0002 1349     		ldr	r1, .L126
 1159              	.LVL112:
 1160 0004 134C     		ldr	r4, .L126+4
 1161              		.loc 2 625 0
 1162 0006 144D     		ldr	r5, .L126+8
 1163              		.loc 2 633 0
 1164 0008 144A     		ldr	r2, .L126+12
 1165              	.LVL113:
 1166              		.loc 2 625 0
 1167 000a 2B68     		ldr	r3, [r5]
 1168 000c 82B0     		sub	sp, sp, #8
 1169              		.cfi_def_cfa_offset 24
 1170              		.loc 2 633 0
 1171 000e 091B     		subs	r1, r1, r4
 1172              		.loc 2 625 0
 1173 0010 0646     		mov	r6, r0
 1174              		.loc 2 633 0
 1175 0012 2046     		mov	r0, r4
 1176              	.LVL114:
 1177              		.loc 2 625 0
 1178 0014 0193     		str	r3, [sp, #4]
 1179              	.LVL115:
 1180              		.loc 2 633 0
 1181 0016 FFF7FEFF 		bl	config_save
 1182              	.LVL116:
 1183              		.loc 2 636 0
 1184 001a 2146     		mov	r1, r4
 1185 001c 0F48     		ldr	r0, .L126+12
 1186 001e FFF7FEFF 		bl	config_load
 1187              	.LVL117:
 1188              		.loc 2 639 0
 1189 0022 019A     		ldr	r2, [sp, #4]
 1190 0024 2B68     		ldr	r3, [r5]
 1191              		.loc 2 638 0
 1192 0026 40B9     		cbnz	r0, .L125
 1193              		.loc 2 641 0
 1194 0028 9A42     		cmp	r2, r3
 1195 002a 0FD1     		bne	.L124
 1196 002c 0C49     		ldr	r1, .L126+16
 1197 002e 3046     		mov	r0, r6
ARM GAS  C:\Users\shadi\AppData\Local\Temp\ccjiUIWy.s 			page 22


 1198              	.LVL118:
 1199              		.loc 2 643 0
 1200 0030 02B0     		add	sp, sp, #8
 1201              		.cfi_remember_state
 1202              		.cfi_def_cfa_offset 16
 1203              		@ sp needed
 1204 0032 BDE87040 		pop	{r4, r5, r6, lr}
 1205              		.cfi_restore 14
 1206              		.cfi_restore 6
 1207              		.cfi_restore 5
 1208              		.cfi_restore 4
 1209              		.cfi_def_cfa_offset 0
 1210              	.LVL119:
 1211              		.loc 2 641 0
 1212 0036 FFF7FEBF 		b	chprintf
 1213              	.LVL120:
 1214              	.L125:
 1215              		.cfi_restore_state
 1216              		.loc 2 639 0
 1217 003a 9A42     		cmp	r2, r3
 1218 003c 06D1     		bne	.L124
 1219 003e 0949     		ldr	r1, .L126+20
 1220 0040 3046     		mov	r0, r6
 1221              	.LVL121:
 1222              		.loc 2 643 0
 1223 0042 02B0     		add	sp, sp, #8
 1224              		.cfi_remember_state
 1225              		.cfi_def_cfa_offset 16
 1226              		@ sp needed
 1227 0044 BDE87040 		pop	{r4, r5, r6, lr}
 1228              		.cfi_restore 14
 1229              		.cfi_restore 6
 1230              		.cfi_restore 5
 1231              		.cfi_restore 4
 1232              		.cfi_def_cfa_offset 0
 1233              	.LVL122:
 1234              		.loc 2 641 0
 1235 0048 FFF7FEBF 		b	chprintf
 1236              	.LVL123:
 1237              	.L124:
 1238              		.cfi_restore_state
 1239 004c FFF7FEFF 		bl	__stack_chk_fail
 1240              	.LVL124:
 1241              	.L127:
 1242              		.align	2
 1243              	.L126:
 1244 0050 00000000 		.word	_config_end
 1245 0054 00000000 		.word	_config_start
 1246 0058 00000000 		.word	__stack_chk_guard
 1247 005c 00000000 		.word	parameter_root
 1248 0060 00000000 		.word	.LC22
 1249 0064 00000000 		.word	.LC20
 1250              		.cfi_endproc
 1251              	.LFE286:
 1252              		.size	cmd_config_save, .-cmd_config_save
 1253              		.section	.text.cmd_config_set,"ax",%progbits
 1254              		.align	1
ARM GAS  C:\Users\shadi\AppData\Local\Temp\ccjiUIWy.s 			page 23


 1255              		.p2align 4,,15
 1256              		.syntax unified
 1257              		.thumb
 1258              		.thumb_func
 1259              		.fpu fpv4-sp-d16
 1260              		.type	cmd_config_set, %function
 1261              	cmd_config_set:
 1262              	.LFB284:
 1263              		.loc 2 565 0
 1264              		.cfi_startproc
 1265              		@ args = 0, pretend = 0, frame = 8
 1266              		@ frame_needed = 0, uses_anonymous_args = 0
 1267              	.LVL125:
 1268 0000 F0B5     		push	{r4, r5, r6, r7, lr}
 1269              		.cfi_def_cfa_offset 20
 1270              		.cfi_offset 4, -20
 1271              		.cfi_offset 5, -16
 1272              		.cfi_offset 6, -12
 1273              		.cfi_offset 7, -8
 1274              		.cfi_offset 14, -4
 1275 0002 2D4C     		ldr	r4, .L147
 1276 0004 83B0     		sub	sp, sp, #12
 1277              		.cfi_def_cfa_offset 32
 1278              		.loc 2 565 0
 1279 0006 2368     		ldr	r3, [r4]
 1280 0008 0193     		str	r3, [sp, #4]
 1281              		.loc 2 569 0
 1282 000a 0229     		cmp	r1, #2
 1283 000c 08D0     		beq	.L129
 1284              		.loc 2 570 0
 1285 000e 2B49     		ldr	r1, .L147+4
 1286              	.LVL126:
 1287 0010 FFF7FEFF 		bl	chprintf
 1288              	.LVL127:
 1289              	.L128:
 1290              		.loc 2 612 0
 1291 0014 019A     		ldr	r2, [sp, #4]
 1292 0016 2368     		ldr	r3, [r4]
 1293 0018 9A42     		cmp	r2, r3
 1294 001a 4BD1     		bne	.L142
 1295 001c 03B0     		add	sp, sp, #12
 1296              		.cfi_remember_state
 1297              		.cfi_def_cfa_offset 20
 1298              		@ sp needed
 1299 001e F0BD     		pop	{r4, r5, r6, r7, pc}
 1300              	.LVL128:
 1301              	.L129:
 1302              		.cfi_restore_state
 1303 0020 0646     		mov	r6, r0
 1304              		.loc 2 574 0
 1305 0022 1168     		ldr	r1, [r2]
 1306              	.LVL129:
 1307 0024 2648     		ldr	r0, .L147+8
 1308              	.LVL130:
 1309 0026 1546     		mov	r5, r2
 1310 0028 FFF7FEFF 		bl	parameter_find
 1311              	.LVL131:
ARM GAS  C:\Users\shadi\AppData\Local\Temp\ccjiUIWy.s 			page 24


 1312              		.loc 2 576 0
 1313 002c 0746     		mov	r7, r0
 1314 002e 60B3     		cbz	r0, .L143
 1315              		.loc 2 581 0
 1316 0030 837B     		ldrb	r3, [r0, #14]	@ zero_extendqisi2
 1317 0032 032B     		cmp	r3, #3
 1318 0034 0DD0     		beq	.L133
 1319 0036 042B     		cmp	r3, #4
 1320 0038 07D0     		beq	.L134
 1321 003a 022B     		cmp	r3, #2
 1322 003c 15D0     		beq	.L144
 1323              		.loc 2 609 0
 1324 003e 0268     		ldr	r2, [r0]
 1325 0040 2049     		ldr	r1, .L147+12
 1326 0042 3046     		mov	r0, r6
 1327              	.LVL132:
 1328 0044 FFF7FEFF 		bl	chprintf
 1329              	.LVL133:
 1330              		.loc 2 610 0
 1331 0048 E4E7     		b	.L128
 1332              	.LVL134:
 1333              	.L134:
 1334              		.loc 2 602 0
 1335 004a 6968     		ldr	r1, [r5, #4]
 1336 004c FFF7FEFF 		bl	parameter_string_set
 1337              	.LVL135:
 1338 0050 E0E7     		b	.L128
 1339              	.LVL136:
 1340              	.L133:
 1341              		.loc 2 583 0
 1342 0052 6868     		ldr	r0, [r5, #4]
 1343              	.LVL137:
 1344 0054 1C49     		ldr	r1, .L147+16
 1345 0056 6A46     		mov	r2, sp
 1346 0058 FFF7FEFF 		bl	sscanf
 1347              	.LVL138:
 1348 005c 0128     		cmp	r0, #1
 1349 005e 1AD0     		beq	.L145
 1350              		.loc 2 586 0
 1351 0060 3046     		mov	r0, r6
 1352 0062 1A49     		ldr	r1, .L147+20
 1353 0064 FFF7FEFF 		bl	chprintf
 1354              	.LVL139:
 1355 0068 D4E7     		b	.L128
 1356              	.LVL140:
 1357              	.L144:
 1358              		.loc 2 591 0
 1359 006a 6D68     		ldr	r5, [r5, #4]
 1360              	.LVL141:
 1361 006c 1849     		ldr	r1, .L147+24
 1362 006e 2846     		mov	r0, r5
 1363              	.LVL142:
 1364 0070 FFF7FEFF 		bl	strcmp
 1365              	.LVL143:
 1366 0074 A0B1     		cbz	r0, .L146
 1367              		.loc 2 593 0
 1368 0076 2846     		mov	r0, r5
ARM GAS  C:\Users\shadi\AppData\Local\Temp\ccjiUIWy.s 			page 25


 1369 0078 1649     		ldr	r1, .L147+28
 1370 007a FFF7FEFF 		bl	strcmp
 1371              	.LVL144:
 1372 007e A0B9     		cbnz	r0, .L138
 1373              		.loc 2 594 0
 1374 0080 0146     		mov	r1, r0
 1375 0082 3846     		mov	r0, r7
 1376 0084 FFF7FEFF 		bl	parameter_boolean_set
 1377              	.LVL145:
 1378 0088 C4E7     		b	.L128
 1379              	.LVL146:
 1380              	.L143:
 1381              		.loc 2 577 0
 1382 008a 2A68     		ldr	r2, [r5]
 1383 008c 1249     		ldr	r1, .L147+32
 1384 008e 3046     		mov	r0, r6
 1385              	.LVL147:
 1386 0090 FFF7FEFF 		bl	chprintf
 1387              	.LVL148:
 1388              		.loc 2 578 0
 1389 0094 BEE7     		b	.L128
 1390              	.L145:
 1391              		.loc 2 584 0
 1392 0096 3846     		mov	r0, r7
 1393 0098 0099     		ldr	r1, [sp]
 1394 009a FFF7FEFF 		bl	parameter_integer_set
 1395              	.LVL149:
 1396 009e B9E7     		b	.L128
 1397              	.LVL150:
 1398              	.L146:
 1399              		.loc 2 592 0
 1400 00a0 3846     		mov	r0, r7
 1401 00a2 0121     		movs	r1, #1
 1402 00a4 FFF7FEFF 		bl	parameter_boolean_set
 1403              	.LVL151:
 1404 00a8 B4E7     		b	.L128
 1405              	.L138:
 1406              		.loc 2 596 0
 1407 00aa 3046     		mov	r0, r6
 1408 00ac 0B49     		ldr	r1, .L147+36
 1409 00ae FFF7FEFF 		bl	chprintf
 1410              	.LVL152:
 1411 00b2 AFE7     		b	.L128
 1412              	.LVL153:
 1413              	.L142:
 1414              		.loc 2 612 0
 1415 00b4 FFF7FEFF 		bl	__stack_chk_fail
 1416              	.LVL154:
 1417              	.L148:
 1418              		.align	2
 1419              	.L147:
 1420 00b8 00000000 		.word	__stack_chk_guard
 1421 00bc 00000000 		.word	.LC23
 1422 00c0 00000000 		.word	parameter_root
 1423 00c4 C8000000 		.word	.LC30
 1424 00c8 4C000000 		.word	.LC25
 1425 00cc 50000000 		.word	.LC26
ARM GAS  C:\Users\shadi\AppData\Local\Temp\ccjiUIWy.s 			page 26


 1426 00d0 78000000 		.word	.LC27
 1427 00d4 80000000 		.word	.LC28
 1428 00d8 2C000000 		.word	.LC24
 1429 00dc 88000000 		.word	.LC29
 1430              		.cfi_endproc
 1431              	.LFE284:
 1432              		.size	cmd_config_set, .-cmd_config_set
 1433              		.global	__aeabi_f2d
 1434              		.section	.text.show_config_tree,"ax",%progbits
 1435              		.align	1
 1436              		.p2align 4,,15
 1437              		.syntax unified
 1438              		.thumb
 1439              		.thumb_func
 1440              		.fpu fpv4-sp-d16
 1441              		.type	show_config_tree, %function
 1442              	show_config_tree:
 1443              	.LFB282:
 1444              		.loc 2 502 0
 1445              		.cfi_startproc
 1446              		@ args = 0, pretend = 0, frame = 72
 1447              		@ frame_needed = 0, uses_anonymous_args = 0
 1448              	.LVL155:
 1449 0000 2DE9F04F 		push	{r4, r5, r6, r7, r8, r9, r10, fp, lr}
 1450              		.cfi_def_cfa_offset 36
 1451              		.cfi_offset 4, -36
 1452              		.cfi_offset 5, -32
 1453              		.cfi_offset 6, -28
 1454              		.cfi_offset 7, -24
 1455              		.cfi_offset 8, -20
 1456              		.cfi_offset 9, -16
 1457              		.cfi_offset 10, -12
 1458              		.cfi_offset 11, -8
 1459              		.cfi_offset 14, -4
 1460 0004 DFF854A1 		ldr	r10, .L186+32
 1461 0008 95B0     		sub	sp, sp, #84
 1462              		.cfi_def_cfa_offset 120
 1463              		.loc 2 502 0
 1464 000a DAF80030 		ldr	r3, [r10]
 1465 000e 1393     		str	r3, [sp, #76]
 1466              	.LBB149:
 1467              	.LBB150:
 1468              		.loc 2 496 0
 1469 0010 B2F10008 		subs	r8, r2, #0
 1470              	.LBE150:
 1471              	.LBE149:
 1472              		.loc 2 502 0
 1473 0014 0446     		mov	r4, r0
 1474              	.LVL156:
 1475 0016 8946     		mov	r9, r1
 1476              	.LBB152:
 1477              	.LBB151:
 1478              		.loc 2 496 0
 1479 0018 08DD     		ble	.L150
 1480              		.loc 2 497 0
 1481 001a 484E     		ldr	r6, .L186
 1482              		.loc 2 496 0
ARM GAS  C:\Users\shadi\AppData\Local\Temp\ccjiUIWy.s 			page 27


 1483 001c 0025     		movs	r5, #0
 1484              	.LVL157:
 1485              	.L151:
 1486 001e 0135     		adds	r5, r5, #1
 1487              	.LVL158:
 1488              		.loc 2 497 0
 1489 0020 3146     		mov	r1, r6
 1490 0022 2046     		mov	r0, r4
 1491 0024 FFF7FEFF 		bl	chprintf
 1492              	.LVL159:
 1493              		.loc 2 496 0
 1494 0028 A845     		cmp	r8, r5
 1495 002a F8D1     		bne	.L151
 1496              	.LVL160:
 1497              	.L150:
 1498              	.LBE151:
 1499              	.LBE152:
 1500              		.loc 2 507 0
 1501 002c D9F80020 		ldr	r2, [r9]
 1502 0030 4349     		ldr	r1, .L186+4
 1503 0032 2046     		mov	r0, r4
 1504 0034 FFF7FEFF 		bl	chprintf
 1505              	.LVL161:
 1506              		.loc 2 509 0
 1507 0038 D9F81450 		ldr	r5, [r9, #20]
 1508              	.LVL162:
 1509 003c 55B3     		cbz	r5, .L153
 1510              	.LBB153:
 1511              	.LBB154:
 1512              		.loc 2 497 0
 1513 003e 3F4F     		ldr	r7, .L186
 1514              	.L152:
 1515              	.LVL163:
 1516              		.loc 2 496 0
 1517 0040 B8F1000F 		cmp	r8, #0
 1518 0044 0BDB     		blt	.L165
 1519 0046 08F10106 		add	r6, r8, #1
 1520 004a 4FF0000B 		mov	fp, #0
 1521              	.LVL164:
 1522              	.L154:
 1523 004e 0BF1010B 		add	fp, fp, #1
 1524              	.LVL165:
 1525              		.loc 2 497 0
 1526 0052 3946     		mov	r1, r7
 1527 0054 2046     		mov	r0, r4
 1528 0056 FFF7FEFF 		bl	chprintf
 1529              	.LVL166:
 1530              		.loc 2 496 0
 1531 005a B345     		cmp	fp, r6
 1532 005c F7D1     		bne	.L154
 1533              	.LVL167:
 1534              	.L165:
 1535              	.LBE154:
 1536              	.LBE153:
 1537              		.loc 2 511 0
 1538 005e 2846     		mov	r0, r5
 1539 0060 FFF7FEFF 		bl	parameter_defined
ARM GAS  C:\Users\shadi\AppData\Local\Temp\ccjiUIWy.s 			page 28


 1540              	.LVL168:
 1541 0064 0028     		cmp	r0, #0
 1542 0066 50D0     		beq	.L155
 1543              		.loc 2 512 0
 1544 0068 AB7B     		ldrb	r3, [r5, #14]	@ zero_extendqisi2
 1545 006a 5A1E     		subs	r2, r3, #1
 1546 006c 032A     		cmp	r2, #3
 1547 006e 52D8     		bhi	.L156
 1548 0070 DFE802F0 		tbb	[pc, r2]
 1549              	.L158:
 1550 0074 3B       		.byte	(.L157-.L158)/2
 1551 0075 2B       		.byte	(.L159-.L158)/2
 1552 0076 20       		.byte	(.L160-.L158)/2
 1553 0077 02       		.byte	(.L161-.L158)/2
 1554              		.p2align 1
 1555              	.L161:
 1556              		.loc 2 526 0
 1557 0078 03A9     		add	r1, sp, #12
 1558 007a 4022     		movs	r2, #64
 1559 007c 2846     		mov	r0, r5
 1560 007e FFF7FEFF 		bl	parameter_string_get
 1561              	.LVL169:
 1562              		.loc 2 527 0
 1563 0082 03AB     		add	r3, sp, #12
 1564 0084 2A68     		ldr	r2, [r5]
 1565 0086 2F49     		ldr	r1, .L186+8
 1566 0088 2046     		mov	r0, r4
 1567 008a FFF7FEFF 		bl	chprintf
 1568              	.LVL170:
 1569              	.L162:
 1570              		.loc 2 509 0 discriminator 2
 1571 008e AD68     		ldr	r5, [r5, #8]
 1572              	.LVL171:
 1573 0090 002D     		cmp	r5, #0
 1574 0092 D5D1     		bne	.L152
 1575              	.L153:
 1576              		.loc 2 539 0
 1577 0094 D9F80C10 		ldr	r1, [r9, #12]
 1578 0098 0029     		cmp	r1, #0
 1579 009a 47D1     		bne	.L183
 1580              	.L166:
 1581              		.loc 2 543 0
 1582 009c D9F81010 		ldr	r1, [r9, #16]
 1583 00a0 0029     		cmp	r1, #0
 1584 00a2 3ED1     		bne	.L184
 1585              	.L149:
 1586              		.loc 2 546 0
 1587 00a4 139A     		ldr	r2, [sp, #76]
 1588 00a6 DAF80030 		ldr	r3, [r10]
 1589 00aa 9A42     		cmp	r2, r3
 1590 00ac 44D1     		bne	.L185
 1591 00ae 15B0     		add	sp, sp, #84
 1592              		.cfi_remember_state
 1593              		.cfi_def_cfa_offset 36
 1594              		@ sp needed
 1595 00b0 BDE8F08F 		pop	{r4, r5, r6, r7, r8, r9, r10, fp, pc}
 1596              	.LVL172:
ARM GAS  C:\Users\shadi\AppData\Local\Temp\ccjiUIWy.s 			page 29


 1597              	.L160:
 1598              		.cfi_restore_state
 1599              		.loc 2 518 0
 1600 00b4 2846     		mov	r0, r5
 1601 00b6 2E68     		ldr	r6, [r5]
 1602 00b8 FFF7FEFF 		bl	parameter_integer_get
 1603              	.LVL173:
 1604 00bc 3246     		mov	r2, r6
 1605 00be 0346     		mov	r3, r0
 1606 00c0 2149     		ldr	r1, .L186+12
 1607 00c2 2046     		mov	r0, r4
 1608 00c4 FFF7FEFF 		bl	chprintf
 1609              	.LVL174:
 1610              		.loc 2 519 0
 1611 00c8 E1E7     		b	.L162
 1612              	.L159:
 1613              		.loc 2 522 0
 1614 00ca 2846     		mov	r0, r5
 1615 00cc 2E68     		ldr	r6, [r5]
 1616 00ce FFF7FEFF 		bl	parameter_boolean_get
 1617              	.LVL175:
 1618 00d2 DFF88CC0 		ldr	ip, .L186+36
 1619 00d6 1D4B     		ldr	r3, .L186+16
 1620 00d8 1A49     		ldr	r1, .L186+8
 1621 00da 0028     		cmp	r0, #0
 1622 00dc 18BF     		it	ne
 1623 00de 6346     		movne	r3, ip
 1624 00e0 3246     		mov	r2, r6
 1625 00e2 2046     		mov	r0, r4
 1626 00e4 FFF7FEFF 		bl	chprintf
 1627              	.LVL176:
 1628              		.loc 2 523 0
 1629 00e8 D1E7     		b	.L162
 1630              	.L157:
 1631              		.loc 2 514 0
 1632 00ea 2846     		mov	r0, r5
 1633 00ec 2E68     		ldr	r6, [r5]
 1634 00ee FFF7FEFF 		bl	parameter_scalar_get
 1635              	.LVL177:
 1636 00f2 10EE100A 		vmov	r0, s0
 1637 00f6 FFF7FEFF 		bl	__aeabi_f2d
 1638              	.LVL178:
 1639 00fa 3246     		mov	r2, r6
 1640 00fc CDE90001 		strd	r0, [sp]
 1641 0100 1349     		ldr	r1, .L186+20
 1642 0102 2046     		mov	r0, r4
 1643 0104 FFF7FEFF 		bl	chprintf
 1644              	.LVL179:
 1645              		.loc 2 515 0
 1646 0108 C1E7     		b	.L162
 1647              	.L155:
 1648              		.loc 2 535 0
 1649 010a 2A68     		ldr	r2, [r5]
 1650 010c 1149     		ldr	r1, .L186+24
 1651 010e 2046     		mov	r0, r4
 1652 0110 FFF7FEFF 		bl	chprintf
 1653              	.LVL180:
ARM GAS  C:\Users\shadi\AppData\Local\Temp\ccjiUIWy.s 			page 30


 1654 0114 BBE7     		b	.L162
 1655              	.L156:
 1656              		.loc 2 531 0
 1657 0116 2A68     		ldr	r2, [r5]
 1658 0118 0F49     		ldr	r1, .L186+28
 1659 011a 2046     		mov	r0, r4
 1660 011c FFF7FEFF 		bl	chprintf
 1661              	.LVL181:
 1662              		.loc 2 532 0
 1663 0120 B5E7     		b	.L162
 1664              	.L184:
 1665              		.loc 2 544 0
 1666 0122 4246     		mov	r2, r8
 1667 0124 2046     		mov	r0, r4
 1668 0126 FFF76BFF 		bl	show_config_tree
 1669              	.LVL182:
 1670              		.loc 2 546 0
 1671 012a BBE7     		b	.L149
 1672              	.L183:
 1673              		.loc 2 540 0
 1674 012c 08F10102 		add	r2, r8, #1
 1675 0130 2046     		mov	r0, r4
 1676 0132 FFF765FF 		bl	show_config_tree
 1677              	.LVL183:
 1678 0136 B1E7     		b	.L166
 1679              	.L185:
 1680              		.loc 2 546 0
 1681 0138 FFF7FEFF 		bl	__stack_chk_fail
 1682              	.LVL184:
 1683              	.L187:
 1684              		.align	2
 1685              	.L186:
 1686 013c 00000000 		.word	.LC31
 1687 0140 04000000 		.word	.LC32
 1688 0144 24000000 		.word	.LC35
 1689 0148 18000000 		.word	.LC34
 1690 014c 80000000 		.word	.LC28
 1691 0150 0C000000 		.word	.LC33
 1692 0154 30000000 		.word	.LC36
 1693 0158 C8000000 		.word	.LC30
 1694 015c 00000000 		.word	__stack_chk_guard
 1695 0160 78000000 		.word	.LC27
 1696              		.cfi_endproc
 1697              	.LFE282:
 1698              		.size	show_config_tree, .-show_config_tree
 1699              		.section	.text.cmd_config_tree,"ax",%progbits
 1700              		.align	1
 1701              		.p2align 4,,15
 1702              		.syntax unified
 1703              		.thumb
 1704              		.thumb_func
 1705              		.fpu fpv4-sp-d16
 1706              		.type	cmd_config_tree, %function
 1707              	cmd_config_tree:
 1708              	.LFB283:
 1709              		.loc 2 549 0
 1710              		.cfi_startproc
ARM GAS  C:\Users\shadi\AppData\Local\Temp\ccjiUIWy.s 			page 31


 1711              		@ args = 0, pretend = 0, frame = 8
 1712              		@ frame_needed = 0, uses_anonymous_args = 0
 1713              	.LVL185:
 1714 0000 30B5     		push	{r4, r5, lr}
 1715              		.cfi_def_cfa_offset 12
 1716              		.cfi_offset 4, -12
 1717              		.cfi_offset 5, -8
 1718              		.cfi_offset 14, -4
 1719 0002 134C     		ldr	r4, .L197
 1720 0004 83B0     		sub	sp, sp, #12
 1721              		.cfi_def_cfa_offset 24
 1722              		.loc 2 549 0
 1723 0006 2368     		ldr	r3, [r4]
 1724 0008 0193     		str	r3, [sp, #4]
 1725              		.loc 2 551 0
 1726 000a 0129     		cmp	r1, #1
 1727              		.loc 2 549 0
 1728 000c 0546     		mov	r5, r0
 1729              		.loc 2 551 0
 1730 000e 0BD0     		beq	.L196
 1731              		.loc 2 552 0
 1732 0010 1049     		ldr	r1, .L197+4
 1733              	.LVL186:
 1734              	.L189:
 1735              		.loc 2 561 0
 1736 0012 019A     		ldr	r2, [sp, #4]
 1737 0014 2368     		ldr	r3, [r4]
 1738 0016 9A42     		cmp	r2, r3
 1739 0018 18D1     		bne	.L195
 1740 001a 2846     		mov	r0, r5
 1741 001c 0022     		movs	r2, #0
 1742              		.loc 2 562 0
 1743 001e 03B0     		add	sp, sp, #12
 1744              		.cfi_remember_state
 1745              		.cfi_def_cfa_offset 12
 1746              		@ sp needed
 1747 0020 BDE83040 		pop	{r4, r5, lr}
 1748              		.cfi_restore 14
 1749              		.cfi_restore 5
 1750              		.cfi_restore 4
 1751              		.cfi_def_cfa_offset 0
 1752              	.LVL187:
 1753              		.loc 2 561 0
 1754 0024 FFF7FEBF 		b	show_config_tree
 1755              	.LVL188:
 1756              	.L196:
 1757              		.cfi_restore_state
 1758              		.loc 2 554 0
 1759 0028 1168     		ldr	r1, [r2]
 1760              	.LVL189:
 1761 002a 0A48     		ldr	r0, .L197+4
 1762              	.LVL190:
 1763 002c FFF7FEFF 		bl	parameter_namespace_find
 1764              	.LVL191:
 1765              		.loc 2 555 0
 1766 0030 0146     		mov	r1, r0
 1767 0032 0028     		cmp	r0, #0
ARM GAS  C:\Users\shadi\AppData\Local\Temp\ccjiUIWy.s 			page 32


 1768 0034 EDD1     		bne	.L189
 1769              		.loc 2 556 0
 1770 0036 019A     		ldr	r2, [sp, #4]
 1771 0038 2368     		ldr	r3, [r4]
 1772 003a 9A42     		cmp	r2, r3
 1773 003c 06D1     		bne	.L195
 1774 003e 0649     		ldr	r1, .L197+8
 1775 0040 2846     		mov	r0, r5
 1776              	.LVL192:
 1777              		.loc 2 562 0
 1778 0042 03B0     		add	sp, sp, #12
 1779              		.cfi_remember_state
 1780              		.cfi_def_cfa_offset 12
 1781              		@ sp needed
 1782 0044 BDE83040 		pop	{r4, r5, lr}
 1783              		.cfi_restore 14
 1784              		.cfi_restore 5
 1785              		.cfi_restore 4
 1786              		.cfi_def_cfa_offset 0
 1787              	.LVL193:
 1788              		.loc 2 556 0
 1789 0048 FFF7FEBF 		b	chprintf
 1790              	.LVL194:
 1791              	.L195:
 1792              		.cfi_restore_state
 1793              		.loc 2 561 0
 1794 004c FFF7FEFF 		bl	__stack_chk_fail
 1795              	.LVL195:
 1796              	.L198:
 1797              		.align	2
 1798              	.L197:
 1799 0050 00000000 		.word	__stack_chk_guard
 1800 0054 00000000 		.word	parameter_root
 1801 0058 00000000 		.word	.LC37
 1802              		.cfi_endproc
 1803              	.LFE283:
 1804              		.size	cmd_config_tree, .-cmd_config_tree
 1805              		.section	.text.cmd_melody_stop,"ax",%progbits
 1806              		.align	1
 1807              		.p2align 4,,15
 1808              		.syntax unified
 1809              		.thumb
 1810              		.thumb_func
 1811              		.fpu fpv4-sp-d16
 1812              		.type	cmd_melody_stop, %function
 1813              	cmd_melody_stop:
 1814              	.LFB274:
 1815              		.loc 2 343 0
 1816              		.cfi_startproc
 1817              		@ args = 0, pretend = 0, frame = 8
 1818              		@ frame_needed = 0, uses_anonymous_args = 0
 1819              	.LVL196:
 1820 0000 00B5     		push	{lr}
 1821              		.cfi_def_cfa_offset 4
 1822              		.cfi_offset 14, -4
 1823 0002 074B     		ldr	r3, .L204
 1824 0004 83B0     		sub	sp, sp, #12
ARM GAS  C:\Users\shadi\AppData\Local\Temp\ccjiUIWy.s 			page 33


 1825              		.cfi_def_cfa_offset 16
 1826              		.loc 2 343 0
 1827 0006 1A68     		ldr	r2, [r3]
 1828              	.LVL197:
 1829 0008 0192     		str	r2, [sp, #4]
 1830              		.loc 2 348 0
 1831 000a 019A     		ldr	r2, [sp, #4]
 1832 000c 1B68     		ldr	r3, [r3]
 1833 000e 9A42     		cmp	r2, r3
 1834 0010 04D1     		bne	.L203
 1835              		.loc 2 349 0
 1836 0012 03B0     		add	sp, sp, #12
 1837              		.cfi_remember_state
 1838              		.cfi_def_cfa_offset 4
 1839              		@ sp needed
 1840 0014 5DF804EB 		ldr	lr, [sp], #4
 1841              		.cfi_restore 14
 1842              		.cfi_def_cfa_offset 0
 1843              		.loc 2 348 0
 1844 0018 FFF7FEBF 		b	stopCurrentMelody
 1845              	.LVL198:
 1846              	.L203:
 1847              		.cfi_restore_state
 1848 001c FFF7FEFF 		bl	__stack_chk_fail
 1849              	.LVL199:
 1850              	.L205:
 1851              		.align	2
 1852              	.L204:
 1853 0020 00000000 		.word	__stack_chk_guard
 1854              		.cfi_endproc
 1855              	.LFE274:
 1856              		.size	cmd_melody_stop, .-cmd_melody_stop
 1857              		.section	.text.cmd_sound_file_stop,"ax",%progbits
 1858              		.align	1
 1859              		.p2align 4,,15
 1860              		.syntax unified
 1861              		.thumb
 1862              		.thumb_func
 1863              		.fpu fpv4-sp-d16
 1864              		.type	cmd_sound_file_stop, %function
 1865              	cmd_sound_file_stop:
 1866              	.LFB271:
 1867              		.loc 2 298 0
 1868              		.cfi_startproc
 1869              		@ args = 0, pretend = 0, frame = 8
 1870              		@ frame_needed = 0, uses_anonymous_args = 0
 1871              	.LVL200:
 1872 0000 00B5     		push	{lr}
 1873              		.cfi_def_cfa_offset 4
 1874              		.cfi_offset 14, -4
 1875 0002 074B     		ldr	r3, .L211
 1876 0004 83B0     		sub	sp, sp, #12
 1877              		.cfi_def_cfa_offset 16
 1878              		.loc 2 298 0
 1879 0006 1A68     		ldr	r2, [r3]
 1880              	.LVL201:
 1881 0008 0192     		str	r2, [sp, #4]
ARM GAS  C:\Users\shadi\AppData\Local\Temp\ccjiUIWy.s 			page 34


 1882              		.loc 2 303 0
 1883 000a 019A     		ldr	r2, [sp, #4]
 1884 000c 1B68     		ldr	r3, [r3]
 1885 000e 9A42     		cmp	r2, r3
 1886 0010 04D1     		bne	.L210
 1887              		.loc 2 304 0
 1888 0012 03B0     		add	sp, sp, #12
 1889              		.cfi_remember_state
 1890              		.cfi_def_cfa_offset 4
 1891              		@ sp needed
 1892 0014 5DF804EB 		ldr	lr, [sp], #4
 1893              		.cfi_restore 14
 1894              		.cfi_def_cfa_offset 0
 1895              		.loc 2 303 0
 1896 0018 FFF7FEBF 		b	stopCurrentSoundFile
 1897              	.LVL202:
 1898              	.L210:
 1899              		.cfi_restore_state
 1900 001c FFF7FEFF 		bl	__stack_chk_fail
 1901              	.LVL203:
 1902              	.L212:
 1903              		.align	2
 1904              	.L211:
 1905 0020 00000000 		.word	__stack_chk_guard
 1906              		.cfi_endproc
 1907              	.LFE271:
 1908              		.size	cmd_sound_file_stop, .-cmd_sound_file_stop
 1909              		.section	.text.shell_spawn_thd,"ax",%progbits
 1910              		.align	1
 1911              		.p2align 4,,15
 1912              		.syntax unified
 1913              		.thumb
 1914              		.thumb_func
 1915              		.fpu fpv4-sp-d16
 1916              		.type	shell_spawn_thd, %function
 1917              	shell_spawn_thd:
 1918              	.LFB309:
 1919              		.loc 2 1296 0
 1920              		.cfi_startproc
 1921              		@ args = 0, pretend = 0, frame = 8
 1922              		@ frame_needed = 0, uses_anonymous_args = 0
 1923              	.LVL204:
 1924 0000 70B5     		push	{r4, r5, r6, lr}
 1925              		.cfi_def_cfa_offset 16
 1926              		.cfi_offset 4, -16
 1927              		.cfi_offset 5, -12
 1928              		.cfi_offset 6, -8
 1929              		.cfi_offset 14, -4
 1930 0002 144B     		ldr	r3, .L235
 1931 0004 144D     		ldr	r5, .L235+4
 1932 0006 1B68     		ldr	r3, [r3]
 1933              		.loc 2 1310 0
 1934 0008 144E     		ldr	r6, .L235+8
 1935              		.loc 2 1296 0
 1936 000a 82B0     		sub	sp, sp, #8
 1937              		.cfi_def_cfa_offset 24
 1938              		.loc 2 1298 0
ARM GAS  C:\Users\shadi\AppData\Local\Temp\ccjiUIWy.s 			page 35


 1939 000c 0024     		movs	r4, #0
 1940              		.loc 2 1296 0
 1941 000e 0193     		str	r3, [sp, #4]
 1942              	.LVL205:
 1943              		.loc 2 1305 0
 1944 0010 FFF7FEFF 		bl	shellInit
 1945              	.LVL206:
 1946              	.L219:
 1947              		.loc 2 1308 0
 1948 0014 7CB1     		cbz	r4, .L214
 1949              		.loc 2 1313 0
 1950 0016 94F82030 		ldrb	r3, [r4, #32]	@ zero_extendqisi2
 1951 001a 0F2B     		cmp	r3, #15
 1952 001c 04D0     		beq	.L234
 1953              	.L216:
 1954              		.loc 2 1318 0
 1955 001e 4FF4FA70 		mov	r0, #500
 1956 0022 FFF7FEFF 		bl	chThdSleep
 1957              	.LVL207:
 1958              		.loc 2 1308 0
 1959 0026 F5E7     		b	.L219
 1960              	.L234:
 1961              		.loc 2 1314 0
 1962 0028 2046     		mov	r0, r4
 1963 002a FFF7FEFF 		bl	chThdRelease
 1964              	.LVL208:
 1965              	.L233:
 1966              		.loc 2 1318 0
 1967 002e 4FF4FA70 		mov	r0, #500
 1968 0032 FFF7FEFF 		bl	chThdSleep
 1969              	.LVL209:
 1970              	.L214:
 1971              		.loc 2 1309 0
 1972 0036 D5F85432 		ldr	r3, [r5, #596]
 1973 003a 1B68     		ldr	r3, [r3]
 1974 003c 1B78     		ldrb	r3, [r3]	@ zero_extendqisi2
 1975 003e 042B     		cmp	r3, #4
 1976 0040 F5D1     		bne	.L233
 1977              		.loc 2 1310 0
 1978 0042 4022     		movs	r2, #64
 1979 0044 40F67811 		movw	r1, #2424
 1980 0048 3046     		mov	r0, r6
 1981 004a FFF7FEFF 		bl	shellCreate
 1982              	.LVL210:
 1983 004e 0446     		mov	r4, r0
 1984              	.LVL211:
 1985 0050 E5E7     		b	.L216
 1986              	.L236:
 1987 0052 00BF     		.align	2
 1988              	.L235:
 1989 0054 00000000 		.word	__stack_chk_guard
 1990 0058 00000000 		.word	SDU1
 1991 005c 00000000 		.word	.LANCHOR1
 1992              		.cfi_endproc
 1993              	.LFE309:
 1994              		.size	shell_spawn_thd, .-shell_spawn_thd
 1995              		.section	.text.cmd_mkdir,"ax",%progbits
ARM GAS  C:\Users\shadi\AppData\Local\Temp\ccjiUIWy.s 			page 36


 1996              		.align	1
 1997              		.p2align 4,,15
 1998              		.global	cmd_mkdir
 1999              		.syntax unified
 2000              		.thumb
 2001              		.thumb_func
 2002              		.fpu fpv4-sp-d16
 2003              		.type	cmd_mkdir, %function
 2004              	cmd_mkdir:
 2005              	.LFB266:
 2006              		.loc 2 157 0
 2007              		.cfi_startproc
 2008              		@ args = 0, pretend = 0, frame = 8
 2009              		@ frame_needed = 0, uses_anonymous_args = 0
 2010              	.LVL212:
 2011 0000 F0B5     		push	{r4, r5, r6, r7, lr}
 2012              		.cfi_def_cfa_offset 20
 2013              		.cfi_offset 4, -20
 2014              		.cfi_offset 5, -16
 2015              		.cfi_offset 6, -12
 2016              		.cfi_offset 7, -8
 2017              		.cfi_offset 14, -4
 2018 0002 1C4C     		ldr	r4, .L248
 2019 0004 83B0     		sub	sp, sp, #12
 2020              		.cfi_def_cfa_offset 32
 2021              		.loc 2 157 0
 2022 0006 2368     		ldr	r3, [r4]
 2023 0008 0193     		str	r3, [sp, #4]
 2024              		.loc 2 159 0
 2025 000a 0129     		cmp	r1, #1
 2026              		.loc 2 157 0
 2027 000c 0546     		mov	r5, r0
 2028              		.loc 2 159 0
 2029 000e 0DD0     		beq	.L238
 2030              		.loc 2 160 0
 2031 0010 1949     		ldr	r1, .L248+4
 2032              	.LVL213:
 2033 0012 FFF7FEFF 		bl	chprintf
 2034              	.LVL214:
 2035              		.loc 2 161 0
 2036 0016 019A     		ldr	r2, [sp, #4]
 2037 0018 2368     		ldr	r3, [r4]
 2038 001a 9A42     		cmp	r2, r3
 2039 001c 28D1     		bne	.L246
 2040 001e 1749     		ldr	r1, .L248+8
 2041 0020 2846     		mov	r0, r5
 2042              		.loc 2 179 0
 2043 0022 03B0     		add	sp, sp, #12
 2044              		.cfi_remember_state
 2045              		.cfi_def_cfa_offset 20
 2046              		@ sp needed
 2047 0024 BDE8F040 		pop	{r4, r5, r6, r7, lr}
 2048              		.cfi_restore 14
 2049              		.cfi_restore 7
 2050              		.cfi_restore 6
 2051              		.cfi_restore 5
 2052              		.cfi_restore 4
ARM GAS  C:\Users\shadi\AppData\Local\Temp\ccjiUIWy.s 			page 37


 2053              		.cfi_def_cfa_offset 0
 2054              	.LVL215:
 2055              		.loc 2 161 0
 2056 0028 FFF7FEBF 		b	chprintf
 2057              	.LVL216:
 2058              	.L238:
 2059              		.cfi_restore_state
 2060              		.loc 2 167 0
 2061 002c 1068     		ldr	r0, [r2]
 2062              	.LVL217:
 2063 002e 1646     		mov	r6, r2
 2064 0030 FFF7FEFF 		bl	f_mkdir
 2065              	.LVL218:
 2066              		.loc 2 168 0
 2067 0034 0746     		mov	r7, r0
 2068 0036 58B9     		cbnz	r0, .L247
 2069              	.LVL219:
 2070              	.LBB157:
 2071              	.LBB158:
 2072              		.loc 2 176 0
 2073 0038 019A     		ldr	r2, [sp, #4]
 2074 003a 2368     		ldr	r3, [r4]
 2075 003c 9A42     		cmp	r2, r3
 2076 003e 17D1     		bne	.L246
 2077 0040 3268     		ldr	r2, [r6]
 2078 0042 0F49     		ldr	r1, .L248+12
 2079 0044 2846     		mov	r0, r5
 2080              	.LVL220:
 2081              	.LBE158:
 2082              	.LBE157:
 2083              		.loc 2 179 0
 2084 0046 03B0     		add	sp, sp, #12
 2085              		.cfi_remember_state
 2086              		.cfi_def_cfa_offset 20
 2087              		@ sp needed
 2088 0048 BDE8F040 		pop	{r4, r5, r6, r7, lr}
 2089              		.cfi_restore 14
 2090              		.cfi_restore 7
 2091              		.cfi_restore 6
 2092              		.cfi_restore 5
 2093              		.cfi_restore 4
 2094              		.cfi_def_cfa_offset 0
 2095              	.LVL221:
 2096              	.LBB161:
 2097              	.LBB159:
 2098              		.loc 2 176 0
 2099 004c FFF7FEBF 		b	chprintf
 2100              	.LVL222:
 2101              	.L247:
 2102              		.cfi_restore_state
 2103              	.LBE159:
 2104              	.LBE161:
 2105              		.loc 2 172 0
 2106 0050 3268     		ldr	r2, [r6]
 2107 0052 0C49     		ldr	r1, .L248+16
 2108 0054 2846     		mov	r0, r5
 2109              	.LVL223:
ARM GAS  C:\Users\shadi\AppData\Local\Temp\ccjiUIWy.s 			page 38


 2110 0056 FFF7FEFF 		bl	chprintf
 2111              	.LVL224:
 2112              		.loc 2 173 0
 2113 005a 019A     		ldr	r2, [sp, #4]
 2114 005c 2368     		ldr	r3, [r4]
 2115 005e 9A42     		cmp	r2, r3
 2116 0060 06D1     		bne	.L246
 2117 0062 3946     		mov	r1, r7
 2118 0064 2846     		mov	r0, r5
 2119              		.loc 2 179 0
 2120 0066 03B0     		add	sp, sp, #12
 2121              		.cfi_remember_state
 2122              		.cfi_def_cfa_offset 20
 2123              		@ sp needed
 2124 0068 BDE8F040 		pop	{r4, r5, r6, r7, lr}
 2125              		.cfi_restore 14
 2126              		.cfi_restore 7
 2127              		.cfi_restore 6
 2128              		.cfi_restore 5
 2129              		.cfi_restore 4
 2130              		.cfi_def_cfa_offset 0
 2131              	.LVL225:
 2132              		.loc 2 173 0
 2133 006c FFF7FEBF 		b	fverbose_error
 2134              	.LVL226:
 2135              	.L246:
 2136              		.cfi_restore_state
 2137              	.LBB162:
 2138              	.LBB160:
 2139              		.loc 2 176 0
 2140 0070 FFF7FEFF 		bl	__stack_chk_fail
 2141              	.LVL227:
 2142              	.L249:
 2143              		.align	2
 2144              	.L248:
 2145 0074 00000000 		.word	__stack_chk_guard
 2146 0078 00000000 		.word	.LC38
 2147 007c 18000000 		.word	.LC39
 2148 0080 68000000 		.word	.LC41
 2149 0084 4C000000 		.word	.LC40
 2150              	.LBE160:
 2151              	.LBE162:
 2152              		.cfi_endproc
 2153              	.LFE266:
 2154              		.size	cmd_mkdir, .-cmd_mkdir
 2155              		.section	.text.cmd_setlabel,"ax",%progbits
 2156              		.align	1
 2157              		.p2align 4,,15
 2158              		.global	cmd_setlabel
 2159              		.syntax unified
 2160              		.thumb
 2161              		.thumb_func
 2162              		.fpu fpv4-sp-d16
 2163              		.type	cmd_setlabel, %function
 2164              	cmd_setlabel:
 2165              	.LFB267:
 2166              		.loc 2 181 0
ARM GAS  C:\Users\shadi\AppData\Local\Temp\ccjiUIWy.s 			page 39


 2167              		.cfi_startproc
 2168              		@ args = 0, pretend = 0, frame = 8
 2169              		@ frame_needed = 0, uses_anonymous_args = 0
 2170              	.LVL228:
 2171 0000 70B5     		push	{r4, r5, r6, lr}
 2172              		.cfi_def_cfa_offset 16
 2173              		.cfi_offset 4, -16
 2174              		.cfi_offset 5, -12
 2175              		.cfi_offset 6, -8
 2176              		.cfi_offset 14, -4
 2177 0002 1B4C     		ldr	r4, .L261
 2178 0004 82B0     		sub	sp, sp, #8
 2179              		.cfi_def_cfa_offset 24
 2180              		.loc 2 181 0
 2181 0006 2368     		ldr	r3, [r4]
 2182 0008 0193     		str	r3, [sp, #4]
 2183              		.loc 2 183 0
 2184 000a 0129     		cmp	r1, #1
 2185              		.loc 2 181 0
 2186 000c 0546     		mov	r5, r0
 2187              		.loc 2 183 0
 2188 000e 0DD0     		beq	.L251
 2189              		.loc 2 184 0
 2190 0010 1849     		ldr	r1, .L261+4
 2191              	.LVL229:
 2192 0012 FFF7FEFF 		bl	chprintf
 2193              	.LVL230:
 2194              		.loc 2 185 0
 2195 0016 019A     		ldr	r2, [sp, #4]
 2196 0018 2368     		ldr	r3, [r4]
 2197 001a 9A42     		cmp	r2, r3
 2198 001c 25D1     		bne	.L259
 2199 001e 1649     		ldr	r1, .L261+8
 2200 0020 2846     		mov	r0, r5
 2201              		.loc 2 200 0
 2202 0022 02B0     		add	sp, sp, #8
 2203              		.cfi_remember_state
 2204              		.cfi_def_cfa_offset 16
 2205              		@ sp needed
 2206 0024 BDE87040 		pop	{r4, r5, r6, lr}
 2207              		.cfi_restore 14
 2208              		.cfi_restore 6
 2209              		.cfi_restore 5
 2210              		.cfi_restore 4
 2211              		.cfi_def_cfa_offset 0
 2212              	.LVL231:
 2213              	.LBB165:
 2214              	.LBB166:
 2215              		.loc 2 197 0
 2216 0028 FFF7FEBF 		b	chprintf
 2217              	.LVL232:
 2218              	.L251:
 2219              		.cfi_restore_state
 2220              		.loc 2 191 0
 2221 002c 1068     		ldr	r0, [r2]
 2222              	.LVL233:
 2223 002e FFF7FEFF 		bl	f_setlabel
ARM GAS  C:\Users\shadi\AppData\Local\Temp\ccjiUIWy.s 			page 40


 2224              	.LVL234:
 2225              		.loc 2 192 0
 2226 0032 0646     		mov	r6, r0
 2227 0034 50B9     		cbnz	r0, .L260
 2228              		.loc 2 197 0
 2229 0036 019A     		ldr	r2, [sp, #4]
 2230 0038 2368     		ldr	r3, [r4]
 2231 003a 9A42     		cmp	r2, r3
 2232 003c 15D1     		bne	.L259
 2233 003e 0F49     		ldr	r1, .L261+12
 2234 0040 2846     		mov	r0, r5
 2235              	.LVL235:
 2236              	.LBE166:
 2237              	.LBE165:
 2238              		.loc 2 200 0
 2239 0042 02B0     		add	sp, sp, #8
 2240              		.cfi_remember_state
 2241              		.cfi_def_cfa_offset 16
 2242              		@ sp needed
 2243 0044 BDE87040 		pop	{r4, r5, r6, lr}
 2244              		.cfi_restore 14
 2245              		.cfi_restore 6
 2246              		.cfi_restore 5
 2247              		.cfi_restore 4
 2248              		.cfi_def_cfa_offset 0
 2249              	.LVL236:
 2250              	.LBB169:
 2251              	.LBB167:
 2252              		.loc 2 197 0
 2253 0048 FFF7FEBF 		b	chprintf
 2254              	.LVL237:
 2255              	.L260:
 2256              		.cfi_restore_state
 2257              		.loc 2 193 0
 2258 004c 0C49     		ldr	r1, .L261+16
 2259 004e 2846     		mov	r0, r5
 2260              	.LVL238:
 2261 0050 FFF7FEFF 		bl	chprintf
 2262              	.LVL239:
 2263              		.loc 2 194 0
 2264 0054 019A     		ldr	r2, [sp, #4]
 2265 0056 2368     		ldr	r3, [r4]
 2266 0058 9A42     		cmp	r2, r3
 2267 005a 06D1     		bne	.L259
 2268 005c 3146     		mov	r1, r6
 2269 005e 2846     		mov	r0, r5
 2270              	.LBE167:
 2271              	.LBE169:
 2272              		.loc 2 200 0
 2273 0060 02B0     		add	sp, sp, #8
 2274              		.cfi_remember_state
 2275              		.cfi_def_cfa_offset 16
 2276              		@ sp needed
 2277 0062 BDE87040 		pop	{r4, r5, r6, lr}
 2278              		.cfi_restore 14
 2279              		.cfi_restore 6
 2280              		.cfi_restore 5
ARM GAS  C:\Users\shadi\AppData\Local\Temp\ccjiUIWy.s 			page 41


 2281              		.cfi_restore 4
 2282              		.cfi_def_cfa_offset 0
 2283              	.LVL240:
 2284              	.LBB170:
 2285              	.LBB168:
 2286              		.loc 2 194 0
 2287 0066 FFF7FEBF 		b	fverbose_error
 2288              	.LVL241:
 2289              	.L259:
 2290              		.cfi_restore_state
 2291              		.loc 2 197 0
 2292 006a FFF7FEFF 		bl	__stack_chk_fail
 2293              	.LVL242:
 2294              	.L262:
 2295 006e 00BF     		.align	2
 2296              	.L261:
 2297 0070 00000000 		.word	__stack_chk_guard
 2298 0074 00000000 		.word	.LC42
 2299 0078 18000000 		.word	.LC43
 2300 007c 5C000000 		.word	.LC45
 2301 0080 3C000000 		.word	.LC44
 2302              	.LBE168:
 2303              	.LBE170:
 2304              		.cfi_endproc
 2305              	.LFE267:
 2306              		.size	cmd_setlabel, .-cmd_setlabel
 2307              		.section	.text.cmd_getlabel,"ax",%progbits
 2308              		.align	1
 2309              		.p2align 4,,15
 2310              		.global	cmd_getlabel
 2311              		.syntax unified
 2312              		.thumb
 2313              		.thumb_func
 2314              		.fpu fpv4-sp-d16
 2315              		.type	cmd_getlabel, %function
 2316              	cmd_getlabel:
 2317              	.LFB268:
 2318              		.loc 2 202 0
 2319              		.cfi_startproc
 2320              		@ args = 0, pretend = 0, frame = 24
 2321              		@ frame_needed = 0, uses_anonymous_args = 0
 2322              	.LVL243:
 2323 0000 70B5     		push	{r4, r5, r6, lr}
 2324              		.cfi_def_cfa_offset 16
 2325              		.cfi_offset 4, -16
 2326              		.cfi_offset 5, -12
 2327              		.cfi_offset 6, -8
 2328              		.cfi_offset 14, -4
 2329 0002 1A4C     		ldr	r4, .L272
 2330 0004 86B0     		sub	sp, sp, #24
 2331              		.cfi_def_cfa_offset 40
 2332              		.loc 2 202 0
 2333 0006 2368     		ldr	r3, [r4]
 2334 0008 0593     		str	r3, [sp, #20]
 2335              		.loc 2 207 0
 2336 000a 0029     		cmp	r1, #0
 2337              		.loc 2 202 0
ARM GAS  C:\Users\shadi\AppData\Local\Temp\ccjiUIWy.s 			page 42


 2338 000c 0546     		mov	r5, r0
 2339              		.loc 2 207 0
 2340 000e 0CDD     		ble	.L264
 2341              		.loc 2 208 0
 2342 0010 1749     		ldr	r1, .L272+4
 2343              	.LVL244:
 2344 0012 FFF7FEFF 		bl	chprintf
 2345              	.LVL245:
 2346              		.loc 2 209 0
 2347 0016 2846     		mov	r0, r5
 2348 0018 1649     		ldr	r1, .L272+8
 2349 001a FFF7FEFF 		bl	chprintf
 2350              	.LVL246:
 2351              	.L263:
 2352              		.loc 2 228 0
 2353 001e 059A     		ldr	r2, [sp, #20]
 2354 0020 2368     		ldr	r3, [r4]
 2355 0022 9A42     		cmp	r2, r3
 2356 0024 20D1     		bne	.L270
 2357 0026 06B0     		add	sp, sp, #24
 2358              		.cfi_remember_state
 2359              		.cfi_def_cfa_offset 16
 2360              		@ sp needed
 2361 0028 70BD     		pop	{r4, r5, r6, pc}
 2362              	.LVL247:
 2363              	.L264:
 2364              		.cfi_restore_state
 2365              	.LBB173:
 2366              	.LBB174:
 2367              		.loc 2 212 0
 2368 002a 0023     		movs	r3, #0
 2369              		.loc 2 216 0
 2370 002c 02A9     		add	r1, sp, #8
 2371              	.LVL248:
 2372 002e 01AA     		add	r2, sp, #4
 2373              	.LVL249:
 2374 0030 1148     		ldr	r0, .L272+12
 2375              	.LVL250:
 2376              		.loc 2 212 0
 2377 0032 0493     		str	r3, [sp, #16]
 2378 0034 CDE90233 		strd	r3, r3, [sp, #8]
 2379              		.loc 2 216 0
 2380 0038 FFF7FEFF 		bl	f_getlabel
 2381              	.LVL251:
 2382              		.loc 2 217 0
 2383 003c 0646     		mov	r6, r0
 2384 003e 50B9     		cbnz	r0, .L271
 2385              		.loc 2 225 0
 2386 0040 02AA     		add	r2, sp, #8
 2387 0042 0E49     		ldr	r1, .L272+16
 2388 0044 2846     		mov	r0, r5
 2389              	.LVL252:
 2390 0046 FFF7FEFF 		bl	chprintf
 2391              	.LVL253:
 2392              		.loc 2 226 0
 2393 004a 2846     		mov	r0, r5
 2394 004c 019A     		ldr	r2, [sp, #4]
ARM GAS  C:\Users\shadi\AppData\Local\Temp\ccjiUIWy.s 			page 43


 2395 004e 0C49     		ldr	r1, .L272+20
 2396 0050 FFF7FEFF 		bl	chprintf
 2397              	.LVL254:
 2398 0054 E3E7     		b	.L263
 2399              	.LVL255:
 2400              	.L271:
 2401              		.loc 2 218 0
 2402 0056 0B49     		ldr	r1, .L272+24
 2403 0058 2846     		mov	r0, r5
 2404              	.LVL256:
 2405 005a FFF7FEFF 		bl	chprintf
 2406              	.LVL257:
 2407              		.loc 2 219 0
 2408 005e 3146     		mov	r1, r6
 2409 0060 2846     		mov	r0, r5
 2410 0062 FFF7FEFF 		bl	fverbose_error
 2411              	.LVL258:
 2412 0066 DAE7     		b	.L263
 2413              	.LVL259:
 2414              	.L270:
 2415              	.LBE174:
 2416              	.LBE173:
 2417              		.loc 2 228 0
 2418 0068 FFF7FEFF 		bl	__stack_chk_fail
 2419              	.LVL260:
 2420              	.L273:
 2421              		.align	2
 2422              	.L272:
 2423 006c 00000000 		.word	__stack_chk_guard
 2424 0070 00000000 		.word	.LC46
 2425 0074 14000000 		.word	.LC47
 2426 0078 38000000 		.word	.LC48
 2427 007c 58000000 		.word	.LC50
 2428 0080 64000000 		.word	.LC51
 2429 0084 3C000000 		.word	.LC49
 2430              		.cfi_endproc
 2431              	.LFE268:
 2432              		.size	cmd_getlabel, .-cmd_getlabel
 2433              		.section	.text.cmd_cat.part.3,"ax",%progbits
 2434              		.align	1
 2435              		.p2align 4,,15
 2436              		.syntax unified
 2437              		.thumb
 2438              		.thumb_func
 2439              		.fpu fpv4-sp-d16
 2440              		.type	cmd_cat.part.3, %function
 2441              	cmd_cat.part.3:
 2442              	.LFB314:
 2443              		.loc 2 233 0
 2444              		.cfi_startproc
 2445              		@ args = 0, pretend = 0, frame = 816
 2446              		@ frame_needed = 0, uses_anonymous_args = 0
 2447              	.LVL261:
 2448 0000 F0B5     		push	{r4, r5, r6, r7, lr}
 2449              		.cfi_def_cfa_offset 20
 2450              		.cfi_offset 4, -20
 2451              		.cfi_offset 5, -16
ARM GAS  C:\Users\shadi\AppData\Local\Temp\ccjiUIWy.s 			page 44


 2452              		.cfi_offset 6, -12
 2453              		.cfi_offset 7, -8
 2454              		.cfi_offset 14, -4
 2455 0002 264F     		ldr	r7, .L285
 2456 0004 ADF54D7D 		sub	sp, sp, #820
 2457              		.cfi_def_cfa_offset 840
 2458              		.loc 2 233 0
 2459 0008 0E46     		mov	r6, r1
 2460 000a 3B68     		ldr	r3, [r7]
 2461              		.loc 2 250 0
 2462 000c 0968     		ldr	r1, [r1]
 2463              	.LVL262:
 2464              		.loc 2 233 0
 2465 000e CB93     		str	r3, [sp, #812]
 2466              	.LVL263:
 2467 0010 0546     		mov	r5, r0
 2468              		.loc 2 250 0
 2469 0012 0122     		movs	r2, #1
 2470 0014 01A8     		add	r0, sp, #4
 2471              	.LVL264:
 2472 0016 FFF7FEFF 		bl	f_open
 2473              	.LVL265:
 2474              		.loc 2 251 0
 2475 001a 88BB     		cbnz	r0, .L281
 2476              		.loc 2 275 0
 2477 001c 204E     		ldr	r6, .L285+4
 2478              	.LVL266:
 2479 001e 07E0     		b	.L275
 2480              	.L277:
 2481 0020 8BAA     		add	r2, sp, #556
 2482 0022 3146     		mov	r1, r6
 2483 0024 2846     		mov	r0, r5
 2484              	.LVL267:
 2485 0026 FFF7FEFF 		bl	chprintf
 2486              	.LVL268:
 2487              		.loc 2 276 0
 2488 002a 009B     		ldr	r3, [sp]
 2489 002c FE2B     		cmp	r3, #254
 2490 002e 1FD9     		bls	.L283
 2491              	.L275:
 2492              		.loc 2 264 0
 2493 0030 FF22     		movs	r2, #255
 2494 0032 0021     		movs	r1, #0
 2495 0034 8BA8     		add	r0, sp, #556
 2496 0036 FFF7FEFF 		bl	memset
 2497              	.LVL269:
 2498              		.loc 2 268 0
 2499 003a 6B46     		mov	r3, sp
 2500 003c FF22     		movs	r2, #255
 2501 003e 8BA9     		add	r1, sp, #556
 2502 0040 01A8     		add	r0, sp, #4
 2503 0042 FFF7FEFF 		bl	f_read
 2504              	.LVL270:
 2505              		.loc 2 269 0
 2506 0046 0446     		mov	r4, r0
 2507 0048 0028     		cmp	r0, #0
 2508 004a E9D0     		beq	.L277
ARM GAS  C:\Users\shadi\AppData\Local\Temp\ccjiUIWy.s 			page 45


 2509              		.loc 2 270 0
 2510 004c 1549     		ldr	r1, .L285+8
 2511 004e 2846     		mov	r0, r5
 2512              	.LVL271:
 2513 0050 FFF7FEFF 		bl	chprintf
 2514              	.LVL272:
 2515              		.loc 2 271 0
 2516 0054 2846     		mov	r0, r5
 2517 0056 2146     		mov	r1, r4
 2518 0058 FFF7FEFF 		bl	fverbose_error
 2519              	.LVL273:
 2520              		.loc 2 272 0
 2521 005c 01A8     		add	r0, sp, #4
 2522 005e FFF7FEFF 		bl	f_close
 2523              	.LVL274:
 2524              	.L274:
 2525              		.loc 2 283 0
 2526 0062 CB9A     		ldr	r2, [sp, #812]
 2527 0064 3B68     		ldr	r3, [r7]
 2528 0066 9A42     		cmp	r2, r3
 2529 0068 15D1     		bne	.L284
 2530 006a 0DF54D7D 		add	sp, sp, #820
 2531              		.cfi_remember_state
 2532              		.cfi_def_cfa_offset 20
 2533              		@ sp needed
 2534 006e F0BD     		pop	{r4, r5, r6, r7, pc}
 2535              	.LVL275:
 2536              	.L283:
 2537              		.cfi_restore_state
 2538              		.loc 2 277 0
 2539 0070 2846     		mov	r0, r5
 2540 0072 0D49     		ldr	r1, .L285+12
 2541 0074 FFF7FEFF 		bl	chprintf
 2542              	.LVL276:
 2543              		.loc 2 281 0
 2544 0078 01A8     		add	r0, sp, #4
 2545 007a FFF7FEFF 		bl	f_close
 2546              	.LVL277:
 2547 007e F0E7     		b	.L274
 2548              	.LVL278:
 2549              	.L281:
 2550 0080 0446     		mov	r4, r0
 2551              		.loc 2 252 0
 2552 0082 3268     		ldr	r2, [r6]
 2553 0084 0949     		ldr	r1, .L285+16
 2554 0086 2846     		mov	r0, r5
 2555              	.LVL279:
 2556 0088 FFF7FEFF 		bl	chprintf
 2557              	.LVL280:
 2558              		.loc 2 253 0
 2559 008c 2146     		mov	r1, r4
 2560 008e 2846     		mov	r0, r5
 2561 0090 FFF7FEFF 		bl	fverbose_error
 2562              	.LVL281:
 2563 0094 E5E7     		b	.L274
 2564              	.LVL282:
 2565              	.L284:
ARM GAS  C:\Users\shadi\AppData\Local\Temp\ccjiUIWy.s 			page 46


 2566              		.loc 2 283 0
 2567 0096 FFF7FEFF 		bl	__stack_chk_fail
 2568              	.LVL283:
 2569              	.L286:
 2570 009a 00BF     		.align	2
 2571              	.L285:
 2572 009c 00000000 		.word	__stack_chk_guard
 2573 00a0 34000000 		.word	.LC54
 2574 00a4 1C000000 		.word	.LC53
 2575 00a8 38000000 		.word	.LC55
 2576 00ac 00000000 		.word	.LC52
 2577              		.cfi_endproc
 2578              	.LFE314:
 2579              		.size	cmd_cat.part.3, .-cmd_cat.part.3
 2580              		.section	.text.cmd_cat,"ax",%progbits
 2581              		.align	1
 2582              		.p2align 4,,15
 2583              		.global	cmd_cat
 2584              		.syntax unified
 2585              		.thumb
 2586              		.thumb_func
 2587              		.fpu fpv4-sp-d16
 2588              		.type	cmd_cat, %function
 2589              	cmd_cat:
 2590              	.LFB269:
 2591              		.loc 2 233 0
 2592              		.cfi_startproc
 2593              		@ args = 0, pretend = 0, frame = 8
 2594              		@ frame_needed = 0, uses_anonymous_args = 0
 2595              	.LVL284:
 2596 0000 30B5     		push	{r4, r5, lr}
 2597              		.cfi_def_cfa_offset 12
 2598              		.cfi_offset 4, -12
 2599              		.cfi_offset 5, -8
 2600              		.cfi_offset 14, -4
 2601 0002 104C     		ldr	r4, .L294
 2602 0004 83B0     		sub	sp, sp, #12
 2603              		.cfi_def_cfa_offset 24
 2604              		.loc 2 233 0
 2605 0006 2368     		ldr	r3, [r4]
 2606 0008 0193     		str	r3, [sp, #4]
 2607              	.LVL285:
 2608              		.loc 2 242 0
 2609 000a 0129     		cmp	r1, #1
 2610 000c 0ED0     		beq	.L288
 2611              		.loc 2 243 0
 2612 000e 0E49     		ldr	r1, .L294+4
 2613              	.LVL286:
 2614 0010 0546     		mov	r5, r0
 2615 0012 FFF7FEFF 		bl	chprintf
 2616              	.LVL287:
 2617              		.loc 2 244 0
 2618 0016 019A     		ldr	r2, [sp, #4]
 2619 0018 2368     		ldr	r3, [r4]
 2620 001a 9A42     		cmp	r2, r3
 2621 001c 10D1     		bne	.L293
 2622 001e 0B49     		ldr	r1, .L294+8
ARM GAS  C:\Users\shadi\AppData\Local\Temp\ccjiUIWy.s 			page 47


 2623 0020 2846     		mov	r0, r5
 2624              		.loc 2 283 0
 2625 0022 03B0     		add	sp, sp, #12
 2626              		.cfi_remember_state
 2627              		.cfi_def_cfa_offset 12
 2628              		@ sp needed
 2629 0024 BDE83040 		pop	{r4, r5, lr}
 2630              		.cfi_restore 14
 2631              		.cfi_restore 5
 2632              		.cfi_restore 4
 2633              		.cfi_def_cfa_offset 0
 2634              	.LVL288:
 2635              		.loc 2 244 0
 2636 0028 FFF7FEBF 		b	chprintf
 2637              	.LVL289:
 2638              	.L288:
 2639              		.cfi_restore_state
 2640 002c 0199     		ldr	r1, [sp, #4]
 2641              	.LVL290:
 2642 002e 2368     		ldr	r3, [r4]
 2643 0030 9942     		cmp	r1, r3
 2644 0032 05D1     		bne	.L293
 2645 0034 1146     		mov	r1, r2
 2646              		.loc 2 283 0
 2647 0036 03B0     		add	sp, sp, #12
 2648              		.cfi_remember_state
 2649              		.cfi_def_cfa_offset 12
 2650              		@ sp needed
 2651 0038 BDE83040 		pop	{r4, r5, lr}
 2652              		.cfi_restore 14
 2653              		.cfi_restore 5
 2654              		.cfi_restore 4
 2655              		.cfi_def_cfa_offset 0
 2656 003c FFF7FEBF 		b	cmd_cat.part.3
 2657              	.LVL291:
 2658              	.L293:
 2659              		.cfi_restore_state
 2660 0040 FFF7FEFF 		bl	__stack_chk_fail
 2661              	.LVL292:
 2662              	.L295:
 2663              		.align	2
 2664              	.L294:
 2665 0044 00000000 		.word	__stack_chk_guard
 2666 0048 00000000 		.word	.LC56
 2667 004c 18000000 		.word	.LC57
 2668              		.cfi_endproc
 2669              	.LFE269:
 2670              		.size	cmd_cat, .-cmd_cat
 2671              		.section	.text.cmd_cam_set_conf1,"ax",%progbits
 2672              		.align	1
 2673              		.p2align 4,,15
 2674              		.syntax unified
 2675              		.thumb
 2676              		.thumb_func
 2677              		.fpu fpv4-sp-d16
 2678              		.type	cmd_cam_set_conf1, %function
 2679              	cmd_cam_set_conf1:
ARM GAS  C:\Users\shadi\AppData\Local\Temp\ccjiUIWy.s 			page 48


 2680              	.LFB290:
 2681              		.loc 2 698 0
 2682              		.cfi_startproc
 2683              		@ args = 0, pretend = 0, frame = 8
 2684              		@ frame_needed = 0, uses_anonymous_args = 0
 2685              	.LVL293:
 2686 0000 2DE9F041 		push	{r4, r5, r6, r7, r8, lr}
 2687              		.cfi_def_cfa_offset 24
 2688              		.cfi_offset 4, -24
 2689              		.cfi_offset 5, -20
 2690              		.cfi_offset 6, -16
 2691              		.cfi_offset 7, -12
 2692              		.cfi_offset 8, -8
 2693              		.cfi_offset 14, -4
 2694 0004 2F4C     		ldr	r4, .L316
 2695 0006 82B0     		sub	sp, sp, #8
 2696              		.cfi_def_cfa_offset 32
 2697              		.loc 2 698 0
 2698 0008 2368     		ldr	r3, [r4]
 2699 000a 0193     		str	r3, [sp, #4]
 2700              		.loc 2 702 0
 2701 000c 0329     		cmp	r1, #3
 2702 000e 09D0     		beq	.L297
 2703              		.loc 2 703 0
 2704 0010 019A     		ldr	r2, [sp, #4]
 2705              	.LVL294:
 2706 0012 2368     		ldr	r3, [r4]
 2707 0014 9A42     		cmp	r2, r3
 2708 0016 53D1     		bne	.L312
 2709 0018 2B49     		ldr	r1, .L316+4
 2710              	.LVL295:
 2711              	.L311:
 2712              		.loc 2 739 0
 2713 001a 02B0     		add	sp, sp, #8
 2714              		.cfi_remember_state
 2715              		.cfi_def_cfa_offset 24
 2716              		@ sp needed
 2717 001c BDE8F041 		pop	{r4, r5, r6, r7, r8, lr}
 2718              		.cfi_restore 14
 2719              		.cfi_restore 8
 2720              		.cfi_restore 7
 2721              		.cfi_restore 6
 2722              		.cfi_restore 5
 2723              		.cfi_restore 4
 2724              		.cfi_def_cfa_offset 0
 2725              	.LBB177:
 2726              	.LBB178:
 2727              		.loc 2 736 0
 2728 0020 FFF7FEBF 		b	chprintf
 2729              	.LVL296:
 2730              	.L297:
 2731              		.cfi_restore_state
 2732 0024 0546     		mov	r5, r0
 2733              	.LVL297:
 2734              		.loc 2 706 0
 2735 0026 1068     		ldr	r0, [r2]
 2736              	.LVL298:
ARM GAS  C:\Users\shadi\AppData\Local\Temp\ccjiUIWy.s 			page 49


 2737 0028 1646     		mov	r6, r2
 2738 002a FFF7FEFF 		bl	atoi
 2739              	.LVL299:
 2740 002e 8046     		mov	r8, r0
 2741              	.LVL300:
 2742              		.loc 2 707 0
 2743 0030 7068     		ldr	r0, [r6, #4]
 2744 0032 FFF7FEFF 		bl	atoi
 2745              	.LVL301:
 2746 0036 C7B2     		uxtb	r7, r0
 2747              	.LVL302:
 2748              		.loc 2 708 0
 2749 0038 B068     		ldr	r0, [r6, #8]
 2750 003a FFF7FEFF 		bl	atoi
 2751              	.LVL303:
 2752              		.loc 2 710 0
 2753 003e 18F0FF0F 		tst	r8, #255
 2754              		.loc 2 711 0
 2755 0042 224B     		ldr	r3, .L316+8
 2756              		.loc 2 712 0
 2757 0044 0BBF     		itete	eq
 2758 0046 2249     		ldreq	r1, .L316+12
 2759              		.loc 2 715 0
 2760 0048 2249     		ldrne	r1, .L316+16
 2761              		.loc 2 711 0
 2762 004a 0222     		moveq	r2, #2
 2763              		.loc 2 714 0
 2764 004c 4422     		movne	r2, #68
 2765              		.loc 2 708 0
 2766 004e C6B2     		uxtb	r6, r0
 2767              	.LVL304:
 2768              		.loc 2 715 0
 2769 0050 2846     		mov	r0, r5
 2770              		.loc 2 714 0
 2771 0052 1A70     		strb	r2, [r3]
 2772              		.loc 2 715 0
 2773 0054 FFF7FEFF 		bl	chprintf
 2774              	.LVL305:
 2775              		.loc 2 718 0
 2776 0058 012F     		cmp	r7, #1
 2777              		.loc 2 719 0
 2778 005a 1F4B     		ldr	r3, .L316+20
 2779              		.loc 2 718 0
 2780 005c 22D0     		beq	.L313
 2781              		.loc 2 721 0
 2782 005e 022F     		cmp	r7, #2
 2783              		.loc 2 722 0
 2784 0060 0BBF     		itete	eq
 2785 0062 4022     		moveq	r2, #64
 2786              		.loc 2 725 0
 2787 0064 8022     		movne	r2, #128
 2788              		.loc 2 723 0
 2789 0066 1D49     		ldreq	r1, .L316+24
 2790              		.loc 2 726 0
 2791 0068 1D49     		ldrne	r1, .L316+28
 2792              		.loc 2 725 0
 2793 006a 1A70     		strb	r2, [r3]
ARM GAS  C:\Users\shadi\AppData\Local\Temp\ccjiUIWy.s 			page 50


 2794              		.loc 2 726 0
 2795 006c 2846     		mov	r0, r5
 2796 006e FFF7FEFF 		bl	chprintf
 2797              	.LVL306:
 2798              	.L302:
 2799              		.loc 2 728 0
 2800 0072 012E     		cmp	r6, #1
 2801              		.loc 2 730 0
 2802 0074 019A     		ldr	r2, [sp, #4]
 2803              		.loc 2 729 0
 2804 0076 1B49     		ldr	r1, .L316+32
 2805              		.loc 2 730 0
 2806 0078 2368     		ldr	r3, [r4]
 2807              		.loc 2 728 0
 2808 007a 1AD0     		beq	.L314
 2809              		.loc 2 731 0
 2810 007c 022E     		cmp	r6, #2
 2811 007e 0AD0     		beq	.L315
 2812              		.loc 2 735 0
 2813 0080 8020     		movs	r0, #128
 2814              		.loc 2 736 0
 2815 0082 9A42     		cmp	r2, r3
 2816              		.loc 2 735 0
 2817 0084 0870     		strb	r0, [r1]
 2818              		.loc 2 736 0
 2819 0086 1BD1     		bne	.L312
 2820 0088 1749     		ldr	r1, .L316+36
 2821 008a 2846     		mov	r0, r5
 2822              	.LBE178:
 2823              	.LBE177:
 2824              		.loc 2 739 0
 2825 008c 02B0     		add	sp, sp, #8
 2826              		.cfi_remember_state
 2827              		.cfi_def_cfa_offset 24
 2828              		@ sp needed
 2829 008e BDE8F041 		pop	{r4, r5, r6, r7, r8, lr}
 2830              		.cfi_restore 14
 2831              		.cfi_restore 8
 2832              		.cfi_restore 7
 2833              		.cfi_restore 6
 2834              		.cfi_restore 5
 2835              		.cfi_restore 4
 2836              		.cfi_def_cfa_offset 0
 2837              	.LVL307:
 2838              	.LBB180:
 2839              	.LBB179:
 2840              		.loc 2 736 0
 2841 0092 FFF7FEBF 		b	chprintf
 2842              	.LVL308:
 2843              	.L315:
 2844              		.cfi_restore_state
 2845              		.loc 2 732 0
 2846 0096 4020     		movs	r0, #64
 2847              		.loc 2 733 0
 2848 0098 9A42     		cmp	r2, r3
 2849              		.loc 2 732 0
 2850 009a 0870     		strb	r0, [r1]
ARM GAS  C:\Users\shadi\AppData\Local\Temp\ccjiUIWy.s 			page 51


 2851              		.loc 2 733 0
 2852 009c 10D1     		bne	.L312
 2853 009e 2846     		mov	r0, r5
 2854 00a0 1249     		ldr	r1, .L316+40
 2855 00a2 BAE7     		b	.L311
 2856              	.L313:
 2857              		.loc 2 719 0
 2858 00a4 2022     		movs	r2, #32
 2859              		.loc 2 720 0
 2860 00a6 1249     		ldr	r1, .L316+44
 2861              		.loc 2 719 0
 2862 00a8 1A70     		strb	r2, [r3]
 2863              		.loc 2 720 0
 2864 00aa 2846     		mov	r0, r5
 2865 00ac FFF7FEFF 		bl	chprintf
 2866              	.LVL309:
 2867 00b0 DFE7     		b	.L302
 2868              	.L314:
 2869              		.loc 2 729 0
 2870 00b2 2020     		movs	r0, #32
 2871              		.loc 2 730 0
 2872 00b4 9A42     		cmp	r2, r3
 2873              		.loc 2 729 0
 2874 00b6 0870     		strb	r0, [r1]
 2875              		.loc 2 730 0
 2876 00b8 02D1     		bne	.L312
 2877 00ba 2846     		mov	r0, r5
 2878 00bc 0D49     		ldr	r1, .L316+48
 2879 00be ACE7     		b	.L311
 2880              	.LVL310:
 2881              	.L312:
 2882              		.loc 2 736 0
 2883 00c0 FFF7FEFF 		bl	__stack_chk_fail
 2884              	.LVL311:
 2885              	.L317:
 2886              		.align	2
 2887              	.L316:
 2888 00c4 00000000 		.word	__stack_chk_guard
 2889 00c8 00000000 		.word	.LC58
 2890 00cc 00000000 		.word	.LANCHOR2
 2891 00d0 68000000 		.word	.LC59
 2892 00d4 84000000 		.word	.LC60
 2893 00d8 00000000 		.word	.LANCHOR3
 2894 00dc C4000000 		.word	.LC62
 2895 00e0 E4000000 		.word	.LC63
 2896 00e4 00000000 		.word	.LANCHOR4
 2897 00e8 44010000 		.word	.LC66
 2898 00ec 24010000 		.word	.LC65
 2899 00f0 A4000000 		.word	.LC61
 2900 00f4 04010000 		.word	.LC64
 2901              	.LBE179:
 2902              	.LBE180:
 2903              		.cfi_endproc
 2904              	.LFE290:
 2905              		.size	cmd_cam_set_conf1, .-cmd_cam_set_conf1
 2906              		.section	.text.cmd_volume,"ax",%progbits
 2907              		.align	1
ARM GAS  C:\Users\shadi\AppData\Local\Temp\ccjiUIWy.s 			page 52


 2908              		.p2align 4,,15
 2909              		.syntax unified
 2910              		.thumb
 2911              		.thumb_func
 2912              		.fpu fpv4-sp-d16
 2913              		.type	cmd_volume, %function
 2914              	cmd_volume:
 2915              	.LFB306:
 2916              		.loc 2 1005 0
 2917              		.cfi_startproc
 2918              		@ args = 0, pretend = 0, frame = 8
 2919              		@ frame_needed = 0, uses_anonymous_args = 0
 2920              	.LVL312:
 2921 0000 30B5     		push	{r4, r5, lr}
 2922              		.cfi_def_cfa_offset 12
 2923              		.cfi_offset 4, -12
 2924              		.cfi_offset 5, -8
 2925              		.cfi_offset 14, -4
 2926 0002 124C     		ldr	r4, .L325
 2927 0004 83B0     		sub	sp, sp, #12
 2928              		.cfi_def_cfa_offset 24
 2929              		.loc 2 1005 0
 2930 0006 2368     		ldr	r3, [r4]
 2931 0008 0193     		str	r3, [sp, #4]
 2932              		.loc 2 1007 0
 2933 000a 0129     		cmp	r1, #1
 2934 000c 09D0     		beq	.L319
 2935              		.loc 2 1008 0
 2936 000e 019A     		ldr	r2, [sp, #4]
 2937              	.LVL313:
 2938 0010 2368     		ldr	r3, [r4]
 2939 0012 9A42     		cmp	r2, r3
 2940 0014 18D1     		bne	.L324
 2941 0016 0E49     		ldr	r1, .L325+4
 2942              	.LVL314:
 2943              		.loc 2 1013 0
 2944 0018 03B0     		add	sp, sp, #12
 2945              		.cfi_remember_state
 2946              		.cfi_def_cfa_offset 12
 2947              		@ sp needed
 2948 001a BDE83040 		pop	{r4, r5, lr}
 2949              		.cfi_restore 14
 2950              		.cfi_restore 5
 2951              		.cfi_restore 4
 2952              		.cfi_def_cfa_offset 0
 2953              		.loc 2 1008 0
 2954 001e FFF7FEBF 		b	chprintf
 2955              	.LVL315:
 2956              	.L319:
 2957              		.cfi_restore_state
 2958 0022 0546     		mov	r5, r0
 2959              	.LVL316:
 2960              	.LBB183:
 2961              	.LBB184:
 2962              		.loc 2 1010 0
 2963 0024 1068     		ldr	r0, [r2]
 2964              	.LVL317:
ARM GAS  C:\Users\shadi\AppData\Local\Temp\ccjiUIWy.s 			page 53


 2965 0026 FFF7FEFF 		bl	atoi
 2966              	.LVL318:
 2967              		.loc 2 1011 0
 2968 002a C0B2     		uxtb	r0, r0
 2969 002c FFF7FEFF 		bl	mic_get_volume
 2970              	.LVL319:
 2971 0030 0199     		ldr	r1, [sp, #4]
 2972 0032 2368     		ldr	r3, [r4]
 2973 0034 9942     		cmp	r1, r3
 2974 0036 0246     		mov	r2, r0
 2975 0038 06D1     		bne	.L324
 2976 003a 0649     		ldr	r1, .L325+8
 2977 003c 2846     		mov	r0, r5
 2978              	.LBE184:
 2979              	.LBE183:
 2980              		.loc 2 1013 0
 2981 003e 03B0     		add	sp, sp, #12
 2982              		.cfi_remember_state
 2983              		.cfi_def_cfa_offset 12
 2984              		@ sp needed
 2985 0040 BDE83040 		pop	{r4, r5, lr}
 2986              		.cfi_restore 14
 2987              		.cfi_restore 5
 2988              		.cfi_restore 4
 2989              		.cfi_def_cfa_offset 0
 2990              	.LVL320:
 2991              	.LBB186:
 2992              	.LBB185:
 2993              		.loc 2 1011 0
 2994 0044 FFF7FEBF 		b	chprintf
 2995              	.LVL321:
 2996              	.L324:
 2997              		.cfi_restore_state
 2998 0048 FFF7FEFF 		bl	__stack_chk_fail
 2999              	.LVL322:
 3000              	.L326:
 3001              		.align	2
 3002              	.L325:
 3003 004c 00000000 		.word	__stack_chk_guard
 3004 0050 00000000 		.word	.LC67
 3005 0054 28000000 		.word	.LC68
 3006              	.LBE185:
 3007              	.LBE186:
 3008              		.cfi_endproc
 3009              	.LFE306:
 3010              		.size	cmd_volume, .-cmd_volume
 3011              		.section	.text.cmd_audio_play,"ax",%progbits
 3012              		.align	1
 3013              		.p2align 4,,15
 3014              		.syntax unified
 3015              		.thumb
 3016              		.thumb_func
 3017              		.fpu fpv4-sp-d16
 3018              		.type	cmd_audio_play, %function
 3019              	cmd_audio_play:
 3020              	.LFB304:
 3021              		.loc 2 985 0
ARM GAS  C:\Users\shadi\AppData\Local\Temp\ccjiUIWy.s 			page 54


 3022              		.cfi_startproc
 3023              		@ args = 0, pretend = 0, frame = 8
 3024              		@ frame_needed = 0, uses_anonymous_args = 0
 3025              	.LVL323:
 3026 0000 10B5     		push	{r4, lr}
 3027              		.cfi_def_cfa_offset 8
 3028              		.cfi_offset 4, -8
 3029              		.cfi_offset 14, -4
 3030 0002 0F4C     		ldr	r4, .L334
 3031 0004 82B0     		sub	sp, sp, #8
 3032              		.cfi_def_cfa_offset 16
 3033              		.loc 2 985 0
 3034 0006 2368     		ldr	r3, [r4]
 3035 0008 0193     		str	r3, [sp, #4]
 3036              		.loc 2 987 0
 3037 000a 0129     		cmp	r1, #1
 3038 000c 09D0     		beq	.L328
 3039              		.loc 2 988 0
 3040 000e 019A     		ldr	r2, [sp, #4]
 3041              	.LVL324:
 3042 0010 2368     		ldr	r3, [r4]
 3043 0012 9A42     		cmp	r2, r3
 3044 0014 12D1     		bne	.L333
 3045 0016 0B49     		ldr	r1, .L334+4
 3046              	.LVL325:
 3047              		.loc 2 994 0
 3048 0018 02B0     		add	sp, sp, #8
 3049              		.cfi_remember_state
 3050              		.cfi_def_cfa_offset 8
 3051              		@ sp needed
 3052 001a BDE81040 		pop	{r4, lr}
 3053              		.cfi_restore 14
 3054              		.cfi_restore 4
 3055              		.cfi_def_cfa_offset 0
 3056              		.loc 2 988 0
 3057 001e FFF7FEBF 		b	chprintf
 3058              	.LVL326:
 3059              	.L328:
 3060              		.cfi_restore_state
 3061              	.LBB189:
 3062              	.LBB190:
 3063              		.loc 2 991 0
 3064 0022 1068     		ldr	r0, [r2]
 3065              	.LVL327:
 3066 0024 FFF7FEFF 		bl	atoi
 3067              	.LVL328:
 3068              		.loc 2 992 0
 3069 0028 019A     		ldr	r2, [sp, #4]
 3070 002a 2368     		ldr	r3, [r4]
 3071 002c 9A42     		cmp	r2, r3
 3072 002e 05D1     		bne	.L333
 3073 0030 80B2     		uxth	r0, r0
 3074              	.LBE190:
 3075              	.LBE189:
 3076              		.loc 2 994 0
 3077 0032 02B0     		add	sp, sp, #8
 3078              		.cfi_remember_state
ARM GAS  C:\Users\shadi\AppData\Local\Temp\ccjiUIWy.s 			page 55


 3079              		.cfi_def_cfa_offset 8
 3080              		@ sp needed
 3081 0034 BDE81040 		pop	{r4, lr}
 3082              		.cfi_restore 14
 3083              		.cfi_restore 4
 3084              		.cfi_def_cfa_offset 0
 3085              	.LBB192:
 3086              	.LBB191:
 3087              		.loc 2 992 0
 3088 0038 FFF7FEBF 		b	dac_play
 3089              	.LVL329:
 3090              	.L333:
 3091              		.cfi_restore_state
 3092 003c FFF7FEFF 		bl	__stack_chk_fail
 3093              	.LVL330:
 3094              	.L335:
 3095              		.align	2
 3096              	.L334:
 3097 0040 00000000 		.word	__stack_chk_guard
 3098 0044 00000000 		.word	.LC69
 3099              	.LBE191:
 3100              	.LBE192:
 3101              		.cfi_endproc
 3102              	.LFE304:
 3103              		.size	cmd_audio_play, .-cmd_audio_play
 3104              		.section	.text.cmd_set_speed,"ax",%progbits
 3105              		.align	1
 3106              		.p2align 4,,15
 3107              		.syntax unified
 3108              		.thumb
 3109              		.thumb_func
 3110              		.fpu fpv4-sp-d16
 3111              		.type	cmd_set_speed, %function
 3112              	cmd_set_speed:
 3113              	.LFB302:
 3114              		.loc 2 961 0
 3115              		.cfi_startproc
 3116              		@ args = 0, pretend = 0, frame = 8
 3117              		@ frame_needed = 0, uses_anonymous_args = 0
 3118              	.LVL331:
 3119 0000 F0B5     		push	{r4, r5, r6, r7, lr}
 3120              		.cfi_def_cfa_offset 20
 3121              		.cfi_offset 4, -20
 3122              		.cfi_offset 5, -16
 3123              		.cfi_offset 6, -12
 3124              		.cfi_offset 7, -8
 3125              		.cfi_offset 14, -4
 3126 0002 194C     		ldr	r4, .L343
 3127 0004 83B0     		sub	sp, sp, #12
 3128              		.cfi_def_cfa_offset 32
 3129              		.loc 2 961 0
 3130 0006 2368     		ldr	r3, [r4]
 3131 0008 0193     		str	r3, [sp, #4]
 3132              	.LVL332:
 3133              		.loc 2 965 0
 3134 000a 0229     		cmp	r1, #2
 3135 000c 0CD0     		beq	.L337
ARM GAS  C:\Users\shadi\AppData\Local\Temp\ccjiUIWy.s 			page 56


 3136              		.loc 2 966 0
 3137 000e 019A     		ldr	r2, [sp, #4]
 3138              	.LVL333:
 3139 0010 2368     		ldr	r3, [r4]
 3140 0012 9A42     		cmp	r2, r3
 3141 0014 26D1     		bne	.L342
 3142 0016 154A     		ldr	r2, .L343+4
 3143 0018 1549     		ldr	r1, .L343+8
 3144              	.LVL334:
 3145 001a 40F24C43 		movw	r3, #1100
 3146              		.loc 2 974 0
 3147 001e 03B0     		add	sp, sp, #12
 3148              		.cfi_remember_state
 3149              		.cfi_def_cfa_offset 20
 3150              		@ sp needed
 3151 0020 BDE8F040 		pop	{r4, r5, r6, r7, lr}
 3152              		.cfi_restore 14
 3153              		.cfi_restore 7
 3154              		.cfi_restore 6
 3155              		.cfi_restore 5
 3156              		.cfi_restore 4
 3157              		.cfi_def_cfa_offset 0
 3158              		.loc 2 966 0
 3159 0024 FFF7FEBF 		b	chprintf
 3160              	.LVL335:
 3161              	.L337:
 3162              		.cfi_restore_state
 3163 0028 0746     		mov	r7, r0
 3164              	.LVL336:
 3165              	.LBB195:
 3166              	.LBB196:
 3167              		.loc 2 968 0
 3168 002a 1068     		ldr	r0, [r2]
 3169              	.LVL337:
 3170 002c 1646     		mov	r6, r2
 3171 002e FFF7FEFF 		bl	atoi
 3172              	.LVL338:
 3173 0032 0546     		mov	r5, r0
 3174              	.LVL339:
 3175              		.loc 2 969 0
 3176 0034 7068     		ldr	r0, [r6, #4]
 3177 0036 FFF7FEFF 		bl	atoi
 3178              	.LVL340:
 3179              		.loc 2 970 0
 3180 003a 2DB2     		sxth	r5, r5
 3181 003c 06B2     		sxth	r6, r0
 3182              	.LVL341:
 3183 003e 3346     		mov	r3, r6
 3184 0040 2A46     		mov	r2, r5
 3185 0042 0C49     		ldr	r1, .L343+12
 3186 0044 3846     		mov	r0, r7
 3187              	.LVL342:
 3188 0046 FFF7FEFF 		bl	chprintf
 3189              	.LVL343:
 3190              		.loc 2 971 0
 3191 004a 3046     		mov	r0, r6
 3192 004c FFF7FEFF 		bl	right_motor_set_speed
ARM GAS  C:\Users\shadi\AppData\Local\Temp\ccjiUIWy.s 			page 57


 3193              	.LVL344:
 3194              		.loc 2 972 0
 3195 0050 019A     		ldr	r2, [sp, #4]
 3196 0052 2368     		ldr	r3, [r4]
 3197 0054 9A42     		cmp	r2, r3
 3198 0056 05D1     		bne	.L342
 3199 0058 2846     		mov	r0, r5
 3200              	.LBE196:
 3201              	.LBE195:
 3202              		.loc 2 974 0
 3203 005a 03B0     		add	sp, sp, #12
 3204              		.cfi_remember_state
 3205              		.cfi_def_cfa_offset 20
 3206              		@ sp needed
 3207 005c BDE8F040 		pop	{r4, r5, r6, r7, lr}
 3208              		.cfi_restore 14
 3209              		.cfi_restore 7
 3210              		.cfi_restore 6
 3211              		.cfi_restore 5
 3212              		.cfi_restore 4
 3213              		.cfi_def_cfa_offset 0
 3214              	.LVL345:
 3215              	.LBB198:
 3216              	.LBB197:
 3217              		.loc 2 972 0
 3218 0060 FFF7FEBF 		b	left_motor_set_speed
 3219              	.LVL346:
 3220              	.L342:
 3221              		.cfi_restore_state
 3222 0064 FFF7FEFF 		bl	__stack_chk_fail
 3223              	.LVL347:
 3224              	.L344:
 3225              		.align	2
 3226              	.L343:
 3227 0068 00000000 		.word	__stack_chk_guard
 3228 006c B4FBFFFF 		.word	-1100
 3229 0070 00000000 		.word	.LC70
 3230 0074 30000000 		.word	.LC71
 3231              	.LBE197:
 3232              	.LBE198:
 3233              		.cfi_endproc
 3234              	.LFE302:
 3235              		.size	cmd_set_speed, .-cmd_set_speed
 3236              		.section	.text.cmd_set_led,"ax",%progbits
 3237              		.align	1
 3238              		.p2align 4,,15
 3239              		.syntax unified
 3240              		.thumb
 3241              		.thumb_func
 3242              		.fpu fpv4-sp-d16
 3243              		.type	cmd_set_led, %function
 3244              	cmd_set_led:
 3245              	.LFB301:
 3246              		.loc 2 940 0
 3247              		.cfi_startproc
 3248              		@ args = 0, pretend = 0, frame = 8
 3249              		@ frame_needed = 0, uses_anonymous_args = 0
ARM GAS  C:\Users\shadi\AppData\Local\Temp\ccjiUIWy.s 			page 58


 3250              	.LVL348:
 3251 0000 70B5     		push	{r4, r5, r6, lr}
 3252              		.cfi_def_cfa_offset 16
 3253              		.cfi_offset 4, -16
 3254              		.cfi_offset 5, -12
 3255              		.cfi_offset 6, -8
 3256              		.cfi_offset 14, -4
 3257 0002 1F4C     		ldr	r4, .L361
 3258 0004 82B0     		sub	sp, sp, #8
 3259              		.cfi_def_cfa_offset 24
 3260              		.loc 2 940 0
 3261 0006 2368     		ldr	r3, [r4]
 3262 0008 0193     		str	r3, [sp, #4]
 3263              	.LVL349:
 3264              		.loc 2 944 0
 3265 000a 0229     		cmp	r1, #2
 3266 000c 09D0     		beq	.L346
 3267              		.loc 2 945 0
 3268 000e 019A     		ldr	r2, [sp, #4]
 3269              	.LVL350:
 3270 0010 2368     		ldr	r3, [r4]
 3271 0012 9A42     		cmp	r2, r3
 3272 0014 32D1     		bne	.L357
 3273 0016 1B49     		ldr	r1, .L361+4
 3274              	.LVL351:
 3275              		.loc 2 958 0
 3276 0018 02B0     		add	sp, sp, #8
 3277              		.cfi_remember_state
 3278              		.cfi_def_cfa_offset 16
 3279              		@ sp needed
 3280 001a BDE87040 		pop	{r4, r5, r6, lr}
 3281              		.cfi_restore 14
 3282              		.cfi_restore 6
 3283              		.cfi_restore 5
 3284              		.cfi_restore 4
 3285              		.cfi_def_cfa_offset 0
 3286              		.loc 2 945 0
 3287 001e FFF7FEBF 		b	chprintf
 3288              	.LVL352:
 3289              	.L346:
 3290              		.cfi_restore_state
 3291              	.LBB201:
 3292              	.LBB202:
 3293              		.loc 2 947 0
 3294 0022 1068     		ldr	r0, [r2]
 3295              	.LVL353:
 3296 0024 1546     		mov	r5, r2
 3297 0026 FFF7FEFF 		bl	atoi
 3298              	.LVL354:
 3299 002a C6B2     		uxtb	r6, r0
 3300              	.LVL355:
 3301              		.loc 2 948 0
 3302 002c 6868     		ldr	r0, [r5, #4]
 3303 002e FFF7FEFF 		bl	atoi
 3304              	.LVL356:
 3305              		.loc 2 950 0
 3306 0032 032E     		cmp	r6, #3
ARM GAS  C:\Users\shadi\AppData\Local\Temp\ccjiUIWy.s 			page 59


 3307              		.loc 2 951 0
 3308 0034 019A     		ldr	r2, [sp, #4]
 3309 0036 2368     		ldr	r3, [r4]
 3310              		.loc 2 950 0
 3311 0038 0FD9     		bls	.L358
 3312              		.loc 2 952 0
 3313 003a 042E     		cmp	r6, #4
 3314 003c 16D0     		beq	.L359
 3315              		.loc 2 954 0
 3316 003e 052E     		cmp	r6, #5
 3317 0040 03D0     		beq	.L360
 3318              	.LBE202:
 3319              	.LBE201:
 3320              		.loc 2 958 0
 3321 0042 9A42     		cmp	r2, r3
 3322 0044 1AD1     		bne	.L357
 3323 0046 02B0     		add	sp, sp, #8
 3324              		.cfi_remember_state
 3325              		.cfi_def_cfa_offset 16
 3326              		@ sp needed
 3327 0048 70BD     		pop	{r4, r5, r6, pc}
 3328              	.LVL357:
 3329              	.L360:
 3330              		.cfi_restore_state
 3331              	.LBB207:
 3332              	.LBB203:
 3333              		.loc 2 955 0
 3334 004a 9A42     		cmp	r2, r3
 3335 004c 16D1     		bne	.L357
 3336 004e C0B2     		uxtb	r0, r0
 3337              	.LBE203:
 3338              	.LBE207:
 3339              		.loc 2 958 0
 3340 0050 02B0     		add	sp, sp, #8
 3341              		.cfi_remember_state
 3342              		.cfi_def_cfa_offset 16
 3343              		@ sp needed
 3344 0052 BDE87040 		pop	{r4, r5, r6, lr}
 3345              		.cfi_restore 14
 3346              		.cfi_restore 6
 3347              		.cfi_restore 5
 3348              		.cfi_restore 4
 3349              		.cfi_def_cfa_offset 0
 3350              	.LVL358:
 3351              	.LBB208:
 3352              	.LBB204:
 3353              		.loc 2 955 0
 3354 0056 FFF7FEBF 		b	set_front_led
 3355              	.LVL359:
 3356              	.L358:
 3357              		.cfi_restore_state
 3358              		.loc 2 951 0
 3359 005a 9A42     		cmp	r2, r3
 3360 005c 0ED1     		bne	.L357
 3361 005e C1B2     		uxtb	r1, r0
 3362 0060 3046     		mov	r0, r6
 3363              	.LVL360:
ARM GAS  C:\Users\shadi\AppData\Local\Temp\ccjiUIWy.s 			page 60


 3364              	.LBE204:
 3365              	.LBE208:
 3366              		.loc 2 958 0
 3367 0062 02B0     		add	sp, sp, #8
 3368              		.cfi_remember_state
 3369              		.cfi_def_cfa_offset 16
 3370              		@ sp needed
 3371 0064 BDE87040 		pop	{r4, r5, r6, lr}
 3372              		.cfi_restore 14
 3373              		.cfi_restore 6
 3374              		.cfi_restore 5
 3375              		.cfi_restore 4
 3376              		.cfi_def_cfa_offset 0
 3377              	.LVL361:
 3378              	.LBB209:
 3379              	.LBB205:
 3380              		.loc 2 951 0
 3381 0068 FFF7FEBF 		b	set_led
 3382              	.LVL362:
 3383              	.L359:
 3384              		.cfi_restore_state
 3385              		.loc 2 953 0
 3386 006c 9A42     		cmp	r2, r3
 3387 006e 05D1     		bne	.L357
 3388 0070 C0B2     		uxtb	r0, r0
 3389              	.LBE205:
 3390              	.LBE209:
 3391              		.loc 2 958 0
 3392 0072 02B0     		add	sp, sp, #8
 3393              		.cfi_remember_state
 3394              		.cfi_def_cfa_offset 16
 3395              		@ sp needed
 3396 0074 BDE87040 		pop	{r4, r5, r6, lr}
 3397              		.cfi_restore 14
 3398              		.cfi_restore 6
 3399              		.cfi_restore 5
 3400              		.cfi_restore 4
 3401              		.cfi_def_cfa_offset 0
 3402              	.LVL363:
 3403              	.LBB210:
 3404              	.LBB206:
 3405              		.loc 2 953 0
 3406 0078 FFF7FEBF 		b	set_body_led
 3407              	.LVL364:
 3408              	.L357:
 3409              		.cfi_restore_state
 3410              	.LBE206:
 3411              	.LBE210:
 3412              		.loc 2 958 0
 3413 007c FFF7FEFF 		bl	__stack_chk_fail
 3414              	.LVL365:
 3415              	.L362:
 3416              		.align	2
 3417              	.L361:
 3418 0080 00000000 		.word	__stack_chk_guard
 3419 0084 00000000 		.word	.LC72
 3420              		.cfi_endproc
ARM GAS  C:\Users\shadi\AppData\Local\Temp\ccjiUIWy.s 			page 61


 3421              	.LFE301:
 3422              		.size	cmd_set_led, .-cmd_set_led
 3423              		.section	.text.cmd_cam_send,"ax",%progbits
 3424              		.align	1
 3425              		.p2align 4,,15
 3426              		.syntax unified
 3427              		.thumb
 3428              		.thumb_func
 3429              		.fpu fpv4-sp-d16
 3430              		.type	cmd_cam_send, %function
 3431              	cmd_cam_send:
 3432              	.LFB300:
 3433              		.loc 2 914 0
 3434              		.cfi_startproc
 3435              		@ args = 0, pretend = 0, frame = 8
 3436              		@ frame_needed = 0, uses_anonymous_args = 0
 3437              	.LVL366:
 3438 0000 F0B5     		push	{r4, r5, r6, r7, lr}
 3439              		.cfi_def_cfa_offset 20
 3440              		.cfi_offset 4, -20
 3441              		.cfi_offset 5, -16
 3442              		.cfi_offset 6, -12
 3443              		.cfi_offset 7, -8
 3444              		.cfi_offset 14, -4
 3445 0002 284C     		ldr	r4, .L376
 3446 0004 83B0     		sub	sp, sp, #12
 3447              		.cfi_def_cfa_offset 32
 3448              		.loc 2 914 0
 3449 0006 2368     		ldr	r3, [r4]
 3450 0008 0193     		str	r3, [sp, #4]
 3451 000a 0546     		mov	r5, r0
 3452              		.loc 2 919 0
 3453 000c FFF7FEFF 		bl	dcmi_capture_stop
 3454              	.LVL367:
 3455 0010 0028     		cmp	r0, #0
 3456 0012 39D1     		bne	.L374
 3457              		.loc 2 922 0
 3458 0014 FFF7FEFF 		bl	dcmi_double_buffering_enabled
 3459              	.LVL368:
 3460 0018 D8B9     		cbnz	r0, .L375
 3461              		.loc 2 931 0
 3462 001a 2846     		mov	r0, r5
 3463 001c 2249     		ldr	r1, .L376+4
 3464              		.loc 2 934 0
 3465 001e 234D     		ldr	r5, .L376+8
 3466              	.LVL369:
 3467              		.loc 2 931 0
 3468 0020 FFF7FEFF 		bl	chprintf
 3469              	.LVL370:
 3470              		.loc 2 932 0
 3471 0024 41F28830 		movw	r0, #5000
 3472 0028 FFF7FEFF 		bl	chThdSleep
 3473              	.LVL371:
 3474              		.loc 2 933 0
 3475 002c FFF7FEFF 		bl	dcmi_get_first_buffer_ptr
 3476              	.LVL372:
 3477              	.L373:
ARM GAS  C:\Users\shadi\AppData\Local\Temp\ccjiUIWy.s 			page 62


 3478              		.loc 2 934 0
 3479 0030 2B68     		ldr	r3, [r5]
 3480              		.loc 2 933 0
 3481 0032 0746     		mov	r7, r0
 3482              	.LVL373:
 3483              		.loc 2 934 0
 3484 0034 1E68     		ldr	r6, [r3]
 3485 0036 FFF7FEFF 		bl	po8030_get_image_size
 3486              	.LVL374:
 3487 003a 0199     		ldr	r1, [sp, #4]
 3488 003c 2368     		ldr	r3, [r4]
 3489 003e 9942     		cmp	r1, r3
 3490 0040 0246     		mov	r2, r0
 3491 0042 2CD1     		bne	.L371
 3492 0044 3946     		mov	r1, r7
 3493 0046 2846     		mov	r0, r5
 3494 0048 3346     		mov	r3, r6
 3495              		.loc 2 937 0
 3496 004a 03B0     		add	sp, sp, #12
 3497              		.cfi_remember_state
 3498              		.cfi_def_cfa_offset 20
 3499              		@ sp needed
 3500 004c BDE8F040 		pop	{r4, r5, r6, r7, lr}
 3501              		.cfi_restore 14
 3502              		.cfi_restore 7
 3503              		.cfi_restore 6
 3504              		.cfi_restore 5
 3505              		.cfi_restore 4
 3506              		.cfi_def_cfa_offset 0
 3507              	.LVL375:
 3508              		.loc 2 934 0
 3509 0050 1847     		bx	r3
 3510              	.LVL376:
 3511              	.L375:
 3512              		.cfi_restore_state
 3513              	.LBB213:
 3514              	.LBB214:
 3515              		.loc 2 923 0
 3516 0052 1749     		ldr	r1, .L376+12
 3517 0054 2846     		mov	r0, r5
 3518 0056 FFF7FEFF 		bl	chprintf
 3519              	.LVL377:
 3520              		.loc 2 926 0
 3521 005a 144D     		ldr	r5, .L376+8
 3522              	.LVL378:
 3523              		.loc 2 924 0
 3524 005c 41F28830 		movw	r0, #5000
 3525 0060 FFF7FEFF 		bl	chThdSleep
 3526              	.LVL379:
 3527              		.loc 2 925 0
 3528 0064 FFF7FEFF 		bl	dcmi_get_first_buffer_ptr
 3529              	.LVL380:
 3530              		.loc 2 926 0
 3531 0068 2B68     		ldr	r3, [r5]
 3532              		.loc 2 925 0
 3533 006a 0746     		mov	r7, r0
 3534              	.LVL381:
ARM GAS  C:\Users\shadi\AppData\Local\Temp\ccjiUIWy.s 			page 63


 3535              		.loc 2 926 0
 3536 006c 1E68     		ldr	r6, [r3]
 3537 006e FFF7FEFF 		bl	po8030_get_image_size
 3538              	.LVL382:
 3539 0072 3946     		mov	r1, r7
 3540 0074 0246     		mov	r2, r0
 3541 0076 2846     		mov	r0, r5
 3542 0078 B047     		blx	r6
 3543              	.LVL383:
 3544              		.loc 2 927 0
 3545 007a 40F6B830 		movw	r0, #3000
 3546 007e FFF7FEFF 		bl	chThdSleep
 3547              	.LVL384:
 3548              		.loc 2 928 0
 3549 0082 FFF7FEFF 		bl	dcmi_get_second_buffer_ptr
 3550              	.LVL385:
 3551 0086 D3E7     		b	.L373
 3552              	.LVL386:
 3553              	.L374:
 3554              	.LBE214:
 3555              	.LBE213:
 3556              		.loc 2 920 0
 3557 0088 019A     		ldr	r2, [sp, #4]
 3558 008a 2368     		ldr	r3, [r4]
 3559 008c 9A42     		cmp	r2, r3
 3560 008e 06D1     		bne	.L371
 3561 0090 0849     		ldr	r1, .L376+16
 3562 0092 2846     		mov	r0, r5
 3563              		.loc 2 937 0
 3564 0094 03B0     		add	sp, sp, #12
 3565              		.cfi_remember_state
 3566              		.cfi_def_cfa_offset 20
 3567              		@ sp needed
 3568 0096 BDE8F040 		pop	{r4, r5, r6, r7, lr}
 3569              		.cfi_restore 14
 3570              		.cfi_restore 7
 3571              		.cfi_restore 6
 3572              		.cfi_restore 5
 3573              		.cfi_restore 4
 3574              		.cfi_def_cfa_offset 0
 3575              	.LVL387:
 3576              		.loc 2 920 0
 3577 009a FFF7FEBF 		b	chprintf
 3578              	.LVL388:
 3579              	.L371:
 3580              		.cfi_restore_state
 3581              		.loc 2 934 0
 3582 009e FFF7FEFF 		bl	__stack_chk_fail
 3583              	.LVL389:
 3584              	.L377:
 3585 00a2 00BF     		.align	2
 3586              	.L376:
 3587 00a4 00000000 		.word	__stack_chk_guard
 3588 00a8 4C000000 		.word	.LC75
 3589 00ac 00000000 		.word	SDU1
 3590 00b0 1C000000 		.word	.LC74
 3591 00b4 00000000 		.word	.LC73
ARM GAS  C:\Users\shadi\AppData\Local\Temp\ccjiUIWy.s 			page 64


 3592              		.cfi_endproc
 3593              	.LFE300:
 3594              		.size	cmd_cam_send, .-cmd_cam_send
 3595              		.section	.text.cmd_cam_dcmi_prepare,"ax",%progbits
 3596              		.align	1
 3597              		.p2align 4,,15
 3598              		.syntax unified
 3599              		.thumb
 3600              		.thumb_func
 3601              		.fpu fpv4-sp-d16
 3602              		.type	cmd_cam_dcmi_prepare, %function
 3603              	cmd_cam_dcmi_prepare:
 3604              	.LFB297:
 3605              		.loc 2 868 0
 3606              		.cfi_startproc
 3607              		@ args = 0, pretend = 0, frame = 8
 3608              		@ frame_needed = 0, uses_anonymous_args = 0
 3609              	.LVL390:
 3610 0000 70B5     		push	{r4, r5, r6, lr}
 3611              		.cfi_def_cfa_offset 16
 3612              		.cfi_offset 4, -16
 3613              		.cfi_offset 5, -12
 3614              		.cfi_offset 6, -8
 3615              		.cfi_offset 14, -4
 3616 0002 1E4C     		ldr	r4, .L392
 3617 0004 82B0     		sub	sp, sp, #8
 3618              		.cfi_def_cfa_offset 24
 3619              		.loc 2 868 0
 3620 0006 2368     		ldr	r3, [r4]
 3621 0008 0193     		str	r3, [sp, #4]
 3622              	.LVL391:
 3623              		.loc 2 871 0
 3624 000a 0129     		cmp	r1, #1
 3625 000c 09D0     		beq	.L379
 3626              		.loc 2 872 0
 3627 000e 019A     		ldr	r2, [sp, #4]
 3628              	.LVL392:
 3629 0010 2368     		ldr	r3, [r4]
 3630 0012 9A42     		cmp	r2, r3
 3631 0014 2FD1     		bne	.L389
 3632 0016 1A49     		ldr	r1, .L392+4
 3633              	.LVL393:
 3634              		.loc 2 892 0
 3635 0018 02B0     		add	sp, sp, #8
 3636              		.cfi_remember_state
 3637              		.cfi_def_cfa_offset 16
 3638              		@ sp needed
 3639 001a BDE87040 		pop	{r4, r5, r6, lr}
 3640              		.cfi_restore 14
 3641              		.cfi_restore 6
 3642              		.cfi_restore 5
 3643              		.cfi_restore 4
 3644              		.cfi_def_cfa_offset 0
 3645              	.LBB217:
 3646              	.LBB218:
 3647              		.loc 2 887 0
 3648 001e FFF7FEBF 		b	chprintf
ARM GAS  C:\Users\shadi\AppData\Local\Temp\ccjiUIWy.s 			page 65


 3649              	.LVL394:
 3650              	.L379:
 3651              		.cfi_restore_state
 3652 0022 0546     		mov	r5, r0
 3653              	.LVL395:
 3654              		.loc 2 874 0
 3655 0024 1068     		ldr	r0, [r2]
 3656              	.LVL396:
 3657 0026 FFF7FEFF 		bl	atoi
 3658              	.LVL397:
 3659 002a C6B2     		uxtb	r6, r0
 3660              	.LVL398:
 3661              		.loc 2 876 0
 3662 002c 3046     		mov	r0, r6
 3663 002e FFF7FEFF 		bl	dcmi_set_capture_mode
 3664              	.LVL399:
 3665              		.loc 2 878 0
 3666 0032 7EB1     		cbz	r6, .L390
 3667              		.loc 2 881 0
 3668 0034 FFF7FEFF 		bl	dcmi_enable_double_buffering
 3669              	.LVL400:
 3670              		.loc 2 884 0
 3671 0038 FFF7FEFF 		bl	dcmi_prepare
 3672              	.LVL401:
 3673              		.loc 2 885 0
 3674 003c 019A     		ldr	r2, [sp, #4]
 3675 003e 2368     		ldr	r3, [r4]
 3676              		.loc 2 884 0
 3677 0040 80B1     		cbz	r0, .L391
 3678              	.L383:
 3679              		.loc 2 887 0
 3680 0042 9A42     		cmp	r2, r3
 3681 0044 17D1     		bne	.L389
 3682 0046 0F49     		ldr	r1, .L392+8
 3683 0048 2846     		mov	r0, r5
 3684              	.LBE218:
 3685              	.LBE217:
 3686              		.loc 2 892 0
 3687 004a 02B0     		add	sp, sp, #8
 3688              		.cfi_remember_state
 3689              		.cfi_def_cfa_offset 16
 3690              		@ sp needed
 3691 004c BDE87040 		pop	{r4, r5, r6, lr}
 3692              		.cfi_restore 14
 3693              		.cfi_restore 6
 3694              		.cfi_restore 5
 3695              		.cfi_restore 4
 3696              		.cfi_def_cfa_offset 0
 3697              	.LVL402:
 3698              	.LBB221:
 3699              	.LBB219:
 3700              		.loc 2 887 0
 3701 0050 FFF7FEBF 		b	chprintf
 3702              	.LVL403:
 3703              	.L390:
 3704              		.cfi_restore_state
 3705              		.loc 2 879 0
ARM GAS  C:\Users\shadi\AppData\Local\Temp\ccjiUIWy.s 			page 66


 3706 0054 FFF7FEFF 		bl	dcmi_disable_double_buffering
 3707              	.LVL404:
 3708              		.loc 2 884 0
 3709 0058 FFF7FEFF 		bl	dcmi_prepare
 3710              	.LVL405:
 3711              		.loc 2 885 0
 3712 005c 019A     		ldr	r2, [sp, #4]
 3713 005e 2368     		ldr	r3, [r4]
 3714              		.loc 2 884 0
 3715 0060 0028     		cmp	r0, #0
 3716 0062 EED1     		bne	.L383
 3717              	.L391:
 3718              		.loc 2 885 0
 3719 0064 9A42     		cmp	r2, r3
 3720 0066 06D1     		bne	.L389
 3721 0068 0749     		ldr	r1, .L392+12
 3722 006a 2846     		mov	r0, r5
 3723              	.LBE219:
 3724              	.LBE221:
 3725              		.loc 2 892 0
 3726 006c 02B0     		add	sp, sp, #8
 3727              		.cfi_remember_state
 3728              		.cfi_def_cfa_offset 16
 3729              		@ sp needed
 3730 006e BDE87040 		pop	{r4, r5, r6, lr}
 3731              		.cfi_restore 14
 3732              		.cfi_restore 6
 3733              		.cfi_restore 5
 3734              		.cfi_restore 4
 3735              		.cfi_def_cfa_offset 0
 3736              	.LVL406:
 3737              	.LBB222:
 3738              	.LBB220:
 3739              		.loc 2 887 0
 3740 0072 FFF7FEBF 		b	chprintf
 3741              	.LVL407:
 3742              	.L389:
 3743              		.cfi_restore_state
 3744 0076 FFF7FEFF 		bl	__stack_chk_fail
 3745              	.LVL408:
 3746              	.L393:
 3747 007a 00BF     		.align	2
 3748              	.L392:
 3749 007c 00000000 		.word	__stack_chk_guard
 3750 0080 00000000 		.word	.LC76
 3751 0084 64000000 		.word	.LC78
 3752 0088 50000000 		.word	.LC77
 3753              	.LBE220:
 3754              	.LBE222:
 3755              		.cfi_endproc
 3756              	.LFE297:
 3757              		.size	cmd_cam_dcmi_prepare, .-cmd_cam_dcmi_prepare
 3758              		.section	.text.cmd_cam_set_exposure,"ax",%progbits
 3759              		.align	1
 3760              		.p2align 4,,15
 3761              		.syntax unified
 3762              		.thumb
ARM GAS  C:\Users\shadi\AppData\Local\Temp\ccjiUIWy.s 			page 67


 3763              		.thumb_func
 3764              		.fpu fpv4-sp-d16
 3765              		.type	cmd_cam_set_exposure, %function
 3766              	cmd_cam_set_exposure:
 3767              	.LFB296:
 3768              		.loc 2 846 0
 3769              		.cfi_startproc
 3770              		@ args = 0, pretend = 0, frame = 8
 3771              		@ frame_needed = 0, uses_anonymous_args = 0
 3772              	.LVL409:
 3773 0000 F0B5     		push	{r4, r5, r6, r7, lr}
 3774              		.cfi_def_cfa_offset 20
 3775              		.cfi_offset 4, -20
 3776              		.cfi_offset 5, -16
 3777              		.cfi_offset 6, -12
 3778              		.cfi_offset 7, -8
 3779              		.cfi_offset 14, -4
 3780 0002 1A4C     		ldr	r4, .L405
 3781 0004 83B0     		sub	sp, sp, #12
 3782              		.cfi_def_cfa_offset 32
 3783              		.loc 2 846 0
 3784 0006 2368     		ldr	r3, [r4]
 3785 0008 0193     		str	r3, [sp, #4]
 3786              		.loc 2 851 0
 3787 000a 0229     		cmp	r1, #2
 3788 000c 09D0     		beq	.L395
 3789              		.loc 2 852 0
 3790 000e 019A     		ldr	r2, [sp, #4]
 3791              	.LVL410:
 3792 0010 2368     		ldr	r3, [r4]
 3793 0012 9A42     		cmp	r2, r3
 3794 0014 28D1     		bne	.L403
 3795 0016 1649     		ldr	r1, .L405+4
 3796              	.LVL411:
 3797              		.loc 2 865 0
 3798 0018 03B0     		add	sp, sp, #12
 3799              		.cfi_remember_state
 3800              		.cfi_def_cfa_offset 20
 3801              		@ sp needed
 3802 001a BDE8F040 		pop	{r4, r5, r6, r7, lr}
 3803              		.cfi_restore 14
 3804              		.cfi_restore 7
 3805              		.cfi_restore 6
 3806              		.cfi_restore 5
 3807              		.cfi_restore 4
 3808              		.cfi_def_cfa_offset 0
 3809              	.LBB225:
 3810              	.LBB226:
 3811              		.loc 2 862 0
 3812 001e FFF7FEBF 		b	chprintf
 3813              	.LVL412:
 3814              	.L395:
 3815              		.cfi_restore_state
 3816 0022 0646     		mov	r6, r0
 3817              	.LVL413:
 3818              		.loc 2 855 0
 3819 0024 1068     		ldr	r0, [r2]
ARM GAS  C:\Users\shadi\AppData\Local\Temp\ccjiUIWy.s 			page 68


 3820              	.LVL414:
 3821 0026 1546     		mov	r5, r2
 3822 0028 FFF7FEFF 		bl	atoi
 3823              	.LVL415:
 3824 002c 0746     		mov	r7, r0
 3825              	.LVL416:
 3826              		.loc 2 856 0
 3827 002e 6868     		ldr	r0, [r5, #4]
 3828 0030 FFF7FEFF 		bl	atoi
 3829              	.LVL417:
 3830              		.loc 2 858 0
 3831 0034 C1B2     		uxtb	r1, r0
 3832 0036 B8B2     		uxth	r0, r7
 3833              	.LVL418:
 3834 0038 FFF7FEFF 		bl	po8030_set_exposure
 3835              	.LVL419:
 3836              		.loc 2 860 0
 3837 003c 019A     		ldr	r2, [sp, #4]
 3838 003e 2368     		ldr	r3, [r4]
 3839              		.loc 2 859 0
 3840 0040 40B9     		cbnz	r0, .L404
 3841              		.loc 2 862 0
 3842 0042 9A42     		cmp	r2, r3
 3843 0044 10D1     		bne	.L403
 3844 0046 0B49     		ldr	r1, .L405+8
 3845 0048 3046     		mov	r0, r6
 3846              	.LVL420:
 3847              	.LBE226:
 3848              	.LBE225:
 3849              		.loc 2 865 0
 3850 004a 03B0     		add	sp, sp, #12
 3851              		.cfi_remember_state
 3852              		.cfi_def_cfa_offset 20
 3853              		@ sp needed
 3854 004c BDE8F040 		pop	{r4, r5, r6, r7, lr}
 3855              		.cfi_restore 14
 3856              		.cfi_restore 7
 3857              		.cfi_restore 6
 3858              		.cfi_restore 5
 3859              		.cfi_restore 4
 3860              		.cfi_def_cfa_offset 0
 3861              	.LVL421:
 3862              	.LBB229:
 3863              	.LBB227:
 3864              		.loc 2 862 0
 3865 0050 FFF7FEBF 		b	chprintf
 3866              	.LVL422:
 3867              	.L404:
 3868              		.cfi_restore_state
 3869              		.loc 2 860 0
 3870 0054 9A42     		cmp	r2, r3
 3871 0056 07D1     		bne	.L403
 3872 0058 0749     		ldr	r1, .L405+12
 3873 005a 0246     		mov	r2, r0
 3874 005c 3046     		mov	r0, r6
 3875              	.LVL423:
 3876              	.LBE227:
ARM GAS  C:\Users\shadi\AppData\Local\Temp\ccjiUIWy.s 			page 69


 3877              	.LBE229:
 3878              		.loc 2 865 0
 3879 005e 03B0     		add	sp, sp, #12
 3880              		.cfi_remember_state
 3881              		.cfi_def_cfa_offset 20
 3882              		@ sp needed
 3883 0060 BDE8F040 		pop	{r4, r5, r6, r7, lr}
 3884              		.cfi_restore 14
 3885              		.cfi_restore 7
 3886              		.cfi_restore 6
 3887              		.cfi_restore 5
 3888              		.cfi_restore 4
 3889              		.cfi_def_cfa_offset 0
 3890              	.LVL424:
 3891              	.LBB230:
 3892              	.LBB228:
 3893              		.loc 2 860 0
 3894 0064 FFF7FEBF 		b	chprintf
 3895              	.LVL425:
 3896              	.L403:
 3897              		.cfi_restore_state
 3898              		.loc 2 862 0
 3899 0068 FFF7FEFF 		bl	__stack_chk_fail
 3900              	.LVL426:
 3901              	.L406:
 3902              		.align	2
 3903              	.L405:
 3904 006c 00000000 		.word	__stack_chk_guard
 3905 0070 00000000 		.word	.LC79
 3906 0074 C4000000 		.word	.LC81
 3907 0078 A4000000 		.word	.LC80
 3908              	.LBE228:
 3909              	.LBE230:
 3910              		.cfi_endproc
 3911              	.LFE296:
 3912              		.size	cmd_cam_set_exposure, .-cmd_cam_set_exposure
 3913              		.section	.text.cmd_cam_set_ae,"ax",%progbits
 3914              		.align	1
 3915              		.p2align 4,,15
 3916              		.syntax unified
 3917              		.thumb
 3918              		.thumb_func
 3919              		.fpu fpv4-sp-d16
 3920              		.type	cmd_cam_set_ae, %function
 3921              	cmd_cam_set_ae:
 3922              	.LFB295:
 3923              		.loc 2 826 0
 3924              		.cfi_startproc
 3925              		@ args = 0, pretend = 0, frame = 8
 3926              		@ frame_needed = 0, uses_anonymous_args = 0
 3927              	.LVL427:
 3928 0000 30B5     		push	{r4, r5, lr}
 3929              		.cfi_def_cfa_offset 12
 3930              		.cfi_offset 4, -12
 3931              		.cfi_offset 5, -8
 3932              		.cfi_offset 14, -4
 3933 0002 174C     		ldr	r4, .L418
ARM GAS  C:\Users\shadi\AppData\Local\Temp\ccjiUIWy.s 			page 70


 3934 0004 83B0     		sub	sp, sp, #12
 3935              		.cfi_def_cfa_offset 24
 3936              		.loc 2 826 0
 3937 0006 2368     		ldr	r3, [r4]
 3938 0008 0193     		str	r3, [sp, #4]
 3939              		.loc 2 830 0
 3940 000a 0129     		cmp	r1, #1
 3941 000c 09D0     		beq	.L408
 3942              		.loc 2 831 0
 3943 000e 019A     		ldr	r2, [sp, #4]
 3944              	.LVL428:
 3945 0010 2368     		ldr	r3, [r4]
 3946 0012 9A42     		cmp	r2, r3
 3947 0014 22D1     		bne	.L416
 3948 0016 1349     		ldr	r1, .L418+4
 3949              	.LVL429:
 3950              		.loc 2 843 0
 3951 0018 03B0     		add	sp, sp, #12
 3952              		.cfi_remember_state
 3953              		.cfi_def_cfa_offset 12
 3954              		@ sp needed
 3955 001a BDE83040 		pop	{r4, r5, lr}
 3956              		.cfi_restore 14
 3957              		.cfi_restore 5
 3958              		.cfi_restore 4
 3959              		.cfi_def_cfa_offset 0
 3960              	.LBB233:
 3961              	.LBB234:
 3962              		.loc 2 840 0
 3963 001e FFF7FEBF 		b	chprintf
 3964              	.LVL430:
 3965              	.L408:
 3966              		.cfi_restore_state
 3967 0022 0546     		mov	r5, r0
 3968              	.LVL431:
 3969              		.loc 2 834 0
 3970 0024 1068     		ldr	r0, [r2]
 3971              	.LVL432:
 3972 0026 FFF7FEFF 		bl	atoi
 3973              	.LVL433:
 3974              		.loc 2 836 0
 3975 002a C0B2     		uxtb	r0, r0
 3976 002c FFF7FEFF 		bl	po8030_set_ae
 3977              	.LVL434:
 3978              		.loc 2 838 0
 3979 0030 019A     		ldr	r2, [sp, #4]
 3980 0032 2368     		ldr	r3, [r4]
 3981              		.loc 2 837 0
 3982 0034 40B9     		cbnz	r0, .L417
 3983              		.loc 2 840 0
 3984 0036 9A42     		cmp	r2, r3
 3985 0038 10D1     		bne	.L416
 3986 003a 0B49     		ldr	r1, .L418+8
 3987 003c 2846     		mov	r0, r5
 3988              	.LVL435:
 3989              	.LBE234:
 3990              	.LBE233:
ARM GAS  C:\Users\shadi\AppData\Local\Temp\ccjiUIWy.s 			page 71


 3991              		.loc 2 843 0
 3992 003e 03B0     		add	sp, sp, #12
 3993              		.cfi_remember_state
 3994              		.cfi_def_cfa_offset 12
 3995              		@ sp needed
 3996 0040 BDE83040 		pop	{r4, r5, lr}
 3997              		.cfi_restore 14
 3998              		.cfi_restore 5
 3999              		.cfi_restore 4
 4000              		.cfi_def_cfa_offset 0
 4001              	.LVL436:
 4002              	.LBB237:
 4003              	.LBB235:
 4004              		.loc 2 840 0
 4005 0044 FFF7FEBF 		b	chprintf
 4006              	.LVL437:
 4007              	.L417:
 4008              		.cfi_restore_state
 4009              		.loc 2 838 0
 4010 0048 9A42     		cmp	r2, r3
 4011 004a 07D1     		bne	.L416
 4012 004c 0749     		ldr	r1, .L418+12
 4013 004e 0246     		mov	r2, r0
 4014 0050 2846     		mov	r0, r5
 4015              	.LVL438:
 4016              	.LBE235:
 4017              	.LBE237:
 4018              		.loc 2 843 0
 4019 0052 03B0     		add	sp, sp, #12
 4020              		.cfi_remember_state
 4021              		.cfi_def_cfa_offset 12
 4022              		@ sp needed
 4023 0054 BDE83040 		pop	{r4, r5, lr}
 4024              		.cfi_restore 14
 4025              		.cfi_restore 5
 4026              		.cfi_restore 4
 4027              		.cfi_def_cfa_offset 0
 4028              	.LVL439:
 4029              	.LBB238:
 4030              	.LBB236:
 4031              		.loc 2 838 0
 4032 0058 FFF7FEBF 		b	chprintf
 4033              	.LVL440:
 4034              	.L416:
 4035              		.cfi_restore_state
 4036              		.loc 2 840 0
 4037 005c FFF7FEFF 		bl	__stack_chk_fail
 4038              	.LVL441:
 4039              	.L419:
 4040              		.align	2
 4041              	.L418:
 4042 0060 00000000 		.word	__stack_chk_guard
 4043 0064 00000000 		.word	.LC82
 4044 0068 50000000 		.word	.LC84
 4045 006c 30000000 		.word	.LC83
 4046              	.LBE236:
 4047              	.LBE238:
ARM GAS  C:\Users\shadi\AppData\Local\Temp\ccjiUIWy.s 			page 72


 4048              		.cfi_endproc
 4049              	.LFE295:
 4050              		.size	cmd_cam_set_ae, .-cmd_cam_set_ae
 4051              		.section	.text.cmd_cam_set_awb,"ax",%progbits
 4052              		.align	1
 4053              		.p2align 4,,15
 4054              		.syntax unified
 4055              		.thumb
 4056              		.thumb_func
 4057              		.fpu fpv4-sp-d16
 4058              		.type	cmd_cam_set_awb, %function
 4059              	cmd_cam_set_awb:
 4060              	.LFB294:
 4061              		.loc 2 806 0
 4062              		.cfi_startproc
 4063              		@ args = 0, pretend = 0, frame = 8
 4064              		@ frame_needed = 0, uses_anonymous_args = 0
 4065              	.LVL442:
 4066 0000 30B5     		push	{r4, r5, lr}
 4067              		.cfi_def_cfa_offset 12
 4068              		.cfi_offset 4, -12
 4069              		.cfi_offset 5, -8
 4070              		.cfi_offset 14, -4
 4071 0002 174C     		ldr	r4, .L431
 4072 0004 83B0     		sub	sp, sp, #12
 4073              		.cfi_def_cfa_offset 24
 4074              		.loc 2 806 0
 4075 0006 2368     		ldr	r3, [r4]
 4076 0008 0193     		str	r3, [sp, #4]
 4077              		.loc 2 810 0
 4078 000a 0129     		cmp	r1, #1
 4079 000c 09D0     		beq	.L421
 4080              		.loc 2 811 0
 4081 000e 019A     		ldr	r2, [sp, #4]
 4082              	.LVL443:
 4083 0010 2368     		ldr	r3, [r4]
 4084 0012 9A42     		cmp	r2, r3
 4085 0014 22D1     		bne	.L429
 4086 0016 1349     		ldr	r1, .L431+4
 4087              	.LVL444:
 4088              		.loc 2 823 0
 4089 0018 03B0     		add	sp, sp, #12
 4090              		.cfi_remember_state
 4091              		.cfi_def_cfa_offset 12
 4092              		@ sp needed
 4093 001a BDE83040 		pop	{r4, r5, lr}
 4094              		.cfi_restore 14
 4095              		.cfi_restore 5
 4096              		.cfi_restore 4
 4097              		.cfi_def_cfa_offset 0
 4098              	.LBB241:
 4099              	.LBB242:
 4100              		.loc 2 820 0
 4101 001e FFF7FEBF 		b	chprintf
 4102              	.LVL445:
 4103              	.L421:
 4104              		.cfi_restore_state
ARM GAS  C:\Users\shadi\AppData\Local\Temp\ccjiUIWy.s 			page 73


 4105 0022 0546     		mov	r5, r0
 4106              	.LVL446:
 4107              		.loc 2 814 0
 4108 0024 1068     		ldr	r0, [r2]
 4109              	.LVL447:
 4110 0026 FFF7FEFF 		bl	atoi
 4111              	.LVL448:
 4112              		.loc 2 816 0
 4113 002a C0B2     		uxtb	r0, r0
 4114 002c FFF7FEFF 		bl	po8030_set_awb
 4115              	.LVL449:
 4116              		.loc 2 818 0
 4117 0030 019A     		ldr	r2, [sp, #4]
 4118 0032 2368     		ldr	r3, [r4]
 4119              		.loc 2 817 0
 4120 0034 40B9     		cbnz	r0, .L430
 4121              		.loc 2 820 0
 4122 0036 9A42     		cmp	r2, r3
 4123 0038 10D1     		bne	.L429
 4124 003a 0B49     		ldr	r1, .L431+8
 4125 003c 2846     		mov	r0, r5
 4126              	.LVL450:
 4127              	.LBE242:
 4128              	.LBE241:
 4129              		.loc 2 823 0
 4130 003e 03B0     		add	sp, sp, #12
 4131              		.cfi_remember_state
 4132              		.cfi_def_cfa_offset 12
 4133              		@ sp needed
 4134 0040 BDE83040 		pop	{r4, r5, lr}
 4135              		.cfi_restore 14
 4136              		.cfi_restore 5
 4137              		.cfi_restore 4
 4138              		.cfi_def_cfa_offset 0
 4139              	.LVL451:
 4140              	.LBB245:
 4141              	.LBB243:
 4142              		.loc 2 820 0
 4143 0044 FFF7FEBF 		b	chprintf
 4144              	.LVL452:
 4145              	.L430:
 4146              		.cfi_restore_state
 4147              		.loc 2 818 0
 4148 0048 9A42     		cmp	r2, r3
 4149 004a 07D1     		bne	.L429
 4150 004c 0749     		ldr	r1, .L431+12
 4151 004e 0246     		mov	r2, r0
 4152 0050 2846     		mov	r0, r5
 4153              	.LVL453:
 4154              	.LBE243:
 4155              	.LBE245:
 4156              		.loc 2 823 0
 4157 0052 03B0     		add	sp, sp, #12
 4158              		.cfi_remember_state
 4159              		.cfi_def_cfa_offset 12
 4160              		@ sp needed
 4161 0054 BDE83040 		pop	{r4, r5, lr}
ARM GAS  C:\Users\shadi\AppData\Local\Temp\ccjiUIWy.s 			page 74


 4162              		.cfi_restore 14
 4163              		.cfi_restore 5
 4164              		.cfi_restore 4
 4165              		.cfi_def_cfa_offset 0
 4166              	.LVL454:
 4167              	.LBB246:
 4168              	.LBB244:
 4169              		.loc 2 818 0
 4170 0058 FFF7FEBF 		b	chprintf
 4171              	.LVL455:
 4172              	.L429:
 4173              		.cfi_restore_state
 4174              		.loc 2 820 0
 4175 005c FFF7FEFF 		bl	__stack_chk_fail
 4176              	.LVL456:
 4177              	.L432:
 4178              		.align	2
 4179              	.L431:
 4180 0060 00000000 		.word	__stack_chk_guard
 4181 0064 00000000 		.word	.LC85
 4182 0068 50000000 		.word	.LC87
 4183 006c 30000000 		.word	.LC86
 4184              	.LBE244:
 4185              	.LBE246:
 4186              		.cfi_endproc
 4187              	.LFE294:
 4188              		.size	cmd_cam_set_awb, .-cmd_cam_set_awb
 4189              		.section	.text.cmd_cam_set_gain,"ax",%progbits
 4190              		.align	1
 4191              		.p2align 4,,15
 4192              		.syntax unified
 4193              		.thumb
 4194              		.thumb_func
 4195              		.fpu fpv4-sp-d16
 4196              		.type	cmd_cam_set_gain, %function
 4197              	cmd_cam_set_gain:
 4198              	.LFB293:
 4199              		.loc 2 784 0
 4200              		.cfi_startproc
 4201              		@ args = 0, pretend = 0, frame = 8
 4202              		@ frame_needed = 0, uses_anonymous_args = 0
 4203              	.LVL457:
 4204 0000 2DE9F041 		push	{r4, r5, r6, r7, r8, lr}
 4205              		.cfi_def_cfa_offset 24
 4206              		.cfi_offset 4, -24
 4207              		.cfi_offset 5, -20
 4208              		.cfi_offset 6, -16
 4209              		.cfi_offset 7, -12
 4210              		.cfi_offset 8, -8
 4211              		.cfi_offset 14, -4
 4212 0004 1D4C     		ldr	r4, .L444
 4213 0006 82B0     		sub	sp, sp, #8
 4214              		.cfi_def_cfa_offset 32
 4215              		.loc 2 784 0
 4216 0008 2368     		ldr	r3, [r4]
 4217 000a 0193     		str	r3, [sp, #4]
 4218              		.loc 2 788 0
ARM GAS  C:\Users\shadi\AppData\Local\Temp\ccjiUIWy.s 			page 75


 4219 000c 0329     		cmp	r1, #3
 4220 000e 09D0     		beq	.L434
 4221              		.loc 2 789 0
 4222 0010 019A     		ldr	r2, [sp, #4]
 4223              	.LVL458:
 4224 0012 2368     		ldr	r3, [r4]
 4225 0014 9A42     		cmp	r2, r3
 4226 0016 2ED1     		bne	.L442
 4227 0018 1949     		ldr	r1, .L444+4
 4228              	.LVL459:
 4229              		.loc 2 803 0
 4230 001a 02B0     		add	sp, sp, #8
 4231              		.cfi_remember_state
 4232              		.cfi_def_cfa_offset 24
 4233              		@ sp needed
 4234 001c BDE8F041 		pop	{r4, r5, r6, r7, r8, lr}
 4235              		.cfi_restore 14
 4236              		.cfi_restore 8
 4237              		.cfi_restore 7
 4238              		.cfi_restore 6
 4239              		.cfi_restore 5
 4240              		.cfi_restore 4
 4241              		.cfi_def_cfa_offset 0
 4242              	.LBB249:
 4243              	.LBB250:
 4244              		.loc 2 800 0
 4245 0020 FFF7FEBF 		b	chprintf
 4246              	.LVL460:
 4247              	.L434:
 4248              		.cfi_restore_state
 4249 0024 0646     		mov	r6, r0
 4250              	.LVL461:
 4251              		.loc 2 792 0
 4252 0026 1068     		ldr	r0, [r2]
 4253              	.LVL462:
 4254 0028 1546     		mov	r5, r2
 4255 002a FFF7FEFF 		bl	atoi
 4256              	.LVL463:
 4257 002e 0746     		mov	r7, r0
 4258              	.LVL464:
 4259              		.loc 2 793 0
 4260 0030 6868     		ldr	r0, [r5, #4]
 4261 0032 FFF7FEFF 		bl	atoi
 4262              	.LVL465:
 4263 0036 8046     		mov	r8, r0
 4264              	.LVL466:
 4265              		.loc 2 794 0
 4266 0038 A868     		ldr	r0, [r5, #8]
 4267 003a FFF7FEFF 		bl	atoi
 4268              	.LVL467:
 4269              		.loc 2 796 0
 4270 003e 5FFA88F1 		uxtb	r1, r8
 4271 0042 C2B2     		uxtb	r2, r0
 4272 0044 F8B2     		uxtb	r0, r7
 4273              	.LVL468:
 4274 0046 FFF7FEFF 		bl	po8030_set_rgb_gain
 4275              	.LVL469:
ARM GAS  C:\Users\shadi\AppData\Local\Temp\ccjiUIWy.s 			page 76


 4276              		.loc 2 798 0
 4277 004a 019A     		ldr	r2, [sp, #4]
 4278 004c 2368     		ldr	r3, [r4]
 4279              		.loc 2 797 0
 4280 004e 40B9     		cbnz	r0, .L443
 4281              		.loc 2 800 0
 4282 0050 9A42     		cmp	r2, r3
 4283 0052 10D1     		bne	.L442
 4284 0054 0B49     		ldr	r1, .L444+8
 4285 0056 3046     		mov	r0, r6
 4286              	.LVL470:
 4287              	.LBE250:
 4288              	.LBE249:
 4289              		.loc 2 803 0
 4290 0058 02B0     		add	sp, sp, #8
 4291              		.cfi_remember_state
 4292              		.cfi_def_cfa_offset 24
 4293              		@ sp needed
 4294 005a BDE8F041 		pop	{r4, r5, r6, r7, r8, lr}
 4295              		.cfi_restore 14
 4296              		.cfi_restore 8
 4297              		.cfi_restore 7
 4298              		.cfi_restore 6
 4299              		.cfi_restore 5
 4300              		.cfi_restore 4
 4301              		.cfi_def_cfa_offset 0
 4302              	.LVL471:
 4303              	.LBB253:
 4304              	.LBB251:
 4305              		.loc 2 800 0
 4306 005e FFF7FEBF 		b	chprintf
 4307              	.LVL472:
 4308              	.L443:
 4309              		.cfi_restore_state
 4310              		.loc 2 798 0
 4311 0062 9A42     		cmp	r2, r3
 4312 0064 07D1     		bne	.L442
 4313 0066 0849     		ldr	r1, .L444+12
 4314 0068 0246     		mov	r2, r0
 4315 006a 3046     		mov	r0, r6
 4316              	.LVL473:
 4317              	.LBE251:
 4318              	.LBE253:
 4319              		.loc 2 803 0
 4320 006c 02B0     		add	sp, sp, #8
 4321              		.cfi_remember_state
 4322              		.cfi_def_cfa_offset 24
 4323              		@ sp needed
 4324 006e BDE8F041 		pop	{r4, r5, r6, r7, r8, lr}
 4325              		.cfi_restore 14
 4326              		.cfi_restore 8
 4327              		.cfi_restore 7
 4328              		.cfi_restore 6
 4329              		.cfi_restore 5
 4330              		.cfi_restore 4
 4331              		.cfi_def_cfa_offset 0
 4332              	.LVL474:
ARM GAS  C:\Users\shadi\AppData\Local\Temp\ccjiUIWy.s 			page 77


 4333              	.LBB254:
 4334              	.LBB252:
 4335              		.loc 2 798 0
 4336 0072 FFF7FEBF 		b	chprintf
 4337              	.LVL475:
 4338              	.L442:
 4339              		.cfi_restore_state
 4340              		.loc 2 800 0
 4341 0076 FFF7FEFF 		bl	__stack_chk_fail
 4342              	.LVL476:
 4343              	.L445:
 4344 007a 00BF     		.align	2
 4345              	.L444:
 4346 007c 00000000 		.word	__stack_chk_guard
 4347 0080 00000000 		.word	.LC88
 4348 0084 90000000 		.word	.LC90
 4349 0088 78000000 		.word	.LC89
 4350              	.LBE252:
 4351              	.LBE254:
 4352              		.cfi_endproc
 4353              	.LFE293:
 4354              		.size	cmd_cam_set_gain, .-cmd_cam_set_gain
 4355              		.section	.text.cmd_cam_set_mirror,"ax",%progbits
 4356              		.align	1
 4357              		.p2align 4,,15
 4358              		.syntax unified
 4359              		.thumb
 4360              		.thumb_func
 4361              		.fpu fpv4-sp-d16
 4362              		.type	cmd_cam_set_mirror, %function
 4363              	cmd_cam_set_mirror:
 4364              	.LFB292:
 4365              		.loc 2 763 0
 4366              		.cfi_startproc
 4367              		@ args = 0, pretend = 0, frame = 8
 4368              		@ frame_needed = 0, uses_anonymous_args = 0
 4369              	.LVL477:
 4370 0000 F0B5     		push	{r4, r5, r6, r7, lr}
 4371              		.cfi_def_cfa_offset 20
 4372              		.cfi_offset 4, -20
 4373              		.cfi_offset 5, -16
 4374              		.cfi_offset 6, -12
 4375              		.cfi_offset 7, -8
 4376              		.cfi_offset 14, -4
 4377 0002 1A4C     		ldr	r4, .L457
 4378 0004 83B0     		sub	sp, sp, #12
 4379              		.cfi_def_cfa_offset 32
 4380              		.loc 2 763 0
 4381 0006 2368     		ldr	r3, [r4]
 4382 0008 0193     		str	r3, [sp, #4]
 4383              		.loc 2 767 0
 4384 000a 0229     		cmp	r1, #2
 4385 000c 09D0     		beq	.L447
 4386              		.loc 2 768 0
 4387 000e 019A     		ldr	r2, [sp, #4]
 4388              	.LVL478:
 4389 0010 2368     		ldr	r3, [r4]
ARM GAS  C:\Users\shadi\AppData\Local\Temp\ccjiUIWy.s 			page 78


 4390 0012 9A42     		cmp	r2, r3
 4391 0014 28D1     		bne	.L455
 4392 0016 1649     		ldr	r1, .L457+4
 4393              	.LVL479:
 4394              		.loc 2 781 0
 4395 0018 03B0     		add	sp, sp, #12
 4396              		.cfi_remember_state
 4397              		.cfi_def_cfa_offset 20
 4398              		@ sp needed
 4399 001a BDE8F040 		pop	{r4, r5, r6, r7, lr}
 4400              		.cfi_restore 14
 4401              		.cfi_restore 7
 4402              		.cfi_restore 6
 4403              		.cfi_restore 5
 4404              		.cfi_restore 4
 4405              		.cfi_def_cfa_offset 0
 4406              	.LBB257:
 4407              	.LBB258:
 4408              		.loc 2 778 0
 4409 001e FFF7FEBF 		b	chprintf
 4410              	.LVL480:
 4411              	.L447:
 4412              		.cfi_restore_state
 4413 0022 0646     		mov	r6, r0
 4414              	.LVL481:
 4415              		.loc 2 771 0
 4416 0024 1068     		ldr	r0, [r2]
 4417              	.LVL482:
 4418 0026 1546     		mov	r5, r2
 4419 0028 FFF7FEFF 		bl	atoi
 4420              	.LVL483:
 4421 002c 0746     		mov	r7, r0
 4422              	.LVL484:
 4423              		.loc 2 772 0
 4424 002e 6868     		ldr	r0, [r5, #4]
 4425 0030 FFF7FEFF 		bl	atoi
 4426              	.LVL485:
 4427              		.loc 2 774 0
 4428 0034 C1B2     		uxtb	r1, r0
 4429 0036 F8B2     		uxtb	r0, r7
 4430              	.LVL486:
 4431 0038 FFF7FEFF 		bl	po8030_set_mirror
 4432              	.LVL487:
 4433              		.loc 2 776 0
 4434 003c 019A     		ldr	r2, [sp, #4]
 4435 003e 2368     		ldr	r3, [r4]
 4436              		.loc 2 775 0
 4437 0040 40B9     		cbnz	r0, .L456
 4438              		.loc 2 778 0
 4439 0042 9A42     		cmp	r2, r3
 4440 0044 10D1     		bne	.L455
 4441 0046 0B49     		ldr	r1, .L457+8
 4442 0048 3046     		mov	r0, r6
 4443              	.LVL488:
 4444              	.LBE258:
 4445              	.LBE257:
 4446              		.loc 2 781 0
ARM GAS  C:\Users\shadi\AppData\Local\Temp\ccjiUIWy.s 			page 79


 4447 004a 03B0     		add	sp, sp, #12
 4448              		.cfi_remember_state
 4449              		.cfi_def_cfa_offset 20
 4450              		@ sp needed
 4451 004c BDE8F040 		pop	{r4, r5, r6, r7, lr}
 4452              		.cfi_restore 14
 4453              		.cfi_restore 7
 4454              		.cfi_restore 6
 4455              		.cfi_restore 5
 4456              		.cfi_restore 4
 4457              		.cfi_def_cfa_offset 0
 4458              	.LVL489:
 4459              	.LBB261:
 4460              	.LBB259:
 4461              		.loc 2 778 0
 4462 0050 FFF7FEBF 		b	chprintf
 4463              	.LVL490:
 4464              	.L456:
 4465              		.cfi_restore_state
 4466              		.loc 2 776 0
 4467 0054 9A42     		cmp	r2, r3
 4468 0056 07D1     		bne	.L455
 4469 0058 0749     		ldr	r1, .L457+12
 4470 005a 0246     		mov	r2, r0
 4471 005c 3046     		mov	r0, r6
 4472              	.LVL491:
 4473              	.LBE259:
 4474              	.LBE261:
 4475              		.loc 2 781 0
 4476 005e 03B0     		add	sp, sp, #12
 4477              		.cfi_remember_state
 4478              		.cfi_def_cfa_offset 20
 4479              		@ sp needed
 4480 0060 BDE8F040 		pop	{r4, r5, r6, r7, lr}
 4481              		.cfi_restore 14
 4482              		.cfi_restore 7
 4483              		.cfi_restore 6
 4484              		.cfi_restore 5
 4485              		.cfi_restore 4
 4486              		.cfi_def_cfa_offset 0
 4487              	.LVL492:
 4488              	.LBB262:
 4489              	.LBB260:
 4490              		.loc 2 776 0
 4491 0064 FFF7FEBF 		b	chprintf
 4492              	.LVL493:
 4493              	.L455:
 4494              		.cfi_restore_state
 4495              		.loc 2 778 0
 4496 0068 FFF7FEFF 		bl	__stack_chk_fail
 4497              	.LVL494:
 4498              	.L458:
 4499              		.align	2
 4500              	.L457:
 4501 006c 00000000 		.word	__stack_chk_guard
 4502 0070 00000000 		.word	.LC91
 4503 0074 64000000 		.word	.LC93
ARM GAS  C:\Users\shadi\AppData\Local\Temp\ccjiUIWy.s 			page 80


 4504 0078 48000000 		.word	.LC92
 4505              	.LBE260:
 4506              	.LBE262:
 4507              		.cfi_endproc
 4508              	.LFE292:
 4509              		.size	cmd_cam_set_mirror, .-cmd_cam_set_mirror
 4510              		.section	.text.cmd_cam_set_conf2,"ax",%progbits
 4511              		.align	1
 4512              		.p2align 4,,15
 4513              		.syntax unified
 4514              		.thumb
 4515              		.thumb_func
 4516              		.fpu fpv4-sp-d16
 4517              		.type	cmd_cam_set_conf2, %function
 4518              	cmd_cam_set_conf2:
 4519              	.LFB291:
 4520              		.loc 2 742 0
 4521              		.cfi_startproc
 4522              		@ args = 0, pretend = 0, frame = 8
 4523              		@ frame_needed = 0, uses_anonymous_args = 0
 4524              	.LVL495:
 4525 0000 2DE9F043 		push	{r4, r5, r6, r7, r8, r9, lr}
 4526              		.cfi_def_cfa_offset 28
 4527              		.cfi_offset 4, -28
 4528              		.cfi_offset 5, -24
 4529              		.cfi_offset 6, -20
 4530              		.cfi_offset 7, -16
 4531              		.cfi_offset 8, -12
 4532              		.cfi_offset 9, -8
 4533              		.cfi_offset 14, -4
 4534 0004 2A4C     		ldr	r4, .L470
 4535 0006 87B0     		sub	sp, sp, #28
 4536              		.cfi_def_cfa_offset 56
 4537              		.loc 2 742 0
 4538 0008 2368     		ldr	r3, [r4]
 4539 000a 0593     		str	r3, [sp, #20]
 4540              		.loc 2 745 0
 4541 000c 0429     		cmp	r1, #4
 4542 000e 09D0     		beq	.L460
 4543              		.loc 2 746 0
 4544 0010 059A     		ldr	r2, [sp, #20]
 4545              	.LVL496:
 4546 0012 2368     		ldr	r3, [r4]
 4547 0014 9A42     		cmp	r2, r3
 4548 0016 48D1     		bne	.L468
 4549 0018 2649     		ldr	r1, .L470+4
 4550              	.LVL497:
 4551              		.loc 2 760 0
 4552 001a 07B0     		add	sp, sp, #28
 4553              		.cfi_remember_state
 4554              		.cfi_def_cfa_offset 28
 4555              		@ sp needed
 4556 001c BDE8F043 		pop	{r4, r5, r6, r7, r8, r9, lr}
 4557              		.cfi_restore 14
 4558              		.cfi_restore 9
 4559              		.cfi_restore 8
 4560              		.cfi_restore 7
ARM GAS  C:\Users\shadi\AppData\Local\Temp\ccjiUIWy.s 			page 81


 4561              		.cfi_restore 6
 4562              		.cfi_restore 5
 4563              		.cfi_restore 4
 4564              		.cfi_def_cfa_offset 0
 4565              	.LBB265:
 4566              	.LBB266:
 4567              		.loc 2 757 0
 4568 0020 FFF7FEBF 		b	chprintf
 4569              	.LVL498:
 4570              	.L460:
 4571              		.cfi_restore_state
 4572 0024 0646     		mov	r6, r0
 4573              	.LVL499:
 4574              		.loc 2 748 0
 4575 0026 1068     		ldr	r0, [r2]
 4576              	.LVL500:
 4577 0028 234F     		ldr	r7, .L470+8
 4578              		.loc 2 749 0
 4579 002a DFF8A080 		ldr	r8, .L470+28
 4580              		.loc 2 750 0
 4581 002e DFF8A090 		ldr	r9, .L470+32
 4582 0032 1546     		mov	r5, r2
 4583              		.loc 2 748 0
 4584 0034 FFF7FEFF 		bl	atoi
 4585              	.LVL501:
 4586 0038 3880     		strh	r0, [r7]	@ movhi
 4587              		.loc 2 749 0
 4588 003a 6868     		ldr	r0, [r5, #4]
 4589 003c FFF7FEFF 		bl	atoi
 4590              	.LVL502:
 4591 0040 A8F80000 		strh	r0, [r8]	@ movhi
 4592              		.loc 2 750 0
 4593 0044 A868     		ldr	r0, [r5, #8]
 4594 0046 FFF7FEFF 		bl	atoi
 4595              	.LVL503:
 4596 004a A9F80000 		strh	r0, [r9]	@ movhi
 4597              		.loc 2 751 0
 4598 004e E868     		ldr	r0, [r5, #12]
 4599              		.loc 2 753 0
 4600 0050 1A4D     		ldr	r5, .L470+12
 4601              	.LVL504:
 4602              		.loc 2 751 0
 4603 0052 FFF7FEFF 		bl	atoi
 4604              	.LVL505:
 4605              		.loc 2 753 0
 4606 0056 3988     		ldrh	r1, [r7]
 4607 0058 DFF878C0 		ldr	ip, .L470+36
 4608 005c 2F78     		ldrb	r7, [r5]	@ zero_extendqisi2
 4609 005e 184D     		ldr	r5, .L470+16
 4610 0060 9CF800C0 		ldrb	ip, [ip]	@ zero_extendqisi2
 4611 0064 2D78     		ldrb	r5, [r5]	@ zero_extendqisi2
 4612 0066 B9F80030 		ldrh	r3, [r9]
 4613 006a B8F80020 		ldrh	r2, [r8]
 4614 006e CDF808C0 		str	ip, [sp, #8]
 4615 0072 80B2     		uxth	r0, r0
 4616 0074 0090     		str	r0, [sp]
 4617 0076 0195     		str	r5, [sp, #4]
ARM GAS  C:\Users\shadi\AppData\Local\Temp\ccjiUIWy.s 			page 82


 4618 0078 3846     		mov	r0, r7
 4619 007a FFF7FEFF 		bl	po8030_advanced_config
 4620              	.LVL506:
 4621              		.loc 2 755 0
 4622 007e 059A     		ldr	r2, [sp, #20]
 4623 0080 2368     		ldr	r3, [r4]
 4624              		.loc 2 754 0
 4625 0082 40B9     		cbnz	r0, .L469
 4626              		.loc 2 757 0
 4627 0084 9A42     		cmp	r2, r3
 4628 0086 10D1     		bne	.L468
 4629 0088 0E49     		ldr	r1, .L470+20
 4630 008a 3046     		mov	r0, r6
 4631              	.LVL507:
 4632              	.LBE266:
 4633              	.LBE265:
 4634              		.loc 2 760 0
 4635 008c 07B0     		add	sp, sp, #28
 4636              		.cfi_remember_state
 4637              		.cfi_def_cfa_offset 28
 4638              		@ sp needed
 4639 008e BDE8F043 		pop	{r4, r5, r6, r7, r8, r9, lr}
 4640              		.cfi_restore 14
 4641              		.cfi_restore 9
 4642              		.cfi_restore 8
 4643              		.cfi_restore 7
 4644              		.cfi_restore 6
 4645              		.cfi_restore 5
 4646              		.cfi_restore 4
 4647              		.cfi_def_cfa_offset 0
 4648              	.LVL508:
 4649              	.LBB269:
 4650              	.LBB267:
 4651              		.loc 2 757 0
 4652 0092 FFF7FEBF 		b	chprintf
 4653              	.LVL509:
 4654              	.L469:
 4655              		.cfi_restore_state
 4656              		.loc 2 755 0
 4657 0096 9A42     		cmp	r2, r3
 4658 0098 07D1     		bne	.L468
 4659 009a 0B49     		ldr	r1, .L470+24
 4660 009c 0246     		mov	r2, r0
 4661 009e 3046     		mov	r0, r6
 4662              	.LVL510:
 4663              	.LBE267:
 4664              	.LBE269:
 4665              		.loc 2 760 0
 4666 00a0 07B0     		add	sp, sp, #28
 4667              		.cfi_remember_state
 4668              		.cfi_def_cfa_offset 28
 4669              		@ sp needed
 4670 00a2 BDE8F043 		pop	{r4, r5, r6, r7, r8, r9, lr}
 4671              		.cfi_restore 14
 4672              		.cfi_restore 9
 4673              		.cfi_restore 8
 4674              		.cfi_restore 7
ARM GAS  C:\Users\shadi\AppData\Local\Temp\ccjiUIWy.s 			page 83


 4675              		.cfi_restore 6
 4676              		.cfi_restore 5
 4677              		.cfi_restore 4
 4678              		.cfi_def_cfa_offset 0
 4679              	.LVL511:
 4680              	.LBB270:
 4681              	.LBB268:
 4682              		.loc 2 755 0
 4683 00a6 FFF7FEBF 		b	chprintf
 4684              	.LVL512:
 4685              	.L468:
 4686              		.cfi_restore_state
 4687              		.loc 2 757 0
 4688 00aa FFF7FEFF 		bl	__stack_chk_fail
 4689              	.LVL513:
 4690              	.L471:
 4691 00ae 00BF     		.align	2
 4692              	.L470:
 4693 00b0 00000000 		.word	__stack_chk_guard
 4694 00b4 00000000 		.word	.LC94
 4695 00b8 00000000 		.word	.LANCHOR5
 4696 00bc 00000000 		.word	.LANCHOR2
 4697 00c0 00000000 		.word	.LANCHOR3
 4698 00c4 48000000 		.word	.LC96
 4699 00c8 28000000 		.word	.LC95
 4700 00cc 00000000 		.word	.LANCHOR6
 4701 00d0 00000000 		.word	.LANCHOR7
 4702 00d4 00000000 		.word	.LANCHOR4
 4703              	.LBE268:
 4704              	.LBE270:
 4705              		.cfi_endproc
 4706              	.LFE291:
 4707              		.size	cmd_cam_set_conf2, .-cmd_cam_set_conf2
 4708              		.section	.text.cmd_cam_set_contrast,"ax",%progbits
 4709              		.align	1
 4710              		.p2align 4,,15
 4711              		.syntax unified
 4712              		.thumb
 4713              		.thumb_func
 4714              		.fpu fpv4-sp-d16
 4715              		.type	cmd_cam_set_contrast, %function
 4716              	cmd_cam_set_contrast:
 4717              	.LFB289:
 4718              		.loc 2 680 0
 4719              		.cfi_startproc
 4720              		@ args = 0, pretend = 0, frame = 8
 4721              		@ frame_needed = 0, uses_anonymous_args = 0
 4722              	.LVL514:
 4723 0000 30B5     		push	{r4, r5, lr}
 4724              		.cfi_def_cfa_offset 12
 4725              		.cfi_offset 4, -12
 4726              		.cfi_offset 5, -8
 4727              		.cfi_offset 14, -4
 4728 0002 174C     		ldr	r4, .L483
 4729 0004 83B0     		sub	sp, sp, #12
 4730              		.cfi_def_cfa_offset 24
 4731              		.loc 2 680 0
ARM GAS  C:\Users\shadi\AppData\Local\Temp\ccjiUIWy.s 			page 84


 4732 0006 2368     		ldr	r3, [r4]
 4733 0008 0193     		str	r3, [sp, #4]
 4734              		.loc 2 683 0
 4735 000a 0129     		cmp	r1, #1
 4736 000c 09D0     		beq	.L473
 4737              		.loc 2 684 0
 4738 000e 019A     		ldr	r2, [sp, #4]
 4739              	.LVL515:
 4740 0010 2368     		ldr	r3, [r4]
 4741 0012 9A42     		cmp	r2, r3
 4742 0014 22D1     		bne	.L481
 4743 0016 1349     		ldr	r1, .L483+4
 4744              	.LVL516:
 4745              		.loc 2 695 0
 4746 0018 03B0     		add	sp, sp, #12
 4747              		.cfi_remember_state
 4748              		.cfi_def_cfa_offset 12
 4749              		@ sp needed
 4750 001a BDE83040 		pop	{r4, r5, lr}
 4751              		.cfi_restore 14
 4752              		.cfi_restore 5
 4753              		.cfi_restore 4
 4754              		.cfi_def_cfa_offset 0
 4755              	.LBB273:
 4756              	.LBB274:
 4757              		.loc 2 692 0
 4758 001e FFF7FEBF 		b	chprintf
 4759              	.LVL517:
 4760              	.L473:
 4761              		.cfi_restore_state
 4762 0022 0546     		mov	r5, r0
 4763              	.LVL518:
 4764              		.loc 2 687 0
 4765 0024 1068     		ldr	r0, [r2]
 4766              	.LVL519:
 4767 0026 FFF7FEFF 		bl	atoi
 4768              	.LVL520:
 4769              		.loc 2 688 0
 4770 002a C0B2     		uxtb	r0, r0
 4771 002c FFF7FEFF 		bl	po8030_set_contrast
 4772              	.LVL521:
 4773              		.loc 2 690 0
 4774 0030 019A     		ldr	r2, [sp, #4]
 4775 0032 2368     		ldr	r3, [r4]
 4776              		.loc 2 689 0
 4777 0034 40B9     		cbnz	r0, .L482
 4778              		.loc 2 692 0
 4779 0036 9A42     		cmp	r2, r3
 4780 0038 10D1     		bne	.L481
 4781 003a 0B49     		ldr	r1, .L483+8
 4782 003c 2846     		mov	r0, r5
 4783              	.LVL522:
 4784              	.LBE274:
 4785              	.LBE273:
 4786              		.loc 2 695 0
 4787 003e 03B0     		add	sp, sp, #12
 4788              		.cfi_remember_state
ARM GAS  C:\Users\shadi\AppData\Local\Temp\ccjiUIWy.s 			page 85


 4789              		.cfi_def_cfa_offset 12
 4790              		@ sp needed
 4791 0040 BDE83040 		pop	{r4, r5, lr}
 4792              		.cfi_restore 14
 4793              		.cfi_restore 5
 4794              		.cfi_restore 4
 4795              		.cfi_def_cfa_offset 0
 4796              	.LVL523:
 4797              	.LBB277:
 4798              	.LBB275:
 4799              		.loc 2 692 0
 4800 0044 FFF7FEBF 		b	chprintf
 4801              	.LVL524:
 4802              	.L482:
 4803              		.cfi_restore_state
 4804              		.loc 2 690 0
 4805 0048 9A42     		cmp	r2, r3
 4806 004a 07D1     		bne	.L481
 4807 004c 0749     		ldr	r1, .L483+12
 4808 004e 0246     		mov	r2, r0
 4809 0050 2846     		mov	r0, r5
 4810              	.LVL525:
 4811              	.LBE275:
 4812              	.LBE277:
 4813              		.loc 2 695 0
 4814 0052 03B0     		add	sp, sp, #12
 4815              		.cfi_remember_state
 4816              		.cfi_def_cfa_offset 12
 4817              		@ sp needed
 4818 0054 BDE83040 		pop	{r4, r5, lr}
 4819              		.cfi_restore 14
 4820              		.cfi_restore 5
 4821              		.cfi_restore 4
 4822              		.cfi_def_cfa_offset 0
 4823              	.LVL526:
 4824              	.LBB278:
 4825              	.LBB276:
 4826              		.loc 2 690 0
 4827 0058 FFF7FEBF 		b	chprintf
 4828              	.LVL527:
 4829              	.L481:
 4830              		.cfi_restore_state
 4831              		.loc 2 692 0
 4832 005c FFF7FEFF 		bl	__stack_chk_fail
 4833              	.LVL528:
 4834              	.L484:
 4835              		.align	2
 4836              	.L483:
 4837 0060 00000000 		.word	__stack_chk_guard
 4838 0064 00000000 		.word	.LC97
 4839 0068 5C000000 		.word	.LC99
 4840 006c 3C000000 		.word	.LC98
 4841              	.LBE276:
 4842              	.LBE278:
 4843              		.cfi_endproc
 4844              	.LFE289:
 4845              		.size	cmd_cam_set_contrast, .-cmd_cam_set_contrast
ARM GAS  C:\Users\shadi\AppData\Local\Temp\ccjiUIWy.s 			page 86


 4846              		.section	.text.cmd_cam_set_brightness,"ax",%progbits
 4847              		.align	1
 4848              		.p2align 4,,15
 4849              		.syntax unified
 4850              		.thumb
 4851              		.thumb_func
 4852              		.fpu fpv4-sp-d16
 4853              		.type	cmd_cam_set_brightness, %function
 4854              	cmd_cam_set_brightness:
 4855              	.LFB288:
 4856              		.loc 2 662 0
 4857              		.cfi_startproc
 4858              		@ args = 0, pretend = 0, frame = 8
 4859              		@ frame_needed = 0, uses_anonymous_args = 0
 4860              	.LVL529:
 4861 0000 30B5     		push	{r4, r5, lr}
 4862              		.cfi_def_cfa_offset 12
 4863              		.cfi_offset 4, -12
 4864              		.cfi_offset 5, -8
 4865              		.cfi_offset 14, -4
 4866 0002 174C     		ldr	r4, .L496
 4867 0004 83B0     		sub	sp, sp, #12
 4868              		.cfi_def_cfa_offset 24
 4869              		.loc 2 662 0
 4870 0006 2368     		ldr	r3, [r4]
 4871 0008 0193     		str	r3, [sp, #4]
 4872              		.loc 2 665 0
 4873 000a 0129     		cmp	r1, #1
 4874 000c 09D0     		beq	.L486
 4875              		.loc 2 666 0
 4876 000e 019A     		ldr	r2, [sp, #4]
 4877              	.LVL530:
 4878 0010 2368     		ldr	r3, [r4]
 4879 0012 9A42     		cmp	r2, r3
 4880 0014 22D1     		bne	.L494
 4881 0016 1349     		ldr	r1, .L496+4
 4882              	.LVL531:
 4883              		.loc 2 677 0
 4884 0018 03B0     		add	sp, sp, #12
 4885              		.cfi_remember_state
 4886              		.cfi_def_cfa_offset 12
 4887              		@ sp needed
 4888 001a BDE83040 		pop	{r4, r5, lr}
 4889              		.cfi_restore 14
 4890              		.cfi_restore 5
 4891              		.cfi_restore 4
 4892              		.cfi_def_cfa_offset 0
 4893              	.LBB281:
 4894              	.LBB282:
 4895              		.loc 2 674 0
 4896 001e FFF7FEBF 		b	chprintf
 4897              	.LVL532:
 4898              	.L486:
 4899              		.cfi_restore_state
 4900 0022 0546     		mov	r5, r0
 4901              	.LVL533:
 4902              		.loc 2 669 0
ARM GAS  C:\Users\shadi\AppData\Local\Temp\ccjiUIWy.s 			page 87


 4903 0024 1068     		ldr	r0, [r2]
 4904              	.LVL534:
 4905 0026 FFF7FEFF 		bl	atoi
 4906              	.LVL535:
 4907              		.loc 2 670 0
 4908 002a C0B2     		uxtb	r0, r0
 4909 002c FFF7FEFF 		bl	po8030_set_brightness
 4910              	.LVL536:
 4911              		.loc 2 672 0
 4912 0030 019A     		ldr	r2, [sp, #4]
 4913 0032 2368     		ldr	r3, [r4]
 4914              		.loc 2 671 0
 4915 0034 40B9     		cbnz	r0, .L495
 4916              		.loc 2 674 0
 4917 0036 9A42     		cmp	r2, r3
 4918 0038 10D1     		bne	.L494
 4919 003a 0B49     		ldr	r1, .L496+8
 4920 003c 2846     		mov	r0, r5
 4921              	.LVL537:
 4922              	.LBE282:
 4923              	.LBE281:
 4924              		.loc 2 677 0
 4925 003e 03B0     		add	sp, sp, #12
 4926              		.cfi_remember_state
 4927              		.cfi_def_cfa_offset 12
 4928              		@ sp needed
 4929 0040 BDE83040 		pop	{r4, r5, lr}
 4930              		.cfi_restore 14
 4931              		.cfi_restore 5
 4932              		.cfi_restore 4
 4933              		.cfi_def_cfa_offset 0
 4934              	.LVL538:
 4935              	.LBB285:
 4936              	.LBB283:
 4937              		.loc 2 674 0
 4938 0044 FFF7FEBF 		b	chprintf
 4939              	.LVL539:
 4940              	.L495:
 4941              		.cfi_restore_state
 4942              		.loc 2 672 0
 4943 0048 9A42     		cmp	r2, r3
 4944 004a 07D1     		bne	.L494
 4945 004c 0749     		ldr	r1, .L496+12
 4946 004e 0246     		mov	r2, r0
 4947 0050 2846     		mov	r0, r5
 4948              	.LVL540:
 4949              	.LBE283:
 4950              	.LBE285:
 4951              		.loc 2 677 0
 4952 0052 03B0     		add	sp, sp, #12
 4953              		.cfi_remember_state
 4954              		.cfi_def_cfa_offset 12
 4955              		@ sp needed
 4956 0054 BDE83040 		pop	{r4, r5, lr}
 4957              		.cfi_restore 14
 4958              		.cfi_restore 5
 4959              		.cfi_restore 4
ARM GAS  C:\Users\shadi\AppData\Local\Temp\ccjiUIWy.s 			page 88


 4960              		.cfi_def_cfa_offset 0
 4961              	.LVL541:
 4962              	.LBB286:
 4963              	.LBB284:
 4964              		.loc 2 672 0
 4965 0058 FFF7FEBF 		b	chprintf
 4966              	.LVL542:
 4967              	.L494:
 4968              		.cfi_restore_state
 4969              		.loc 2 674 0
 4970 005c FFF7FEFF 		bl	__stack_chk_fail
 4971              	.LVL543:
 4972              	.L497:
 4973              		.align	2
 4974              	.L496:
 4975 0060 00000000 		.word	__stack_chk_guard
 4976 0064 00000000 		.word	.LC100
 4977 0068 5C000000 		.word	.LC99
 4978 006c 3C000000 		.word	.LC98
 4979              	.LBE284:
 4980              	.LBE286:
 4981              		.cfi_endproc
 4982              	.LFE288:
 4983              		.size	cmd_cam_set_brightness, .-cmd_cam_set_brightness
 4984              		.section	.text.cmd_test,"ax",%progbits
 4985              		.align	1
 4986              		.p2align 4,,15
 4987              		.syntax unified
 4988              		.thumb
 4989              		.thumb_func
 4990              		.fpu fpv4-sp-d16
 4991              		.type	cmd_test, %function
 4992              	cmd_test:
 4993              	.LFB277:
 4994              		.loc 2 388 0
 4995              		.cfi_startproc
 4996              		@ args = 0, pretend = 0, frame = 8
 4997              		@ frame_needed = 0, uses_anonymous_args = 0
 4998              	.LVL544:
 4999 0000 30B5     		push	{r4, r5, lr}
 5000              		.cfi_def_cfa_offset 12
 5001              		.cfi_offset 4, -12
 5002              		.cfi_offset 5, -8
 5003              		.cfi_offset 14, -4
 5004 0002 184C     		ldr	r4, .L509
 5005 0004 85B0     		sub	sp, sp, #20
 5006              		.cfi_def_cfa_offset 32
 5007              		.loc 2 388 0
 5008 0006 2368     		ldr	r3, [r4]
 5009 0008 0393     		str	r3, [sp, #12]
 5010              		.loc 2 392 0
 5011 000a 0029     		cmp	r1, #0
 5012 000c 09DD     		ble	.L499
 5013              		.loc 2 393 0
 5014 000e 039A     		ldr	r2, [sp, #12]
 5015              	.LVL545:
 5016 0010 2368     		ldr	r3, [r4]
ARM GAS  C:\Users\shadi\AppData\Local\Temp\ccjiUIWy.s 			page 89


 5017 0012 9A42     		cmp	r2, r3
 5018 0014 23D1     		bne	.L507
 5019 0016 1449     		ldr	r1, .L509+4
 5020              	.LVL546:
 5021              		.loc 2 403 0
 5022 0018 05B0     		add	sp, sp, #20
 5023              		.cfi_remember_state
 5024              		.cfi_def_cfa_offset 12
 5025              		@ sp needed
 5026 001a BDE83040 		pop	{r4, r5, lr}
 5027              		.cfi_restore 14
 5028              		.cfi_restore 5
 5029              		.cfi_restore 4
 5030              		.cfi_def_cfa_offset 0
 5031              	.LBB293:
 5032              	.LBB294:
 5033              		.loc 2 399 0
 5034 001e FFF7FEBF 		b	chprintf
 5035              	.LVL547:
 5036              	.L499:
 5037              		.cfi_restore_state
 5038              	.LBB295:
 5039              	.LBB296:
 5040              	.LBB297:
 5041              	.LBB298:
 5042              		.file 3 "../../lib/e-puck2_main-processor/ChibiOS//os/rt/include/chthreads.h"
 5043              		.loc 3 176 0
 5044 0022 124A     		ldr	r2, .L509+8
 5045              	.LVL548:
 5046              	.LBE298:
 5047              	.LBE297:
 5048              	.LBE296:
 5049              	.LBE295:
 5050              		.loc 2 396 0
 5051 0024 124B     		ldr	r3, .L509+12
 5052              	.LBB300:
 5053              	.LBB299:
 5054              		.loc 3 189 0
 5055 0026 9269     		ldr	r2, [r2, #24]
 5056 0028 0546     		mov	r5, r0
 5057              	.LBE299:
 5058              	.LBE300:
 5059              		.loc 2 396 0
 5060 002a 9268     		ldr	r2, [r2, #8]
 5061 002c 0090     		str	r0, [sp]
 5062 002e 4FF41E71 		mov	r1, #632
 5063              	.LVL549:
 5064 0032 0020     		movs	r0, #0
 5065              	.LVL550:
 5066 0034 FFF7FEFF 		bl	chThdCreateFromHeap
 5067              	.LVL551:
 5068              		.loc 2 399 0
 5069 0038 039A     		ldr	r2, [sp, #12]
 5070 003a 2368     		ldr	r3, [r4]
 5071              		.loc 2 398 0
 5072 003c 30B1     		cbz	r0, .L508
 5073              		.loc 2 402 0
ARM GAS  C:\Users\shadi\AppData\Local\Temp\ccjiUIWy.s 			page 90


 5074 003e 9A42     		cmp	r2, r3
 5075 0040 0DD1     		bne	.L507
 5076              	.LBE294:
 5077              	.LBE293:
 5078              		.loc 2 403 0
 5079 0042 05B0     		add	sp, sp, #20
 5080              		.cfi_remember_state
 5081              		.cfi_def_cfa_offset 12
 5082              		@ sp needed
 5083 0044 BDE83040 		pop	{r4, r5, lr}
 5084              		.cfi_restore 14
 5085              		.cfi_restore 5
 5086              		.cfi_restore 4
 5087              		.cfi_def_cfa_offset 0
 5088              	.LVL552:
 5089              	.LBB303:
 5090              	.LBB301:
 5091              		.loc 2 402 0
 5092 0048 FFF7FEBF 		b	chThdWait
 5093              	.LVL553:
 5094              	.L508:
 5095              		.cfi_restore_state
 5096              		.loc 2 399 0
 5097 004c 9A42     		cmp	r2, r3
 5098 004e 06D1     		bne	.L507
 5099 0050 0849     		ldr	r1, .L509+16
 5100 0052 2846     		mov	r0, r5
 5101              	.LVL554:
 5102              	.LBE301:
 5103              	.LBE303:
 5104              		.loc 2 403 0
 5105 0054 05B0     		add	sp, sp, #20
 5106              		.cfi_remember_state
 5107              		.cfi_def_cfa_offset 12
 5108              		@ sp needed
 5109 0056 BDE83040 		pop	{r4, r5, lr}
 5110              		.cfi_restore 14
 5111              		.cfi_restore 5
 5112              		.cfi_restore 4
 5113              		.cfi_def_cfa_offset 0
 5114              	.LVL555:
 5115              	.LBB304:
 5116              	.LBB302:
 5117              		.loc 2 399 0
 5118 005a FFF7FEBF 		b	chprintf
 5119              	.LVL556:
 5120              	.L507:
 5121              		.cfi_restore_state
 5122              		.loc 2 402 0
 5123 005e FFF7FEFF 		bl	__stack_chk_fail
 5124              	.LVL557:
 5125              	.L510:
 5126 0062 00BF     		.align	2
 5127              	.L509:
 5128 0064 00000000 		.word	__stack_chk_guard
 5129 0068 00000000 		.word	.LC101
 5130 006c 00000000 		.word	ch
ARM GAS  C:\Users\shadi\AppData\Local\Temp\ccjiUIWy.s 			page 91


 5131 0070 00000000 		.word	TestThread
 5132 0074 10000000 		.word	.LC102
 5133              	.LBE302:
 5134              	.LBE304:
 5135              		.cfi_endproc
 5136              	.LFE277:
 5137              		.size	cmd_test, .-cmd_test
 5138              		.section	.text.cmd_threads,"ax",%progbits
 5139              		.align	1
 5140              		.p2align 4,,15
 5141              		.syntax unified
 5142              		.thumb
 5143              		.thumb_func
 5144              		.fpu fpv4-sp-d16
 5145              		.type	cmd_threads, %function
 5146              	cmd_threads:
 5147              	.LFB276:
 5148              		.loc 2 367 0
 5149              		.cfi_startproc
 5150              		@ args = 0, pretend = 0, frame = 8
 5151              		@ frame_needed = 0, uses_anonymous_args = 0
 5152              	.LVL558:
 5153 0000 2DE9F041 		push	{r4, r5, r6, r7, r8, lr}
 5154              		.cfi_def_cfa_offset 24
 5155              		.cfi_offset 4, -24
 5156              		.cfi_offset 5, -20
 5157              		.cfi_offset 6, -16
 5158              		.cfi_offset 7, -12
 5159              		.cfi_offset 8, -8
 5160              		.cfi_offset 14, -4
 5161 0004 DFF88880 		ldr	r8, .L519+16
 5162 0008 86B0     		sub	sp, sp, #24
 5163              		.cfi_def_cfa_offset 48
 5164              		.loc 2 367 0
 5165 000a D8F80030 		ldr	r3, [r8]
 5166 000e 0593     		str	r3, [sp, #20]
 5167              		.loc 2 372 0
 5168 0010 0029     		cmp	r1, #0
 5169 0012 0ADD     		ble	.L512
 5170              		.loc 2 373 0
 5171 0014 059A     		ldr	r2, [sp, #20]
 5172              	.LVL559:
 5173 0016 D8F80030 		ldr	r3, [r8]
 5174 001a 9A42     		cmp	r2, r3
 5175 001c 2DD1     		bne	.L518
 5176 001e 1849     		ldr	r1, .L519
 5177              	.LVL560:
 5178              		.loc 2 385 0
 5179 0020 06B0     		add	sp, sp, #24
 5180              		.cfi_remember_state
 5181              		.cfi_def_cfa_offset 24
 5182              		@ sp needed
 5183 0022 BDE8F041 		pop	{r4, r5, r6, r7, r8, lr}
 5184              		.cfi_restore 14
 5185              		.cfi_restore 8
 5186              		.cfi_restore 7
 5187              		.cfi_restore 6
ARM GAS  C:\Users\shadi\AppData\Local\Temp\ccjiUIWy.s 			page 92


 5188              		.cfi_restore 5
 5189              		.cfi_restore 4
 5190              		.cfi_def_cfa_offset 0
 5191              		.loc 2 373 0
 5192 0026 FFF7FEBF 		b	chprintf
 5193              	.LVL561:
 5194              	.L512:
 5195              		.cfi_restore_state
 5196              	.LBB307:
 5197              	.LBB308:
 5198              		.loc 2 376 0
 5199 002a 1649     		ldr	r1, .L519+4
 5200              	.LVL562:
 5201 002c 164F     		ldr	r7, .L519+8
 5202              		.loc 2 379 0
 5203 002e 174E     		ldr	r6, .L519+12
 5204 0030 0546     		mov	r5, r0
 5205              	.LVL563:
 5206              		.loc 2 376 0
 5207 0032 FFF7FEFF 		bl	chprintf
 5208              	.LVL564:
 5209              		.loc 2 377 0
 5210 0036 FFF7FEFF 		bl	chRegFirstThread
 5211              	.LVL565:
 5212 003a 0446     		mov	r4, r0
 5213              	.LVL566:
 5214              	.L514:
 5215              		.loc 2 382 0
 5216 003c 94F82020 		ldrb	r2, [r4, #32]	@ zero_extendqisi2
 5217              		.loc 2 379 0
 5218 0040 E368     		ldr	r3, [r4, #12]
 5219 0042 57F82220 		ldr	r2, [r7, r2, lsl #2]
 5220 0046 0292     		str	r2, [sp, #8]
 5221              		.loc 2 381 0
 5222 0048 94F82220 		ldrb	r2, [r4, #34]	@ zero_extendqisi2
 5223 004c 013A     		subs	r2, r2, #1
 5224              		.loc 2 379 0
 5225 004e 0192     		str	r2, [sp, #4]
 5226 0050 A268     		ldr	r2, [r4, #8]
 5227 0052 0092     		str	r2, [sp]
 5228 0054 3146     		mov	r1, r6
 5229 0056 2246     		mov	r2, r4
 5230 0058 2846     		mov	r0, r5
 5231              	.LVL567:
 5232 005a FFF7FEFF 		bl	chprintf
 5233              	.LVL568:
 5234              		.loc 2 383 0
 5235 005e 2046     		mov	r0, r4
 5236 0060 FFF7FEFF 		bl	chRegNextThread
 5237              	.LVL569:
 5238              		.loc 2 384 0
 5239 0064 0446     		mov	r4, r0
 5240 0066 0028     		cmp	r0, #0
 5241 0068 E8D1     		bne	.L514
 5242              	.LBE308:
 5243              	.LBE307:
 5244              		.loc 2 385 0
ARM GAS  C:\Users\shadi\AppData\Local\Temp\ccjiUIWy.s 			page 93


 5245 006a 059A     		ldr	r2, [sp, #20]
 5246 006c D8F80030 		ldr	r3, [r8]
 5247 0070 9A42     		cmp	r2, r3
 5248 0072 02D1     		bne	.L518
 5249 0074 06B0     		add	sp, sp, #24
 5250              		.cfi_remember_state
 5251              		.cfi_def_cfa_offset 24
 5252              		@ sp needed
 5253 0076 BDE8F081 		pop	{r4, r5, r6, r7, r8, pc}
 5254              	.LVL570:
 5255              	.L518:
 5256              		.cfi_restore_state
 5257 007a FFF7FEFF 		bl	__stack_chk_fail
 5258              	.LVL571:
 5259              	.L520:
 5260 007e 00BF     		.align	2
 5261              	.L519:
 5262 0080 00000000 		.word	.LC103
 5263 0084 14000000 		.word	.LC104
 5264 0088 00000000 		.word	.LANCHOR8
 5265 008c 48000000 		.word	.LC105
 5266 0090 00000000 		.word	__stack_chk_guard
 5267              		.cfi_endproc
 5268              	.LFE276:
 5269              		.size	cmd_threads, .-cmd_threads
 5270              		.section	.text.cmd_mem,"ax",%progbits
 5271              		.align	1
 5272              		.p2align 4,,15
 5273              		.syntax unified
 5274              		.thumb
 5275              		.thumb_func
 5276              		.fpu fpv4-sp-d16
 5277              		.type	cmd_mem, %function
 5278              	cmd_mem:
 5279              	.LFB275:
 5280              		.loc 2 352 0
 5281              		.cfi_startproc
 5282              		@ args = 0, pretend = 0, frame = 8
 5283              		@ frame_needed = 0, uses_anonymous_args = 0
 5284              	.LVL572:
 5285 0000 70B5     		push	{r4, r5, r6, lr}
 5286              		.cfi_def_cfa_offset 16
 5287              		.cfi_offset 4, -16
 5288              		.cfi_offset 5, -12
 5289              		.cfi_offset 6, -8
 5290              		.cfi_offset 14, -4
 5291 0002 144C     		ldr	r4, .L527
 5292 0004 82B0     		sub	sp, sp, #8
 5293              		.cfi_def_cfa_offset 24
 5294              		.loc 2 352 0
 5295 0006 2368     		ldr	r3, [r4]
 5296 0008 0193     		str	r3, [sp, #4]
 5297              		.loc 2 356 0
 5298 000a 0029     		cmp	r1, #0
 5299 000c 08DD     		ble	.L522
 5300              		.loc 2 357 0
 5301 000e 1249     		ldr	r1, .L527+4
ARM GAS  C:\Users\shadi\AppData\Local\Temp\ccjiUIWy.s 			page 94


 5302              	.LVL573:
 5303 0010 FFF7FEFF 		bl	chprintf
 5304              	.LVL574:
 5305              	.L521:
 5306              		.loc 2 364 0
 5307 0014 019A     		ldr	r2, [sp, #4]
 5308 0016 2368     		ldr	r3, [r4]
 5309 0018 9A42     		cmp	r2, r3
 5310 001a 19D1     		bne	.L526
 5311 001c 02B0     		add	sp, sp, #8
 5312              		.cfi_remember_state
 5313              		.cfi_def_cfa_offset 16
 5314              		@ sp needed
 5315 001e 70BD     		pop	{r4, r5, r6, pc}
 5316              	.LVL575:
 5317              	.L522:
 5318              		.cfi_restore_state
 5319 0020 0546     		mov	r5, r0
 5320              	.LVL576:
 5321              	.LBB311:
 5322              	.LBB312:
 5323              		.loc 2 360 0
 5324 0022 6946     		mov	r1, sp
 5325              	.LVL577:
 5326 0024 0020     		movs	r0, #0
 5327              	.LVL578:
 5328 0026 FFF7FEFF 		bl	chHeapStatus
 5329              	.LVL579:
 5330 002a 0646     		mov	r6, r0
 5331              	.LVL580:
 5332              		.loc 2 361 0
 5333 002c FFF7FEFF 		bl	chCoreGetStatusX
 5334              	.LVL581:
 5335 0030 0A49     		ldr	r1, .L527+8
 5336 0032 0246     		mov	r2, r0
 5337 0034 2846     		mov	r0, r5
 5338 0036 FFF7FEFF 		bl	chprintf
 5339              	.LVL582:
 5340              		.loc 2 362 0
 5341 003a 3246     		mov	r2, r6
 5342 003c 0849     		ldr	r1, .L527+12
 5343 003e 2846     		mov	r0, r5
 5344 0040 FFF7FEFF 		bl	chprintf
 5345              	.LVL583:
 5346              		.loc 2 363 0
 5347 0044 2846     		mov	r0, r5
 5348 0046 009A     		ldr	r2, [sp]
 5349 0048 0649     		ldr	r1, .L527+16
 5350 004a FFF7FEFF 		bl	chprintf
 5351              	.LVL584:
 5352 004e E1E7     		b	.L521
 5353              	.LVL585:
 5354              	.L526:
 5355              	.LBE312:
 5356              	.LBE311:
 5357              		.loc 2 364 0
 5358 0050 FFF7FEFF 		bl	__stack_chk_fail
ARM GAS  C:\Users\shadi\AppData\Local\Temp\ccjiUIWy.s 			page 95


 5359              	.LVL586:
 5360              	.L528:
 5361              		.align	2
 5362              	.L527:
 5363 0054 00000000 		.word	__stack_chk_guard
 5364 0058 00000000 		.word	.LC106
 5365 005c 10000000 		.word	.LC107
 5366 0060 30000000 		.word	.LC108
 5367 0064 4C000000 		.word	.LC109
 5368              		.cfi_endproc
 5369              	.LFE275:
 5370              		.size	cmd_mem, .-cmd_mem
 5371              		.section	.text.cmd_melody_play,"ax",%progbits
 5372              		.align	1
 5373              		.p2align 4,,15
 5374              		.syntax unified
 5375              		.thumb
 5376              		.thumb_func
 5377              		.fpu fpv4-sp-d16
 5378              		.type	cmd_melody_play, %function
 5379              	cmd_melody_play:
 5380              	.LFB273:
 5381              		.loc 2 318 0
 5382              		.cfi_startproc
 5383              		@ args = 0, pretend = 0, frame = 8
 5384              		@ frame_needed = 0, uses_anonymous_args = 0
 5385              	.LVL587:
 5386 0000 30B5     		push	{r4, r5, lr}
 5387              		.cfi_def_cfa_offset 12
 5388              		.cfi_offset 4, -12
 5389              		.cfi_offset 5, -8
 5390              		.cfi_offset 14, -4
 5391 0002 2F4D     		ldr	r5, .L536
 5392 0004 83B0     		sub	sp, sp, #12
 5393              		.cfi_def_cfa_offset 24
 5394              		.loc 2 318 0
 5395 0006 2B68     		ldr	r3, [r5]
 5396 0008 0193     		str	r3, [sp, #4]
 5397              		.loc 2 320 0
 5398 000a 0129     		cmp	r1, #1
 5399 000c 46D0     		beq	.L530
 5400 000e 0446     		mov	r4, r0
 5401              	.LVL588:
 5402              	.LBB315:
 5403              	.LBB316:
 5404              		.loc 2 321 0
 5405 0010 2C49     		ldr	r1, .L536+4
 5406              	.LVL589:
 5407 0012 FFF7FEFF 		bl	chprintf
 5408              	.LVL590:
 5409              		.loc 2 322 0
 5410 0016 2C49     		ldr	r1, .L536+8
 5411 0018 2046     		mov	r0, r4
 5412 001a FFF7FEFF 		bl	chprintf
 5413              	.LVL591:
 5414              		.loc 2 323 0
 5415 001e 2B49     		ldr	r1, .L536+12
ARM GAS  C:\Users\shadi\AppData\Local\Temp\ccjiUIWy.s 			page 96


 5416 0020 2046     		mov	r0, r4
 5417 0022 FFF7FEFF 		bl	chprintf
 5418              	.LVL592:
 5419              		.loc 2 324 0
 5420 0026 2A49     		ldr	r1, .L536+16
 5421 0028 2046     		mov	r0, r4
 5422 002a FFF7FEFF 		bl	chprintf
 5423              	.LVL593:
 5424              		.loc 2 325 0
 5425 002e 2949     		ldr	r1, .L536+20
 5426 0030 2046     		mov	r0, r4
 5427 0032 FFF7FEFF 		bl	chprintf
 5428              	.LVL594:
 5429              		.loc 2 326 0
 5430 0036 2849     		ldr	r1, .L536+24
 5431 0038 2046     		mov	r0, r4
 5432 003a FFF7FEFF 		bl	chprintf
 5433              	.LVL595:
 5434              		.loc 2 327 0
 5435 003e 2749     		ldr	r1, .L536+28
 5436 0040 2046     		mov	r0, r4
 5437 0042 FFF7FEFF 		bl	chprintf
 5438              	.LVL596:
 5439              		.loc 2 328 0
 5440 0046 2649     		ldr	r1, .L536+32
 5441 0048 2046     		mov	r0, r4
 5442 004a FFF7FEFF 		bl	chprintf
 5443              	.LVL597:
 5444              		.loc 2 329 0
 5445 004e 2549     		ldr	r1, .L536+36
 5446 0050 2046     		mov	r0, r4
 5447 0052 FFF7FEFF 		bl	chprintf
 5448              	.LVL598:
 5449              		.loc 2 330 0
 5450 0056 2449     		ldr	r1, .L536+40
 5451 0058 2046     		mov	r0, r4
 5452 005a FFF7FEFF 		bl	chprintf
 5453              	.LVL599:
 5454              		.loc 2 331 0
 5455 005e 2349     		ldr	r1, .L536+44
 5456 0060 2046     		mov	r0, r4
 5457 0062 FFF7FEFF 		bl	chprintf
 5458              	.LVL600:
 5459              		.loc 2 332 0
 5460 0066 2249     		ldr	r1, .L536+48
 5461 0068 2046     		mov	r0, r4
 5462 006a FFF7FEFF 		bl	chprintf
 5463              	.LVL601:
 5464              		.loc 2 333 0
 5465 006e 2149     		ldr	r1, .L536+52
 5466 0070 2046     		mov	r0, r4
 5467 0072 FFF7FEFF 		bl	chprintf
 5468              	.LVL602:
 5469              		.loc 2 334 0
 5470 0076 2049     		ldr	r1, .L536+56
 5471 0078 2046     		mov	r0, r4
 5472 007a FFF7FEFF 		bl	chprintf
ARM GAS  C:\Users\shadi\AppData\Local\Temp\ccjiUIWy.s 			page 97


 5473              	.LVL603:
 5474              		.loc 2 335 0
 5475 007e 1F49     		ldr	r1, .L536+60
 5476 0080 2046     		mov	r0, r4
 5477 0082 FFF7FEFF 		bl	chprintf
 5478              	.LVL604:
 5479              		.loc 2 336 0
 5480 0086 019A     		ldr	r2, [sp, #4]
 5481 0088 2B68     		ldr	r3, [r5]
 5482 008a 9A42     		cmp	r2, r3
 5483 008c 16D1     		bne	.L535
 5484 008e 1C49     		ldr	r1, .L536+64
 5485 0090 2046     		mov	r0, r4
 5486              	.LBE316:
 5487              	.LBE315:
 5488              		.loc 2 340 0
 5489 0092 03B0     		add	sp, sp, #12
 5490              		.cfi_remember_state
 5491              		.cfi_def_cfa_offset 12
 5492              		@ sp needed
 5493 0094 BDE83040 		pop	{r4, r5, lr}
 5494              		.cfi_restore 14
 5495              		.cfi_restore 5
 5496              		.cfi_restore 4
 5497              		.cfi_def_cfa_offset 0
 5498              	.LVL605:
 5499              	.LBB318:
 5500              	.LBB317:
 5501              		.loc 2 336 0
 5502 0098 FFF7FEBF 		b	chprintf
 5503              	.LVL606:
 5504              	.L530:
 5505              		.cfi_restore_state
 5506              	.LBE317:
 5507              	.LBE318:
 5508              		.loc 2 339 0
 5509 009c 1068     		ldr	r0, [r2]
 5510              	.LVL607:
 5511 009e FFF7FEFF 		bl	atoi
 5512              	.LVL608:
 5513 00a2 019A     		ldr	r2, [sp, #4]
 5514 00a4 2B68     		ldr	r3, [r5]
 5515 00a6 9A42     		cmp	r2, r3
 5516 00a8 08D1     		bne	.L535
 5517 00aa 0138     		subs	r0, r0, #1
 5518 00ac C0B2     		uxtb	r0, r0
 5519 00ae 0022     		movs	r2, #0
 5520 00b0 0221     		movs	r1, #2
 5521              		.loc 2 340 0
 5522 00b2 03B0     		add	sp, sp, #12
 5523              		.cfi_remember_state
 5524              		.cfi_def_cfa_offset 12
 5525              		@ sp needed
 5526 00b4 BDE83040 		pop	{r4, r5, lr}
 5527              		.cfi_restore 14
 5528              		.cfi_restore 5
 5529              		.cfi_restore 4
ARM GAS  C:\Users\shadi\AppData\Local\Temp\ccjiUIWy.s 			page 98


 5530              		.cfi_def_cfa_offset 0
 5531              		.loc 2 339 0
 5532 00b8 FFF7FEBF 		b	playMelody
 5533              	.LVL609:
 5534              	.L535:
 5535              		.cfi_restore_state
 5536 00bc FFF7FEFF 		bl	__stack_chk_fail
 5537              	.LVL610:
 5538              	.L537:
 5539              		.align	2
 5540              	.L536:
 5541 00c0 00000000 		.word	__stack_chk_guard
 5542 00c4 00000000 		.word	.LC110
 5543 00c8 24000000 		.word	.LC111
 5544 00cc 3C000000 		.word	.LC112
 5545 00d0 58000000 		.word	.LC113
 5546 00d4 74000000 		.word	.LC114
 5547 00d8 84000000 		.word	.LC115
 5548 00dc 90000000 		.word	.LC116
 5549 00e0 A4000000 		.word	.LC117
 5550 00e4 B8000000 		.word	.LC118
 5551 00e8 CC000000 		.word	.LC119
 5552 00ec E0000000 		.word	.LC120
 5553 00f0 F0000000 		.word	.LC121
 5554 00f4 10010000 		.word	.LC122
 5555 00f8 20010000 		.word	.LC123
 5556 00fc 30010000 		.word	.LC124
 5557 0100 44010000 		.word	.LC125
 5558              		.cfi_endproc
 5559              	.LFE273:
 5560              		.size	cmd_melody_play, .-cmd_melody_play
 5561              		.section	.text.cmd_sound_file_volume,"ax",%progbits
 5562              		.align	1
 5563              		.p2align 4,,15
 5564              		.syntax unified
 5565              		.thumb
 5566              		.thumb_func
 5567              		.fpu fpv4-sp-d16
 5568              		.type	cmd_sound_file_volume, %function
 5569              	cmd_sound_file_volume:
 5570              	.LFB272:
 5571              		.loc 2 307 0
 5572              		.cfi_startproc
 5573              		@ args = 0, pretend = 0, frame = 8
 5574              		@ frame_needed = 0, uses_anonymous_args = 0
 5575              	.LVL611:
 5576 0000 10B5     		push	{r4, lr}
 5577              		.cfi_def_cfa_offset 8
 5578              		.cfi_offset 4, -8
 5579              		.cfi_offset 14, -4
 5580 0002 0F4C     		ldr	r4, .L545
 5581 0004 82B0     		sub	sp, sp, #8
 5582              		.cfi_def_cfa_offset 16
 5583              		.loc 2 307 0
 5584 0006 2368     		ldr	r3, [r4]
 5585 0008 0193     		str	r3, [sp, #4]
 5586              		.loc 2 309 0
ARM GAS  C:\Users\shadi\AppData\Local\Temp\ccjiUIWy.s 			page 99


 5587 000a 0129     		cmp	r1, #1
 5588 000c 09D0     		beq	.L539
 5589              		.loc 2 310 0
 5590 000e 019A     		ldr	r2, [sp, #4]
 5591              	.LVL612:
 5592 0010 2368     		ldr	r3, [r4]
 5593 0012 9A42     		cmp	r2, r3
 5594 0014 12D1     		bne	.L544
 5595 0016 0B49     		ldr	r1, .L545+4
 5596              	.LVL613:
 5597              		.loc 2 315 0
 5598 0018 02B0     		add	sp, sp, #8
 5599              		.cfi_remember_state
 5600              		.cfi_def_cfa_offset 8
 5601              		@ sp needed
 5602 001a BDE81040 		pop	{r4, lr}
 5603              		.cfi_restore 14
 5604              		.cfi_restore 4
 5605              		.cfi_def_cfa_offset 0
 5606              		.loc 2 310 0
 5607 001e FFF7FEBF 		b	chprintf
 5608              	.LVL614:
 5609              	.L539:
 5610              		.cfi_restore_state
 5611              	.LBB321:
 5612              	.LBB322:
 5613              		.loc 2 314 0
 5614 0022 1068     		ldr	r0, [r2]
 5615              	.LVL615:
 5616 0024 FFF7FEFF 		bl	atoi
 5617              	.LVL616:
 5618 0028 019A     		ldr	r2, [sp, #4]
 5619 002a 2368     		ldr	r3, [r4]
 5620 002c 9A42     		cmp	r2, r3
 5621 002e 05D1     		bne	.L544
 5622 0030 C0B2     		uxtb	r0, r0
 5623              	.LBE322:
 5624              	.LBE321:
 5625              		.loc 2 315 0
 5626 0032 02B0     		add	sp, sp, #8
 5627              		.cfi_remember_state
 5628              		.cfi_def_cfa_offset 8
 5629              		@ sp needed
 5630 0034 BDE81040 		pop	{r4, lr}
 5631              		.cfi_restore 14
 5632              		.cfi_restore 4
 5633              		.cfi_def_cfa_offset 0
 5634              	.LBB324:
 5635              	.LBB323:
 5636              		.loc 2 314 0
 5637 0038 FFF7FEBF 		b	setSoundFileVolume
 5638              	.LVL617:
 5639              	.L544:
 5640              		.cfi_restore_state
 5641 003c FFF7FEFF 		bl	__stack_chk_fail
 5642              	.LVL618:
 5643              	.L546:
ARM GAS  C:\Users\shadi\AppData\Local\Temp\ccjiUIWy.s 			page 100


 5644              		.align	2
 5645              	.L545:
 5646 0040 00000000 		.word	__stack_chk_guard
 5647 0044 00000000 		.word	.LC126
 5648              	.LBE323:
 5649              	.LBE324:
 5650              		.cfi_endproc
 5651              	.LFE272:
 5652              		.size	cmd_sound_file_volume, .-cmd_sound_file_volume
 5653              		.section	.text.cmd_sound_file_play,"ax",%progbits
 5654              		.align	1
 5655              		.p2align 4,,15
 5656              		.syntax unified
 5657              		.thumb
 5658              		.thumb_func
 5659              		.fpu fpv4-sp-d16
 5660              		.type	cmd_sound_file_play, %function
 5661              	cmd_sound_file_play:
 5662              	.LFB270:
 5663              		.loc 2 286 0
 5664              		.cfi_startproc
 5665              		@ args = 0, pretend = 0, frame = 8
 5666              		@ frame_needed = 0, uses_anonymous_args = 0
 5667              	.LVL619:
 5668 0000 10B5     		push	{r4, lr}
 5669              		.cfi_def_cfa_offset 8
 5670              		.cfi_offset 4, -8
 5671              		.cfi_offset 14, -4
 5672 0002 0E4B     		ldr	r3, .L554
 5673 0004 82B0     		sub	sp, sp, #8
 5674              		.cfi_def_cfa_offset 16
 5675              		.loc 2 286 0
 5676 0006 1C68     		ldr	r4, [r3]
 5677 0008 0194     		str	r4, [sp, #4]
 5678              		.loc 2 288 0
 5679 000a 0129     		cmp	r1, #1
 5680 000c 09D0     		beq	.L548
 5681              		.loc 2 289 0
 5682 000e 019A     		ldr	r2, [sp, #4]
 5683              	.LVL620:
 5684 0010 1B68     		ldr	r3, [r3]
 5685 0012 9A42     		cmp	r2, r3
 5686 0014 10D1     		bne	.L553
 5687 0016 0A49     		ldr	r1, .L554+4
 5688              	.LVL621:
 5689              		.loc 2 295 0
 5690 0018 02B0     		add	sp, sp, #8
 5691              		.cfi_remember_state
 5692              		.cfi_def_cfa_offset 8
 5693              		@ sp needed
 5694 001a BDE81040 		pop	{r4, lr}
 5695              		.cfi_restore 14
 5696              		.cfi_restore 4
 5697              		.cfi_def_cfa_offset 0
 5698              		.loc 2 289 0
 5699 001e FFF7FEBF 		b	chprintf
 5700              	.LVL622:
ARM GAS  C:\Users\shadi\AppData\Local\Temp\ccjiUIWy.s 			page 101


 5701              	.L548:
 5702              		.cfi_restore_state
 5703              	.LBB327:
 5704              	.LBB328:
 5705              		.loc 2 293 0
 5706 0022 0199     		ldr	r1, [sp, #4]
 5707              	.LVL623:
 5708 0024 1B68     		ldr	r3, [r3]
 5709 0026 9942     		cmp	r1, r3
 5710 0028 06D1     		bne	.L553
 5711 002a 1068     		ldr	r0, [r2]
 5712              	.LVL624:
 5713 002c 0221     		movs	r1, #2
 5714              	.LBE328:
 5715              	.LBE327:
 5716              		.loc 2 295 0
 5717 002e 02B0     		add	sp, sp, #8
 5718              		.cfi_remember_state
 5719              		.cfi_def_cfa_offset 8
 5720              		@ sp needed
 5721 0030 BDE81040 		pop	{r4, lr}
 5722              		.cfi_restore 14
 5723              		.cfi_restore 4
 5724              		.cfi_def_cfa_offset 0
 5725              	.LBB330:
 5726              	.LBB329:
 5727              		.loc 2 293 0
 5728 0034 FFF7FEBF 		b	playSoundFile
 5729              	.LVL625:
 5730              	.L553:
 5731              		.cfi_restore_state
 5732 0038 FFF7FEFF 		bl	__stack_chk_fail
 5733              	.LVL626:
 5734              	.L555:
 5735              		.align	2
 5736              	.L554:
 5737 003c 00000000 		.word	__stack_chk_guard
 5738 0040 00000000 		.word	.LC127
 5739              	.LBE329:
 5740              	.LBE330:
 5741              		.cfi_endproc
 5742              	.LFE270:
 5743              		.size	cmd_sound_file_play, .-cmd_sound_file_play
 5744              		.section	.text.cmd_atan2,"ax",%progbits
 5745              		.align	1
 5746              		.p2align 4,,15
 5747              		.syntax unified
 5748              		.thumb
 5749              		.thumb_func
 5750              		.fpu fpv4-sp-d16
 5751              		.type	cmd_atan2, %function
 5752              	cmd_atan2:
 5753              	.LFB280:
 5754              		.loc 2 462 0
 5755              		.cfi_startproc
 5756              		@ args = 0, pretend = 0, frame = 32
 5757              		@ frame_needed = 0, uses_anonymous_args = 0
ARM GAS  C:\Users\shadi\AppData\Local\Temp\ccjiUIWy.s 			page 102


 5758              	.LVL627:
 5759 0000 2DE9F041 		push	{r4, r5, r6, r7, r8, lr}
 5760              		.cfi_def_cfa_offset 24
 5761              		.cfi_offset 4, -24
 5762              		.cfi_offset 5, -20
 5763              		.cfi_offset 6, -16
 5764              		.cfi_offset 7, -12
 5765              		.cfi_offset 8, -8
 5766              		.cfi_offset 14, -4
 5767 0004 3D4C     		ldr	r4, .L572
 5768 0006 8AB0     		sub	sp, sp, #40
 5769              		.cfi_def_cfa_offset 64
 5770              		.loc 2 462 0
 5771 0008 0F46     		mov	r7, r1
 5772 000a 2368     		ldr	r3, [r4]
 5773 000c 0993     		str	r3, [sp, #36]
 5774 000e 0546     		mov	r5, r0
 5775              		.loc 2 465 0
 5776 0010 02A8     		add	r0, sp, #8
 5777              	.LVL628:
 5778              		.loc 2 462 0
 5779 0012 1646     		mov	r6, r2
 5780              		.loc 2 465 0
 5781 0014 FFF7FEFF 		bl	chTMObjectInit
 5782              	.LVL629:
 5783              		.loc 2 467 0
 5784 0018 032F     		cmp	r7, #3
 5785 001a 0AD0     		beq	.L557
 5786              		.loc 2 468 0
 5787 001c 2846     		mov	r0, r5
 5788 001e 3849     		ldr	r1, .L572+4
 5789 0020 FFF7FEFF 		bl	chprintf
 5790              	.LVL630:
 5791              	.L556:
 5792              		.loc 2 491 0
 5793 0024 099A     		ldr	r2, [sp, #36]
 5794 0026 2368     		ldr	r3, [r4]
 5795 0028 9A42     		cmp	r2, r3
 5796 002a 65D1     		bne	.L570
 5797 002c 0AB0     		add	sp, sp, #40
 5798              		.cfi_remember_state
 5799              		.cfi_def_cfa_offset 24
 5800              		@ sp needed
 5801 002e BDE8F081 		pop	{r4, r5, r6, r7, r8, pc}
 5802              	.LVL631:
 5803              	.L557:
 5804              		.cfi_restore_state
 5805              		.loc 2 470 0
 5806 0032 7068     		ldr	r0, [r6, #4]
 5807 0034 FFF7FEFF 		bl	atoi
 5808              	.LVL632:
 5809 0038 07B2     		sxth	r7, r0
 5810              	.LVL633:
 5811              		.loc 2 471 0
 5812 003a B068     		ldr	r0, [r6, #8]
 5813 003c FFF7FEFF 		bl	atoi
 5814              	.LVL634:
ARM GAS  C:\Users\shadi\AppData\Local\Temp\ccjiUIWy.s 			page 103


 5815              		.loc 2 473 0
 5816 0040 3049     		ldr	r1, .L572+8
 5817              		.loc 2 471 0
 5818 0042 0FFA80F8 		sxth	r8, r0
 5819              	.LVL635:
 5820              		.loc 2 473 0
 5821 0046 3068     		ldr	r0, [r6]
 5822 0048 FFF7FEFF 		bl	strcmp
 5823              	.LVL636:
 5824              	.LBB351:
 5825              	.LBB352:
 5826              	.LBB353:
 5827              	.LBB354:
 5828              	.LBB355:
 5829              		.file 4 "../../lib/e-puck2_main-processor/ChibiOS//os/ext/CMSIS/include/core_cmFunc.h"
 5830              		.loc 4 546 0
 5831 004c 2023     		movs	r3, #32
 5832              	.LBE355:
 5833              	.LBE354:
 5834              	.LBE353:
 5835              	.LBE352:
 5836              	.LBE351:
 5837              		.loc 2 473 0
 5838 004e 0028     		cmp	r0, #0
 5839 0050 42D0     		beq	.L571
 5840              	.LVL637:
 5841              	.LBB360:
 5842              	.LBB361:
 5843              	.LBB362:
 5844              	.LBB363:
 5845              	.LBB364:
 5846              		.loc 4 546 0
 5847              		.syntax unified
 5848              	@ 546 "../../lib/e-puck2_main-processor/ChibiOS//os/ext/CMSIS/include/core_cmFunc.h" 1
 5849 0052 83F31188 		MSR basepri, r3
 5850              	@ 0 "" 2
 5851              	.LVL638:
 5852              		.thumb
 5853              		.syntax unified
 5854              	.LBE364:
 5855              	.LBE363:
 5856              	.LBE362:
 5857              		.file 5 "../../lib/e-puck2_main-processor/ChibiOS//os/rt/include/chsys.h"
 5858              		.loc 5 349 0
 5859 0056 FFF7FEFF 		bl	_stats_start_measure_crit_thd
 5860              	.LVL639:
 5861              		.loc 5 350 0
 5862 005a FFF7FEFF 		bl	_dbg_check_lock
 5863              	.LVL640:
 5864              	.LBE361:
 5865              	.LBE360:
 5866              		.loc 2 481 0
 5867 005e 02A8     		add	r0, sp, #8
 5868 0060 FFF7FEFF 		bl	chTMStartMeasurementX
 5869              	.LVL641:
 5870              		.loc 2 482 0
 5871 0064 07EE908A 		vmov	s15, r8	@ int
ARM GAS  C:\Users\shadi\AppData\Local\Temp\ccjiUIWy.s 			page 104


 5872 0068 F8EEE70A 		vcvt.f32.s32	s1, s15
 5873 006c 07EE907A 		vmov	s15, r7	@ int
 5874 0070 B8EEE70A 		vcvt.f32.s32	s0, s15
 5875 0074 FFF7FEFF 		bl	atan2f
 5876              	.LVL642:
 5877 0078 DFED237A 		vldr.32	s15, .L572+12
 5878 007c 9FED237A 		vldr.32	s14, .L572+16
 5879 0080 20EE270A 		vmul.f32	s0, s0, s15
 5880              		.loc 2 483 0
 5881 0084 02A8     		add	r0, sp, #8
 5882              		.loc 2 482 0
 5883 0086 C0EE077A 		vdiv.f32	s15, s0, s14
 5884 008a FDEEE77A 		vcvt.s32.f32	s15, s15
 5885 008e 17EE903A 		vmov	r3, s15	@ int
 5886 0092 1EB2     		sxth	r6, r3
 5887              	.LVL643:
 5888              	.L569:
 5889              		.loc 2 483 0
 5890 0094 FFF7FEFF 		bl	chTMStopMeasurementX
 5891              	.LVL644:
 5892              	.LBB365:
 5893              	.LBB366:
 5894              		.loc 5 360 0
 5895 0098 FFF7FEFF 		bl	_dbg_check_unlock
 5896              	.LVL645:
 5897              		.loc 5 361 0
 5898 009c FFF7FEFF 		bl	_stats_stop_measure_crit_thd
 5899              	.LVL646:
 5900              		.loc 5 367 0
 5901 00a0 1B4B     		ldr	r3, .L572+20
 5902 00a2 1A68     		ldr	r2, [r3]
 5903 00a4 9A42     		cmp	r2, r3
 5904 00a6 07D0     		beq	.L562
 5905 00a8 9969     		ldr	r1, [r3, #24]
 5906 00aa 9368     		ldr	r3, [r2, #8]
 5907 00ac 8A68     		ldr	r2, [r1, #8]
 5908 00ae 9A42     		cmp	r2, r3
 5909 00b0 02D2     		bcs	.L562
 5910 00b2 1848     		ldr	r0, .L572+24
 5911 00b4 FFF7FEFF 		bl	chSysHalt
 5912              	.LVL647:
 5913              	.L562:
 5914              	.LBB367:
 5915              	.LBB368:
 5916              	.LBB369:
 5917              		.loc 4 546 0
 5918 00b8 0023     		movs	r3, #0
 5919              		.syntax unified
 5920              	@ 546 "../../lib/e-puck2_main-processor/ChibiOS//os/ext/CMSIS/include/core_cmFunc.h" 1
 5921 00ba 83F31188 		MSR basepri, r3
 5922              	@ 0 "" 2
 5923              	.LVL648:
 5924              		.thumb
 5925              		.syntax unified
 5926              	.LBE369:
 5927              	.LBE368:
 5928              	.LBE367:
ARM GAS  C:\Users\shadi\AppData\Local\Temp\ccjiUIWy.s 			page 105


 5929              	.LBE366:
 5930              	.LBE365:
 5931              		.loc 2 488 0
 5932 00be 1649     		ldr	r1, .L572+28
 5933 00c0 0096     		str	r6, [sp]
 5934 00c2 3A46     		mov	r2, r7
 5935 00c4 4346     		mov	r3, r8
 5936 00c6 2846     		mov	r0, r5
 5937 00c8 FFF7FEFF 		bl	chprintf
 5938              	.LVL649:
 5939              		.loc 2 489 0
 5940 00cc 2846     		mov	r0, r5
 5941 00ce 049A     		ldr	r2, [sp, #16]
 5942 00d0 1249     		ldr	r1, .L572+32
 5943 00d2 FFF7FEFF 		bl	chprintf
 5944              	.LVL650:
 5945              		.loc 2 491 0
 5946 00d6 A5E7     		b	.L556
 5947              	.LVL651:
 5948              	.L571:
 5949              	.LBB370:
 5950              	.LBB359:
 5951              	.LBB358:
 5952              	.LBB357:
 5953              	.LBB356:
 5954              		.loc 4 546 0
 5955              		.syntax unified
 5956              	@ 546 "../../lib/e-puck2_main-processor/ChibiOS//os/ext/CMSIS/include/core_cmFunc.h" 1
 5957 00d8 83F31188 		MSR basepri, r3
 5958              	@ 0 "" 2
 5959              	.LVL652:
 5960              		.thumb
 5961              		.syntax unified
 5962              	.LBE356:
 5963              	.LBE357:
 5964              	.LBE358:
 5965              		.loc 5 349 0
 5966 00dc FFF7FEFF 		bl	_stats_start_measure_crit_thd
 5967              	.LVL653:
 5968              		.loc 5 350 0
 5969 00e0 FFF7FEFF 		bl	_dbg_check_lock
 5970              	.LVL654:
 5971              	.LBE359:
 5972              	.LBE370:
 5973              		.loc 2 475 0
 5974 00e4 02A8     		add	r0, sp, #8
 5975 00e6 FFF7FEFF 		bl	chTMStartMeasurementX
 5976              	.LVL655:
 5977              		.loc 2 476 0
 5978 00ea 4146     		mov	r1, r8
 5979 00ec 3846     		mov	r0, r7
 5980 00ee FFF7FEFF 		bl	aseba_atan2
 5981              	.LVL656:
 5982 00f2 0646     		mov	r6, r0
 5983              	.LVL657:
 5984              		.loc 2 477 0
 5985 00f4 02A8     		add	r0, sp, #8
ARM GAS  C:\Users\shadi\AppData\Local\Temp\ccjiUIWy.s 			page 106


 5986 00f6 CDE7     		b	.L569
 5987              	.LVL658:
 5988              	.L570:
 5989              		.loc 2 491 0
 5990 00f8 FFF7FEFF 		bl	__stack_chk_fail
 5991              	.LVL659:
 5992              	.L573:
 5993              		.align	2
 5994              	.L572:
 5995 00fc 00000000 		.word	__stack_chk_guard
 5996 0100 00000000 		.word	.LC128
 5997 0104 44000000 		.word	.LC129
 5998 0108 00000047 		.word	1191182336
 5999 010c DB0F4940 		.word	1078530011
 6000 0110 00000000 		.word	ch
 6001 0114 00000000 		.word	.LANCHOR9
 6002 0118 48000000 		.word	.LC130
 6003 011c 60000000 		.word	.LC131
 6004              		.cfi_endproc
 6005              	.LFE280:
 6006              		.size	cmd_atan2, .-cmd_atan2
 6007              		.section	.text.cmd_sqrt,"ax",%progbits
 6008              		.align	1
 6009              		.p2align 4,,15
 6010              		.syntax unified
 6011              		.thumb
 6012              		.thumb_func
 6013              		.fpu fpv4-sp-d16
 6014              		.type	cmd_sqrt, %function
 6015              	cmd_sqrt:
 6016              	.LFB279:
 6017              		.loc 2 417 0
 6018              		.cfi_startproc
 6019              		@ args = 0, pretend = 0, frame = 32
 6020              		@ frame_needed = 0, uses_anonymous_args = 0
 6021              	.LVL660:
 6022 0000 2DE9F041 		push	{r4, r5, r6, r7, r8, lr}
 6023              		.cfi_def_cfa_offset 24
 6024              		.cfi_offset 4, -24
 6025              		.cfi_offset 5, -20
 6026              		.cfi_offset 6, -16
 6027              		.cfi_offset 7, -12
 6028              		.cfi_offset 8, -8
 6029              		.cfi_offset 14, -4
 6030 0004 2DED028B 		vpush.64	{d8}
 6031              		.cfi_def_cfa_offset 32
 6032              		.cfi_offset 80, -32
 6033              		.cfi_offset 81, -28
 6034 0008 494C     		ldr	r4, .L598
 6035 000a 88B0     		sub	sp, sp, #32
 6036              		.cfi_def_cfa_offset 64
 6037              		.loc 2 417 0
 6038 000c 0D46     		mov	r5, r1
 6039 000e 2368     		ldr	r3, [r4]
 6040 0010 0793     		str	r3, [sp, #28]
 6041 0012 0646     		mov	r6, r0
 6042              		.loc 2 421 0
ARM GAS  C:\Users\shadi\AppData\Local\Temp\ccjiUIWy.s 			page 107


 6043 0014 6846     		mov	r0, sp
 6044              	.LVL661:
 6045              		.loc 2 417 0
 6046 0016 1746     		mov	r7, r2
 6047              		.loc 2 421 0
 6048 0018 FFF7FEFF 		bl	chTMObjectInit
 6049              	.LVL662:
 6050              		.loc 2 423 0
 6051 001c 022D     		cmp	r5, #2
 6052 001e 0CD0     		beq	.L575
 6053              		.loc 2 424 0
 6054 0020 3046     		mov	r0, r6
 6055 0022 4449     		ldr	r1, .L598+4
 6056 0024 FFF7FEFF 		bl	chprintf
 6057              	.LVL663:
 6058              	.L574:
 6059              		.loc 2 457 0
 6060 0028 079A     		ldr	r2, [sp, #28]
 6061 002a 2368     		ldr	r3, [r4]
 6062 002c 9A42     		cmp	r2, r3
 6063 002e 7DD1     		bne	.L594
 6064 0030 08B0     		add	sp, sp, #32
 6065              		.cfi_remember_state
 6066              		.cfi_def_cfa_offset 32
 6067              		@ sp needed
 6068 0032 BDEC028B 		vldm	sp!, {d8}
 6069              		.cfi_restore 80
 6070              		.cfi_restore 81
 6071              		.cfi_def_cfa_offset 24
 6072 0036 BDE8F081 		pop	{r4, r5, r6, r7, r8, pc}
 6073              	.LVL664:
 6074              	.L575:
 6075              		.cfi_restore_state
 6076              		.loc 2 427 0
 6077 003a 7868     		ldr	r0, [r7, #4]
 6078 003c FFF7FEFF 		bl	atoi
 6079              	.LVL665:
 6080              		.loc 2 429 0
 6081 0040 3D68     		ldr	r5, [r7]
 6082              	.LVL666:
 6083 0042 3D49     		ldr	r1, .L598+8
 6084              		.loc 2 427 0
 6085 0044 8046     		mov	r8, r0
 6086              	.LVL667:
 6087              		.loc 2 429 0
 6088 0046 2846     		mov	r0, r5
 6089 0048 FFF7FEFF 		bl	strcmp
 6090              	.LVL668:
 6091 004c 0028     		cmp	r0, #0
 6092 004e 59D0     		beq	.L595
 6093              		.loc 2 435 0
 6094 0050 2846     		mov	r0, r5
 6095 0052 3A49     		ldr	r1, .L598+12
 6096 0054 FFF7FEFF 		bl	strcmp
 6097              	.LVL669:
 6098              		.loc 2 427 0
 6099 0058 1FFA88F5 		uxth	r5, r8
ARM GAS  C:\Users\shadi\AppData\Local\Temp\ccjiUIWy.s 			page 108


 6100              	.LBB401:
 6101              	.LBB402:
 6102              	.LBB403:
 6103              	.LBB404:
 6104              	.LBB405:
 6105              		.loc 4 546 0
 6106 005c 2023     		movs	r3, #32
 6107              	.LBE405:
 6108              	.LBE404:
 6109              	.LBE403:
 6110              	.LBE402:
 6111              	.LBE401:
 6112              		.loc 2 435 0
 6113 005e 0028     		cmp	r0, #0
 6114 0060 36D0     		beq	.L596
 6115              	.LVL670:
 6116              	.LBB410:
 6117              	.LBB411:
 6118              	.LBB412:
 6119              	.LBB413:
 6120              	.LBB414:
 6121              		.loc 4 546 0
 6122              		.syntax unified
 6123              	@ 546 "../../lib/e-puck2_main-processor/ChibiOS//os/ext/CMSIS/include/core_cmFunc.h" 1
 6124 0062 83F31188 		MSR basepri, r3
 6125              	@ 0 "" 2
 6126              	.LVL671:
 6127              		.thumb
 6128              		.syntax unified
 6129              	.LBE414:
 6130              	.LBE413:
 6131              	.LBE412:
 6132              		.loc 5 349 0
 6133 0066 FFF7FEFF 		bl	_stats_start_measure_crit_thd
 6134              	.LVL672:
 6135              		.loc 5 350 0
 6136 006a FFF7FEFF 		bl	_dbg_check_lock
 6137              	.LVL673:
 6138              	.LBE411:
 6139              	.LBE410:
 6140              		.loc 2 443 0
 6141 006e 6846     		mov	r0, sp
 6142 0070 FFF7FEFF 		bl	chTMStartMeasurementX
 6143              	.LVL674:
 6144              		.loc 2 444 0
 6145 0074 07EE905A 		vmov	s15, r5	@ int
 6146 0078 B8EE670A 		vcvt.f32.u32	s0, s15
 6147              	.LVL675:
 6148              		.loc 2 445 0
 6149              		.syntax unified
 6150              	@ 445 "../../lib/e-puck2_main-processor/src/cmd.c" 1
 6151 007c B1EEC00A 		vsqrt.f32 s0, s0
 6152              	@ 0 "" 2
 6153              	.LVL676:
 6154              		.loc 2 449 0
 6155              		.thumb
 6156              		.syntax unified
ARM GAS  C:\Users\shadi\AppData\Local\Temp\ccjiUIWy.s 			page 109


 6157 0080 BCEEC00A 		vcvt.u32.f32	s0, s0
 6158              	.LVL677:
 6159              		.loc 2 450 0
 6160 0084 6846     		mov	r0, sp
 6161              		.loc 2 449 0
 6162 0086 10EE103A 		vmov	r3, s0	@ int
 6163              	.L593:
 6164 008a 9DB2     		uxth	r5, r3
 6165              	.L591:
 6166              	.LVL678:
 6167              		.loc 2 450 0
 6168 008c FFF7FEFF 		bl	chTMStopMeasurementX
 6169              	.LVL679:
 6170              	.LBB415:
 6171              	.LBB416:
 6172              		.loc 5 360 0
 6173 0090 FFF7FEFF 		bl	_dbg_check_unlock
 6174              	.LVL680:
 6175              		.loc 5 361 0
 6176 0094 FFF7FEFF 		bl	_stats_stop_measure_crit_thd
 6177              	.LVL681:
 6178              		.loc 5 367 0
 6179 0098 294B     		ldr	r3, .L598+16
 6180 009a 1A68     		ldr	r2, [r3]
 6181 009c 9A42     		cmp	r2, r3
 6182 009e 07D0     		beq	.L583
 6183 00a0 9969     		ldr	r1, [r3, #24]
 6184 00a2 9368     		ldr	r3, [r2, #8]
 6185 00a4 8A68     		ldr	r2, [r1, #8]
 6186 00a6 9A42     		cmp	r2, r3
 6187 00a8 02D2     		bcs	.L583
 6188 00aa 2648     		ldr	r0, .L598+20
 6189 00ac FFF7FEFF 		bl	chSysHalt
 6190              	.LVL682:
 6191              	.L583:
 6192              	.LBB417:
 6193              	.LBB418:
 6194              	.LBB419:
 6195              		.loc 4 546 0
 6196 00b0 0023     		movs	r3, #0
 6197              		.syntax unified
 6198              	@ 546 "../../lib/e-puck2_main-processor/ChibiOS//os/ext/CMSIS/include/core_cmFunc.h" 1
 6199 00b2 83F31188 		MSR basepri, r3
 6200              	@ 0 "" 2
 6201              	.LVL683:
 6202              		.thumb
 6203              		.syntax unified
 6204              	.LBE419:
 6205              	.LBE418:
 6206              	.LBE417:
 6207              	.LBE416:
 6208              	.LBE415:
 6209              		.loc 2 454 0
 6210 00b6 2449     		ldr	r1, .L598+24
 6211 00b8 1FFA88F2 		uxth	r2, r8
 6212 00bc 2B46     		mov	r3, r5
 6213 00be 3046     		mov	r0, r6
ARM GAS  C:\Users\shadi\AppData\Local\Temp\ccjiUIWy.s 			page 110


 6214 00c0 FFF7FEFF 		bl	chprintf
 6215              	.LVL684:
 6216              		.loc 2 455 0
 6217 00c4 3046     		mov	r0, r6
 6218 00c6 029A     		ldr	r2, [sp, #8]
 6219 00c8 2049     		ldr	r1, .L598+28
 6220 00ca FFF7FEFF 		bl	chprintf
 6221              	.LVL685:
 6222              		.loc 2 457 0
 6223 00ce ABE7     		b	.L574
 6224              	.LVL686:
 6225              	.L596:
 6226              	.LBB420:
 6227              	.LBB409:
 6228              	.LBB408:
 6229              	.LBB407:
 6230              	.LBB406:
 6231              		.loc 4 546 0
 6232              		.syntax unified
 6233              	@ 546 "../../lib/e-puck2_main-processor/ChibiOS//os/ext/CMSIS/include/core_cmFunc.h" 1
 6234 00d0 83F31188 		MSR basepri, r3
 6235              	@ 0 "" 2
 6236              	.LVL687:
 6237              		.thumb
 6238              		.syntax unified
 6239              	.LBE406:
 6240              	.LBE407:
 6241              	.LBE408:
 6242              		.loc 5 349 0
 6243 00d4 FFF7FEFF 		bl	_stats_start_measure_crit_thd
 6244              	.LVL688:
 6245              		.loc 5 350 0
 6246 00d8 FFF7FEFF 		bl	_dbg_check_lock
 6247              	.LVL689:
 6248              	.LBE409:
 6249              	.LBE420:
 6250              		.loc 2 437 0
 6251 00dc 6846     		mov	r0, sp
 6252 00de FFF7FEFF 		bl	chTMStartMeasurementX
 6253              	.LVL690:
 6254              		.loc 2 438 0
 6255 00e2 07EE905A 		vmov	s15, r5	@ int
 6256 00e6 B8EE670A 		vcvt.f32.u32	s0, s15
 6257 00ea B5EE400A 		vcmp.f32	s0, #0
 6258 00ee F1EE10FA 		vmrs	APSR_nzcv, FPSCR
 6259 00f2 B1EEC08A 		vsqrt.f32	s16, s0
 6260 00f6 16D4     		bmi	.L597
 6261              	.L581:
 6262              		.loc 2 439 0
 6263 00f8 6846     		mov	r0, sp
 6264              		.loc 2 438 0
 6265 00fa BCEEC88A 		vcvt.u32.f32	s16, s16
 6266 00fe 18EE103A 		vmov	r3, s16	@ int
 6267 0102 C2E7     		b	.L593
 6268              	.L595:
 6269              	.LVL691:
 6270              	.LBB421:
ARM GAS  C:\Users\shadi\AppData\Local\Temp\ccjiUIWy.s 			page 111


 6271              	.LBB422:
 6272              	.LBB423:
 6273              	.LBB424:
 6274              	.LBB425:
 6275              		.loc 4 546 0
 6276 0104 2023     		movs	r3, #32
 6277              		.syntax unified
 6278              	@ 546 "../../lib/e-puck2_main-processor/ChibiOS//os/ext/CMSIS/include/core_cmFunc.h" 1
 6279 0106 83F31188 		MSR basepri, r3
 6280              	@ 0 "" 2
 6281              	.LVL692:
 6282              		.thumb
 6283              		.syntax unified
 6284              	.LBE425:
 6285              	.LBE424:
 6286              	.LBE423:
 6287              		.loc 5 349 0
 6288 010a FFF7FEFF 		bl	_stats_start_measure_crit_thd
 6289              	.LVL693:
 6290              		.loc 5 350 0
 6291 010e FFF7FEFF 		bl	_dbg_check_lock
 6292              	.LVL694:
 6293              	.LBE422:
 6294              	.LBE421:
 6295              		.loc 2 431 0
 6296 0112 6846     		mov	r0, sp
 6297 0114 FFF7FEFF 		bl	chTMStartMeasurementX
 6298              	.LVL695:
 6299              		.loc 2 432 0
 6300 0118 0FFA88F0 		sxth	r0, r8
 6301 011c FFF7FEFF 		bl	aseba_sqrt
 6302              	.LVL696:
 6303 0120 85B2     		uxth	r5, r0
 6304              	.LVL697:
 6305              		.loc 2 433 0
 6306 0122 6846     		mov	r0, sp
 6307 0124 B2E7     		b	.L591
 6308              	.LVL698:
 6309              	.L597:
 6310              		.loc 2 438 0
 6311 0126 FFF7FEFF 		bl	sqrtf
 6312              	.LVL699:
 6313 012a E5E7     		b	.L581
 6314              	.LVL700:
 6315              	.L594:
 6316              		.loc 2 457 0
 6317 012c FFF7FEFF 		bl	__stack_chk_fail
 6318              	.LVL701:
 6319              	.L599:
 6320              		.align	2
 6321              	.L598:
 6322 0130 00000000 		.word	__stack_chk_guard
 6323 0134 00000000 		.word	.LC132
 6324 0138 44000000 		.word	.LC129
 6325 013c 54000000 		.word	.LC133
 6326 0140 00000000 		.word	ch
 6327 0144 00000000 		.word	.LANCHOR9
ARM GAS  C:\Users\shadi\AppData\Local\Temp\ccjiUIWy.s 			page 112


 6328 0148 58000000 		.word	.LC134
 6329 014c 60000000 		.word	.LC131
 6330              		.cfi_endproc
 6331              	.LFE279:
 6332              		.size	cmd_sqrt, .-cmd_sqrt
 6333              		.section	.text.cmd_sdc,"ax",%progbits
 6334              		.align	1
 6335              		.p2align 4,,15
 6336              		.global	cmd_sdc
 6337              		.syntax unified
 6338              		.thumb
 6339              		.thumb_func
 6340              		.fpu fpv4-sp-d16
 6341              		.type	cmd_sdc, %function
 6342              	cmd_sdc:
 6343              	.LFB308:
 6344              		.loc 2 1031 0
 6345              		.cfi_startproc
 6346              		@ args = 0, pretend = 0, frame = 16
 6347              		@ frame_needed = 0, uses_anonymous_args = 0
 6348              	.LVL702:
 6349 0000 2DE9F04F 		push	{r4, r5, r6, r7, r8, r9, r10, fp, lr}
 6350              		.cfi_def_cfa_offset 36
 6351              		.cfi_offset 4, -36
 6352              		.cfi_offset 5, -32
 6353              		.cfi_offset 6, -28
 6354              		.cfi_offset 7, -24
 6355              		.cfi_offset 8, -20
 6356              		.cfi_offset 9, -16
 6357              		.cfi_offset 10, -12
 6358              		.cfi_offset 11, -8
 6359              		.cfi_offset 14, -4
 6360 0004 DFF86C93 		ldr	r9, .L684+104
 6361 0008 87B0     		sub	sp, sp, #28
 6362              		.cfi_def_cfa_offset 64
 6363              		.loc 2 1031 0
 6364 000a D9F80030 		ldr	r3, [r9]
 6365 000e 0593     		str	r3, [sp, #20]
 6366              		.loc 2 1036 0
 6367 0010 0129     		cmp	r1, #1
 6368              		.loc 2 1031 0
 6369 0012 0292     		str	r2, [sp, #8]
 6370              		.loc 2 1036 0
 6371 0014 40F06D81 		bne	.L672
 6372              		.loc 2 1042 0
 6373 0018 BC4D     		ldr	r5, .L684
 6374 001a 2B68     		ldr	r3, [r5]
 6375 001c 0746     		mov	r7, r0
 6376 001e 1B68     		ldr	r3, [r3]
 6377 0020 2846     		mov	r0, r5
 6378              	.LVL703:
 6379 0022 9847     		blx	r3
 6380              	.LVL704:
 6381 0024 0028     		cmp	r0, #0
 6382 0026 00F0EA80 		beq	.L673
 6383              		.loc 2 1048 0
 6384 002a B949     		ldr	r1, .L684+4
ARM GAS  C:\Users\shadi\AppData\Local\Temp\ccjiUIWy.s 			page 113


 6385 002c 3846     		mov	r0, r7
 6386 002e FFF7FEFF 		bl	chprintf
 6387              	.LVL705:
 6388              		.loc 2 1049 0
 6389 0032 2846     		mov	r0, r5
 6390 0034 FFF7FEFF 		bl	sdcConnect
 6391              	.LVL706:
 6392 0038 0028     		cmp	r0, #0
 6393 003a 40F0ED80 		bne	.L674
 6394              	.LVL707:
 6395              	.LBB558:
 6396              	.LBB559:
 6397              		.loc 2 1054 0
 6398 003e B549     		ldr	r1, .L684+8
 6399 0040 3846     		mov	r0, r7
 6400 0042 FFF7FEFF 		bl	chprintf
 6401              	.LVL708:
 6402              		.loc 2 1055 0
 6403 0046 D5E90601 		ldrd	r0, r1, [r5, #24]
 6404 004a D5E90832 		ldrd	r3, r2, [r5, #32]
 6405 004e CDE90010 		strd	r1, r0, [sp]
 6406 0052 B149     		ldr	r1, .L684+12
 6407 0054 3846     		mov	r0, r7
 6408 0056 FFF7FEFF 		bl	chprintf
 6409              	.LVL709:
 6410              		.loc 2 1057 0
 6411 005a D5E90201 		ldrd	r0, r1, [r5, #8]
 6412 005e D5E90432 		ldrd	r3, r2, [r5, #16]
 6413 0062 CDE90010 		strd	r1, r0, [sp]
 6414 0066 AD49     		ldr	r1, .L684+16
 6415 0068 3846     		mov	r0, r7
 6416 006a FFF7FEFF 		bl	chprintf
 6417              	.LVL710:
 6418              		.loc 2 1059 0
 6419 006e 2B6B     		ldr	r3, [r5, #48]
 6420 0070 AB4A     		ldr	r2, .L684+20
 6421 0072 AC49     		ldr	r1, .L684+24
 6422 0074 03F00303 		and	r3, r3, #3
 6423 0078 3846     		mov	r0, r7
 6424 007a 52F82320 		ldr	r2, [r2, r3, lsl #2]
 6425 007e FFF7FEFF 		bl	chprintf
 6426              	.LVL711:
 6427              		.loc 2 1060 0
 6428 0082 AA6A     		ldr	r2, [r5, #40]
 6429 0084 A849     		ldr	r1, .L684+28
 6430 0086 D20A     		lsrs	r2, r2, #11
 6431 0088 3846     		mov	r0, r7
 6432 008a FFF7FEFF 		bl	chprintf
 6433              	.LVL712:
 6434              		.loc 2 1065 0
 6435 008e 029B     		ldr	r3, [sp, #8]
 6436 0090 A649     		ldr	r1, .L684+32
 6437 0092 1C68     		ldr	r4, [r3]
 6438              		.loc 2 1063 0
 6439 0094 AB6A     		ldr	r3, [r5, #40]
 6440              		.loc 2 1065 0
 6441 0096 2046     		mov	r0, r4
ARM GAS  C:\Users\shadi\AppData\Local\Temp\ccjiUIWy.s 			page 114


 6442              		.loc 2 1063 0
 6443 0098 4FEA932B 		lsr	fp, r3, #10
 6444              	.LVL713:
 6445              		.loc 2 1065 0
 6446 009c FFF7FEFF 		bl	strcmp
 6447              	.LVL714:
 6448 00a0 0028     		cmp	r0, #0
 6449 00a2 00F0C680 		beq	.L607
 6450              		.loc 2 1066 0
 6451 00a6 A249     		ldr	r1, .L684+36
 6452 00a8 2046     		mov	r0, r4
 6453 00aa FFF7FEFF 		bl	strcmp
 6454              	.LVL715:
 6455              		.loc 2 1065 0
 6456 00ae 0028     		cmp	r0, #0
 6457 00b0 00F0BF80 		beq	.L607
 6458              		.loc 2 1127 0
 6459 00b4 9F49     		ldr	r1, .L684+40
 6460 00b6 2046     		mov	r0, r4
 6461 00b8 FFF7FEFF 		bl	strcmp
 6462              	.LVL716:
 6463 00bc 0028     		cmp	r0, #0
 6464 00be 40F02282 		bne	.L625
 6465              	.LVL717:
 6466              	.L624:
 6467              	.LBB560:
 6468              		.loc 2 1131 0
 6469 00c2 9D4C     		ldr	r4, .L684+44
 6470 00c4 4FF48062 		mov	r2, #1024
 6471 00c8 AA21     		movs	r1, #170
 6472 00ca 2046     		mov	r0, r4
 6473 00cc FFF7FEFF 		bl	memset
 6474              	.LVL718:
 6475              		.loc 2 1132 0
 6476 00d0 9A49     		ldr	r1, .L684+48
 6477 00d2 3846     		mov	r0, r7
 6478 00d4 FFF7FEFF 		bl	chprintf
 6479              	.LVL719:
 6480              		.loc 2 1133 0
 6481 00d8 2246     		mov	r2, r4
 6482 00da 0223     		movs	r3, #2
 6483 00dc 5946     		mov	r1, fp
 6484 00de 8B48     		ldr	r0, .L684
 6485 00e0 FFF7FEFF 		bl	sdcWrite
 6486              	.LVL720:
 6487 00e4 0028     		cmp	r0, #0
 6488 00e6 40F0F480 		bne	.L615
 6489              		.loc 2 1137 0
 6490 00ea 9549     		ldr	r1, .L684+52
 6491 00ec 3846     		mov	r0, r7
 6492 00ee FFF7FEFF 		bl	chprintf
 6493              	.LVL721:
 6494              		.loc 2 1139 0
 6495 00f2 4FF48062 		mov	r2, #1024
 6496 00f6 5521     		movs	r1, #85
 6497 00f8 2046     		mov	r0, r4
 6498 00fa FFF7FEFF 		bl	memset
ARM GAS  C:\Users\shadi\AppData\Local\Temp\ccjiUIWy.s 			page 115


 6499              	.LVL722:
 6500              		.loc 2 1140 0
 6501 00fe 9149     		ldr	r1, .L684+56
 6502 0100 3846     		mov	r0, r7
 6503 0102 FFF7FEFF 		bl	chprintf
 6504              	.LVL723:
 6505              		.loc 2 1141 0
 6506 0106 2B68     		ldr	r3, [r5]
 6507 0108 8048     		ldr	r0, .L684
 6508 010a 1E69     		ldr	r6, [r3, #16]
 6509 010c 2246     		mov	r2, r4
 6510 010e 0123     		movs	r3, #1
 6511 0110 5946     		mov	r1, fp
 6512 0112 B047     		blx	r6
 6513              	.LVL724:
 6514 0114 0028     		cmp	r0, #0
 6515 0116 40F0DC80 		bne	.L615
 6516              		.loc 2 1145 0
 6517 011a 8949     		ldr	r1, .L684+52
 6518 011c 3846     		mov	r0, r7
 6519 011e FFF7FEFF 		bl	chprintf
 6520              	.LVL725:
 6521 0122 621E     		subs	r2, r4, #1
 6522 0124 04F2FF11 		addw	r1, r4, #511
 6523 0128 0823     		movs	r3, #8
 6524              	.LVL726:
 6525              	.L626:
 6526              		.loc 2 1148 0
 6527 012a 02F8013F 		strb	r3, [r2, #1]!
 6528              	.LVL727:
 6529 012e 0133     		adds	r3, r3, #1
 6530              		.loc 2 1147 0
 6531 0130 9142     		cmp	r1, r2
 6532 0132 DBB2     		uxtb	r3, r3
 6533 0134 F9D1     		bne	.L626
 6534              		.loc 2 1149 0
 6535 0136 8149     		ldr	r1, .L684+48
 6536 0138 3846     		mov	r0, r7
 6537 013a FFF7FEFF 		bl	chprintf
 6538              	.LVL728:
 6539              		.loc 2 1150 0
 6540 013e 0223     		movs	r3, #2
 6541 0140 7D4A     		ldr	r2, .L684+44
 6542 0142 7248     		ldr	r0, .L684
 6543 0144 5946     		mov	r1, fp
 6544 0146 FFF7FEFF 		bl	sdcWrite
 6545              	.LVL729:
 6546 014a 0646     		mov	r6, r0
 6547 014c 0028     		cmp	r0, #0
 6548 014e 40F0C080 		bne	.L615
 6549              		.loc 2 1154 0
 6550 0152 7B49     		ldr	r1, .L684+52
 6551 0154 3846     		mov	r0, r7
 6552 0156 FFF7FEFF 		bl	chprintf
 6553              	.LVL730:
 6554              		.loc 2 1156 0
 6555 015a 4FF48062 		mov	r2, #1024
ARM GAS  C:\Users\shadi\AppData\Local\Temp\ccjiUIWy.s 			page 116


 6556 015e 3146     		mov	r1, r6
 6557 0160 7548     		ldr	r0, .L684+44
 6558 0162 FFF7FEFF 		bl	memset
 6559              	.LVL731:
 6560              		.loc 2 1157 0
 6561 0166 7749     		ldr	r1, .L684+56
 6562 0168 3846     		mov	r0, r7
 6563 016a FFF7FEFF 		bl	chprintf
 6564              	.LVL732:
 6565              		.loc 2 1158 0
 6566 016e 2B68     		ldr	r3, [r5]
 6567 0170 714A     		ldr	r2, .L684+44
 6568 0172 1D69     		ldr	r5, [r3, #16]
 6569 0174 6548     		ldr	r0, .L684
 6570 0176 0123     		movs	r3, #1
 6571 0178 5946     		mov	r1, fp
 6572 017a A847     		blx	r5
 6573              	.LVL733:
 6574 017c 0028     		cmp	r0, #0
 6575 017e 40F0A880 		bne	.L615
 6576              		.loc 2 1162 0
 6577 0182 6F49     		ldr	r1, .L684+52
 6578 0184 3846     		mov	r0, r7
 6579 0186 FFF7FEFF 		bl	chprintf
 6580              	.LVL734:
 6581              	.LBE560:
 6582              		.loc 2 1165 0
 6583 018a 029B     		ldr	r3, [sp, #8]
 6584 018c 6E49     		ldr	r1, .L684+60
 6585 018e 1D68     		ldr	r5, [r3]
 6586 0190 2846     		mov	r0, r5
 6587 0192 FFF7FEFF 		bl	strcmp
 6588              	.LVL735:
 6589 0196 30B1     		cbz	r0, .L629
 6590              		.loc 2 1166 0
 6591 0198 2846     		mov	r0, r5
 6592 019a 6549     		ldr	r1, .L684+36
 6593 019c FFF7FEFF 		bl	strcmp
 6594              	.LVL736:
 6595              		.loc 2 1165 0
 6596 01a0 0028     		cmp	r0, #0
 6597 01a2 40F09A80 		bne	.L611
 6598              	.L629:
 6599              	.LBB561:
 6600              		.loc 2 1179 0
 6601 01a6 4FF48062 		mov	r2, #1024
 6602 01aa 0021     		movs	r1, #0
 6603 01ac 6248     		ldr	r0, .L684+44
 6604              		.loc 2 1184 0
 6605 01ae 674E     		ldr	r6, .L684+64
 6606              		.loc 2 1179 0
 6607 01b0 FFF7FEFF 		bl	memset
 6608              	.LVL737:
 6609              		.loc 2 1180 0
 6610 01b4 0021     		movs	r1, #0
 6611 01b6 4FF48062 		mov	r2, #1024
 6612 01ba 6548     		ldr	r0, .L684+68
ARM GAS  C:\Users\shadi\AppData\Local\Temp\ccjiUIWy.s 			page 117


 6613 01bc FFF7FEFF 		bl	memset
 6614              	.LVL738:
 6615 01c0 6449     		ldr	r1, .L684+72
 6616 01c2 C4F10804 		rsb	r4, r4, #8
 6617 01c6 01F58065 		add	r5, r1, #1024
 6618              		.loc 2 1184 0
 6619 01ca 5420     		movs	r0, #84
 6620              	.LVL739:
 6621              	.L628:
 6622 01cc 6218     		adds	r2, r4, r1
 6623 01ce 9308     		lsrs	r3, r2, #2
 6624 01d0 A6FB03C3 		umull	ip, r3, r6, r3
 6625 01d4 9B08     		lsrs	r3, r3, #2
 6626 01d6 00FB1323 		mls	r3, r0, r3, r2
 6627 01da 01F8013F 		strb	r3, [r1, #1]!
 6628              	.LVL740:
 6629              		.loc 2 1183 0
 6630 01de A942     		cmp	r1, r5
 6631 01e0 F4D1     		bne	.L628
 6632              		.loc 2 1187 0
 6633 01e2 0223     		movs	r3, #2
 6634 01e4 544A     		ldr	r2, .L684+44
 6635 01e6 4948     		ldr	r0, .L684
 6636 01e8 5946     		mov	r1, fp
 6637              	.LVL741:
 6638 01ea FFF7FEFF 		bl	sdcWrite
 6639              	.LVL742:
 6640 01ee 0028     		cmp	r0, #0
 6641 01f0 00F0E981 		beq	.L630
 6642              		.loc 2 1188 0
 6643 01f4 3846     		mov	r0, r7
 6644 01f6 5849     		ldr	r1, .L684+76
 6645 01f8 FFF7FEFF 		bl	chprintf
 6646              	.LVL743:
 6647 01fc 6DE0     		b	.L611
 6648              	.LVL744:
 6649              	.L673:
 6650              	.LBE561:
 6651              	.LBE559:
 6652              	.LBE558:
 6653              		.loc 2 1043 0
 6654 01fe 059A     		ldr	r2, [sp, #20]
 6655 0200 D9F80030 		ldr	r3, [r9]
 6656 0204 9A42     		cmp	r2, r3
 6657 0206 40F02582 		bne	.L671
 6658 020a 5449     		ldr	r1, .L684+80
 6659 020c 3846     		mov	r0, r7
 6660              		.loc 2 1241 0
 6661 020e 07B0     		add	sp, sp, #28
 6662              		.cfi_remember_state
 6663              		.cfi_def_cfa_offset 36
 6664              		@ sp needed
 6665 0210 BDE8F04F 		pop	{r4, r5, r6, r7, r8, r9, r10, fp, lr}
 6666              		.cfi_restore 14
 6667              		.cfi_restore 11
 6668              		.cfi_restore 10
 6669              		.cfi_restore 9
ARM GAS  C:\Users\shadi\AppData\Local\Temp\ccjiUIWy.s 			page 118


 6670              		.cfi_restore 8
 6671              		.cfi_restore 7
 6672              		.cfi_restore 6
 6673              		.cfi_restore 5
 6674              		.cfi_restore 4
 6675              		.cfi_def_cfa_offset 0
 6676              	.LVL745:
 6677              		.loc 2 1043 0
 6678 0214 FFF7FEBF 		b	chprintf
 6679              	.LVL746:
 6680              	.L674:
 6681              		.cfi_restore_state
 6682              		.loc 2 1050 0
 6683 0218 059A     		ldr	r2, [sp, #20]
 6684 021a D9F80030 		ldr	r3, [r9]
 6685 021e 9A42     		cmp	r2, r3
 6686 0220 40F01882 		bne	.L671
 6687 0224 4E49     		ldr	r1, .L684+84
 6688 0226 3846     		mov	r0, r7
 6689              		.loc 2 1241 0
 6690 0228 07B0     		add	sp, sp, #28
 6691              		.cfi_remember_state
 6692              		.cfi_def_cfa_offset 36
 6693              		@ sp needed
 6694 022a BDE8F04F 		pop	{r4, r5, r6, r7, r8, r9, r10, fp, lr}
 6695              		.cfi_restore 14
 6696              		.cfi_restore 11
 6697              		.cfi_restore 10
 6698              		.cfi_restore 9
 6699              		.cfi_restore 8
 6700              		.cfi_restore 7
 6701              		.cfi_restore 6
 6702              		.cfi_restore 5
 6703              		.cfi_restore 4
 6704              		.cfi_def_cfa_offset 0
 6705              	.LVL747:
 6706              		.loc 2 1043 0
 6707 022e FFF7FEBF 		b	chprintf
 6708              	.LVL748:
 6709              	.L607:
 6710              		.cfi_restore_state
 6711              	.LBB699:
 6712              	.LBB696:
 6713              		.loc 2 1069 0
 6714 0232 4C49     		ldr	r1, .L684+88
 6715 0234 3846     		mov	r0, r7
 6716 0236 FFF7FEFF 		bl	chprintf
 6717              	.LVL749:
 6718              	.LBB562:
 6719              	.LBB563:
 6720              	.LBB564:
 6721              	.LBB565:
 6722              	.LBB566:
 6723              	.LBB567:
 6724              	.LBB568:
 6725              		.loc 4 546 0
 6726 023a 2023     		movs	r3, #32
ARM GAS  C:\Users\shadi\AppData\Local\Temp\ccjiUIWy.s 			page 119


 6727              		.syntax unified
 6728              	@ 546 "../../lib/e-puck2_main-processor/ChibiOS//os/ext/CMSIS/include/core_cmFunc.h" 1
 6729 023c 83F31188 		MSR basepri, r3
 6730              	@ 0 "" 2
 6731              	.LVL750:
 6732              		.thumb
 6733              		.syntax unified
 6734              	.LBE568:
 6735              	.LBE567:
 6736              	.LBE566:
 6737              	.LBE565:
 6738              	.LBE564:
 6739              	.LBB570:
 6740              	.LBB571:
 6741              		.file 6 "../../lib/e-puck2_main-processor/ChibiOS//os/rt/include/chvt.h"
 6742              		.loc 6 231 0
 6743 0240 494C     		ldr	r4, .L684+92
 6744              	.LBE571:
 6745              	.LBE570:
 6746              	.LBB573:
 6747              	.LBB569:
 6748              		.loc 5 349 0
 6749 0242 FFF7FEFF 		bl	_stats_start_measure_crit_thd
 6750              	.LVL751:
 6751              		.loc 5 350 0
 6752 0246 FFF7FEFF 		bl	_dbg_check_lock
 6753              	.LVL752:
 6754              	.LBE569:
 6755              	.LBE573:
 6756              	.LBB574:
 6757              	.LBB572:
 6758              		.loc 6 231 0
 6759 024a A36A     		ldr	r3, [r4, #40]
 6760 024c 1E46     		mov	r6, r3
 6761              	.LBE572:
 6762              	.LBE574:
 6763              	.LBB575:
 6764              	.LBB576:
 6765              		.loc 5 360 0
 6766 024e FFF7FEFF 		bl	_dbg_check_unlock
 6767              	.LVL753:
 6768              		.loc 5 361 0
 6769 0252 FFF7FEFF 		bl	_stats_stop_measure_crit_thd
 6770              	.LVL754:
 6771              		.loc 5 367 0
 6772 0256 2368     		ldr	r3, [r4]
 6773 0258 A342     		cmp	r3, r4
 6774 025a 07D0     		beq	.L609
 6775 025c A269     		ldr	r2, [r4, #24]
 6776 025e 9B68     		ldr	r3, [r3, #8]
 6777 0260 9268     		ldr	r2, [r2, #8]
 6778 0262 9A42     		cmp	r2, r3
 6779 0264 02D2     		bcs	.L609
 6780 0266 4148     		ldr	r0, .L684+96
 6781 0268 FFF7FEFF 		bl	chSysHalt
 6782              	.LVL755:
 6783              	.L609:
ARM GAS  C:\Users\shadi\AppData\Local\Temp\ccjiUIWy.s 			page 120


 6784              	.LBB577:
 6785              	.LBB578:
 6786              	.LBB579:
 6787              		.loc 4 546 0
 6788 026c 4FF00008 		mov	r8, #0
 6789              		.syntax unified
 6790              	@ 546 "../../lib/e-puck2_main-processor/ChibiOS//os/ext/CMSIS/include/core_cmFunc.h" 1
 6791 0270 88F31188 		MSR basepri, r8
 6792              	@ 0 "" 2
 6793              	.LVL756:
 6794              		.thumb
 6795              		.syntax unified
 6796              	.LBE579:
 6797              	.LBE578:
 6798              	.LBE577:
 6799              	.LBE576:
 6800              	.LBE575:
 6801              	.LBE563:
 6802              	.LBE562:
 6803              		.loc 2 1074 0
 6804 0274 DFF8C0A0 		ldr	r10, .L684+44
 6805              		.loc 2 1072 0
 6806 0278 0397     		str	r7, [sp, #12]
 6807 027a 3746     		mov	r7, r6
 6808              	.LVL757:
 6809 027c 1FE0     		b	.L613
 6810              	.LVL758:
 6811              	.L610:
 6812              		.loc 2 1078 0
 6813 027e 08F10108 		add	r8, r8, #1
 6814              	.LVL759:
 6815              	.LBB580:
 6816              	.LBB581:
 6817              	.LBB582:
 6818              	.LBB583:
 6819              	.LBB584:
 6820              	.LBB585:
 6821              	.LBB586:
 6822              	.LBB587:
