ARM GAS  C:\Users\shadi\AppData\Local\Temp\ccjmeXix.s 			page 1


   1              		.cpu cortex-m4
   2              		.eabi_attribute 27, 1
   3              		.eabi_attribute 28, 1
   4              		.eabi_attribute 20, 1
   5              		.eabi_attribute 21, 1
   6              		.eabi_attribute 23, 3
   7              		.eabi_attribute 24, 1
   8              		.eabi_attribute 25, 1
   9              		.eabi_attribute 26, 1
  10              		.eabi_attribute 30, 2
  11              		.eabi_attribute 34, 1
  12              		.eabi_attribute 18, 4
  13              		.file	"dcmi_camera.c"
  14              		.text
  15              	.Ltext0:
  16              		.cfi_sections	.debug_frame
  17              		.section	.text.dmaTransferEndCb,"ax",%progbits
  18              		.align	1
  19              		.p2align 4,,15
  20              		.global	dmaTransferEndCb
  21              		.syntax unified
  22              		.thumb
  23              		.thumb_func
  24              		.fpu fpv4-sp-d16
  25              		.type	dmaTransferEndCb, %function
  26              	dmaTransferEndCb:
  27              	.LFB257:
  28              		.file 1 "../../lib/e-puck2_main-processor/src/camera/dcmi_camera.c"
  29              		.loc 1 45 0
  30              		.cfi_startproc
  31              		@ args = 0, pretend = 0, frame = 8
  32              		@ frame_needed = 0, uses_anonymous_args = 0
  33              	.LVL0:
  34 0000 00B5     		push	{lr}
  35              		.cfi_def_cfa_offset 4
  36              		.cfi_offset 14, -4
  37 0002 064B     		ldr	r3, .L6
  38 0004 83B0     		sub	sp, sp, #12
  39              		.cfi_def_cfa_offset 16
  40              		.loc 1 45 0
  41 0006 1A68     		ldr	r2, [r3]
  42 0008 0192     		str	r2, [sp, #4]
  43              		.loc 1 49 0
  44 000a 019A     		ldr	r2, [sp, #4]
  45 000c 1B68     		ldr	r3, [r3]
  46 000e 9A42     		cmp	r2, r3
  47 0010 02D1     		bne	.L5
  48 0012 03B0     		add	sp, sp, #12
  49              		.cfi_remember_state
  50              		.cfi_def_cfa_offset 4
  51              		@ sp needed
  52 0014 5DF804FB 		ldr	pc, [sp], #4
  53              	.L5:
  54              		.cfi_restore_state
  55 0018 FFF7FEFF 		bl	__stack_chk_fail
  56              	.LVL1:
  57              	.L7:
ARM GAS  C:\Users\shadi\AppData\Local\Temp\ccjmeXix.s 			page 2


  58              		.align	2
  59              	.L6:
  60 001c 00000000 		.word	__stack_chk_guard
  61              		.cfi_endproc
  62              	.LFE257:
  63              		.size	dmaTransferEndCb, .-dmaTransferEndCb
  64              		.section	.text.dcmiErrorCb,"ax",%progbits
  65              		.align	1
  66              		.p2align 4,,15
  67              		.global	dcmiErrorCb
  68              		.syntax unified
  69              		.thumb
  70              		.thumb_func
  71              		.fpu fpv4-sp-d16
  72              		.type	dcmiErrorCb, %function
  73              	dcmiErrorCb:
  74              	.LFB258:
  75              		.loc 1 51 0
  76              		.cfi_startproc
  77              		@ args = 0, pretend = 0, frame = 8
  78              		@ frame_needed = 0, uses_anonymous_args = 0
  79              	.LVL2:
  80 0000 00B5     		push	{lr}
  81              		.cfi_def_cfa_offset 4
  82              		.cfi_offset 14, -4
  83 0002 064B     		ldr	r3, .L12
  84 0004 83B0     		sub	sp, sp, #12
  85              		.cfi_def_cfa_offset 16
  86              		.loc 1 51 0
  87 0006 1A68     		ldr	r2, [r3]
  88 0008 0192     		str	r2, [sp, #4]
  89              		.loc 1 56 0
  90 000a 019A     		ldr	r2, [sp, #4]
  91 000c 1B68     		ldr	r3, [r3]
  92 000e 9A42     		cmp	r2, r3
  93 0010 02D1     		bne	.L11
  94 0012 03B0     		add	sp, sp, #12
  95              		.cfi_remember_state
  96              		.cfi_def_cfa_offset 4
  97              		@ sp needed
  98 0014 5DF804FB 		ldr	pc, [sp], #4
  99              	.L11:
 100              		.cfi_restore_state
 101 0018 FFF7FEFF 		bl	__stack_chk_fail
 102              	.LVL3:
 103              	.L13:
 104              		.align	2
 105              	.L12:
 106 001c 00000000 		.word	__stack_chk_guard
 107              		.cfi_endproc
 108              	.LFE258:
 109              		.size	dcmiErrorCb, .-dcmiErrorCb
 110              		.section	.text.frameEndCb,"ax",%progbits
 111              		.align	1
 112              		.p2align 4,,15
 113              		.global	frameEndCb
 114              		.syntax unified
ARM GAS  C:\Users\shadi\AppData\Local\Temp\ccjmeXix.s 			page 3


 115              		.thumb
 116              		.thumb_func
 117              		.fpu fpv4-sp-d16
 118              		.type	frameEndCb, %function
 119              	frameEndCb:
 120              	.LFB256:
 121              		.loc 1 33 0
 122              		.cfi_startproc
 123              		@ args = 0, pretend = 0, frame = 8
 124              		@ frame_needed = 0, uses_anonymous_args = 0
 125              	.LVL4:
 126 0000 10B5     		push	{r4, lr}
 127              		.cfi_def_cfa_offset 8
 128              		.cfi_offset 4, -8
 129              		.cfi_offset 14, -4
 130 0002 104C     		ldr	r4, .L18
 131              		.loc 1 37 0
 132 0004 104B     		ldr	r3, .L18+4
 133              		.loc 1 33 0
 134 0006 2268     		ldr	r2, [r4]
 135 0008 82B0     		sub	sp, sp, #8
 136              		.cfi_def_cfa_offset 16
 137              		.loc 1 33 0
 138 000a 0192     		str	r2, [sp, #4]
 139              		.loc 1 37 0
 140 000c 0122     		movs	r2, #1
 141 000e 1A70     		strb	r2, [r3]
 142              	.LVL5:
 143              	.LBB42:
 144              	.LBB43:
 145              	.LBB44:
 146              	.LBB45:
 147              	.LBB46:
 148              	.LBB47:
 149              		.file 2 "../../lib/e-puck2_main-processor/ChibiOS//os/ext/CMSIS/include/core_cmFunc.h"
 150              		.loc 2 546 0
 151 0010 2023     		movs	r3, #32
 152              		.syntax unified
 153              	@ 546 "../../lib/e-puck2_main-processor/ChibiOS//os/ext/CMSIS/include/core_cmFunc.h" 1
 154 0012 83F31188 		MSR basepri, r3
 155              	@ 0 "" 2
 156              	.LVL6:
 157              		.thumb
 158              		.syntax unified
 159              	.LBE47:
 160              	.LBE46:
 161              	.LBE45:
 162              	.LBE44:
 163              		.file 3 "../../lib/e-puck2_main-processor/ChibiOS//os/rt/include/chsys.h"
 164              		.loc 3 389 0
 165 0016 FFF7FEFF 		bl	_stats_start_measure_crit_isr
 166              	.LVL7:
 167              		.loc 3 390 0
 168 001a FFF7FEFF 		bl	_dbg_check_lock_from_isr
 169              	.LVL8:
 170              	.LBE43:
 171              	.LBE42:
ARM GAS  C:\Users\shadi\AppData\Local\Temp\ccjmeXix.s 			page 4


 172              		.loc 1 39 0
 173 001e 0B48     		ldr	r0, .L18+8
 174 0020 FFF7FEFF 		bl	chCondBroadcastI
 175              	.LVL9:
 176              	.LBB48:
 177              	.LBB49:
 178              		.loc 3 408 0
 179 0024 FFF7FEFF 		bl	_dbg_check_unlock_from_isr
 180              	.LVL10:
 181              		.loc 3 409 0
 182 0028 FFF7FEFF 		bl	_stats_stop_measure_crit_isr
 183              	.LVL11:
 184              	.LBB50:
 185              	.LBB51:
 186              	.LBB52:
 187              	.LBB53:
 188              		.loc 2 546 0
 189 002c 0023     		movs	r3, #0
 190              		.syntax unified
 191              	@ 546 "../../lib/e-puck2_main-processor/ChibiOS//os/ext/CMSIS/include/core_cmFunc.h" 1
 192 002e 83F31188 		MSR basepri, r3
 193              	@ 0 "" 2
 194              	.LVL12:
 195              		.thumb
 196              		.syntax unified
 197              	.LBE53:
 198              	.LBE52:
 199              	.LBE51:
 200              	.LBE50:
 201              	.LBE49:
 202              	.LBE48:
 203              		.loc 1 41 0
 204 0032 019A     		ldr	r2, [sp, #4]
 205 0034 2368     		ldr	r3, [r4]
 206 0036 9A42     		cmp	r2, r3
 207 0038 01D1     		bne	.L17
 208 003a 02B0     		add	sp, sp, #8
 209              		.cfi_remember_state
 210              		.cfi_def_cfa_offset 8
 211              		@ sp needed
 212 003c 10BD     		pop	{r4, pc}
 213              	.L17:
 214              		.cfi_restore_state
 215 003e FFF7FEFF 		bl	__stack_chk_fail
 216              	.LVL13:
 217              	.L19:
 218 0042 00BF     		.align	2
 219              	.L18:
 220 0044 00000000 		.word	__stack_chk_guard
 221 0048 00000000 		.word	.LANCHOR0
 222 004c 00000000 		.word	.LANCHOR1
 223              		.cfi_endproc
 224              	.LFE256:
 225              		.size	frameEndCb, .-frameEndCb
 226              		.section	.text.dcmi_start_one_shot,"ax",%progbits
 227              		.align	1
 228              		.p2align 4,,15
ARM GAS  C:\Users\shadi\AppData\Local\Temp\ccjmeXix.s 			page 5


 229              		.global	dcmi_start_one_shot
 230              		.syntax unified
 231              		.thumb
 232              		.thumb_func
 233              		.fpu fpv4-sp-d16
 234              		.type	dcmi_start_one_shot, %function
 235              	dcmi_start_one_shot:
 236              	.LFB259:
 237              		.loc 1 65 0
 238              		.cfi_startproc
 239              		@ args = 0, pretend = 0, frame = 8
 240              		@ frame_needed = 0, uses_anonymous_args = 0
 241              	.LVL14:
 242 0000 00B5     		push	{lr}
 243              		.cfi_def_cfa_offset 4
 244              		.cfi_offset 14, -4
 245 0002 074B     		ldr	r3, .L25
 246 0004 83B0     		sub	sp, sp, #12
 247              		.cfi_def_cfa_offset 16
 248              		.loc 1 65 0
 249 0006 1A68     		ldr	r2, [r3]
 250 0008 0192     		str	r2, [sp, #4]
 251              		.loc 1 66 0
 252 000a 019A     		ldr	r2, [sp, #4]
 253 000c 1B68     		ldr	r3, [r3]
 254 000e 9A42     		cmp	r2, r3
 255 0010 04D1     		bne	.L24
 256              		.loc 1 67 0
 257 0012 03B0     		add	sp, sp, #12
 258              		.cfi_remember_state
 259              		.cfi_def_cfa_offset 4
 260              		@ sp needed
 261 0014 5DF804EB 		ldr	lr, [sp], #4
 262              		.cfi_restore 14
 263              		.cfi_def_cfa_offset 0
 264              		.loc 1 66 0
 265 0018 FFF7FEBF 		b	dcmiStartOneShot
 266              	.LVL15:
 267              	.L24:
 268              		.cfi_restore_state
 269 001c FFF7FEFF 		bl	__stack_chk_fail
 270              	.LVL16:
 271              	.L26:
 272              		.align	2
 273              	.L25:
 274 0020 00000000 		.word	__stack_chk_guard
 275              		.cfi_endproc
 276              	.LFE259:
 277              		.size	dcmi_start_one_shot, .-dcmi_start_one_shot
 278              		.section	.text.dcmi_start_stream,"ax",%progbits
 279              		.align	1
 280              		.p2align 4,,15
 281              		.global	dcmi_start_stream
 282              		.syntax unified
 283              		.thumb
 284              		.thumb_func
 285              		.fpu fpv4-sp-d16
ARM GAS  C:\Users\shadi\AppData\Local\Temp\ccjmeXix.s 			page 6


 286              		.type	dcmi_start_stream, %function
 287              	dcmi_start_stream:
 288              	.LFB260:
 289              		.loc 1 76 0
 290              		.cfi_startproc
 291              		@ args = 0, pretend = 0, frame = 8
 292              		@ frame_needed = 0, uses_anonymous_args = 0
 293              	.LVL17:
 294 0000 00B5     		push	{lr}
 295              		.cfi_def_cfa_offset 4
 296              		.cfi_offset 14, -4
 297 0002 074B     		ldr	r3, .L32
 298 0004 83B0     		sub	sp, sp, #12
 299              		.cfi_def_cfa_offset 16
 300              		.loc 1 76 0
 301 0006 1A68     		ldr	r2, [r3]
 302 0008 0192     		str	r2, [sp, #4]
 303              		.loc 1 77 0
 304 000a 019A     		ldr	r2, [sp, #4]
 305 000c 1B68     		ldr	r3, [r3]
 306 000e 9A42     		cmp	r2, r3
 307 0010 04D1     		bne	.L31
 308              		.loc 1 78 0
 309 0012 03B0     		add	sp, sp, #12
 310              		.cfi_remember_state
 311              		.cfi_def_cfa_offset 4
 312              		@ sp needed
 313 0014 5DF804EB 		ldr	lr, [sp], #4
 314              		.cfi_restore 14
 315              		.cfi_def_cfa_offset 0
 316              		.loc 1 77 0
 317 0018 FFF7FEBF 		b	dcmiStartStream
 318              	.LVL18:
 319              	.L31:
 320              		.cfi_restore_state
 321 001c FFF7FEFF 		bl	__stack_chk_fail
 322              	.LVL19:
 323              	.L33:
 324              		.align	2
 325              	.L32:
 326 0020 00000000 		.word	__stack_chk_guard
 327              		.cfi_endproc
 328              	.LFE260:
 329              		.size	dcmi_start_stream, .-dcmi_start_stream
 330              		.section	.text.dcmi_stop_stream,"ax",%progbits
 331              		.align	1
 332              		.p2align 4,,15
 333              		.global	dcmi_stop_stream
 334              		.syntax unified
 335              		.thumb
 336              		.thumb_func
 337              		.fpu fpv4-sp-d16
 338              		.type	dcmi_stop_stream, %function
 339              	dcmi_stop_stream:
 340              	.LFB261:
 341              		.loc 1 91 0
 342              		.cfi_startproc
ARM GAS  C:\Users\shadi\AppData\Local\Temp\ccjmeXix.s 			page 7


 343              		@ args = 0, pretend = 0, frame = 8
 344              		@ frame_needed = 0, uses_anonymous_args = 0
 345              	.LVL20:
 346 0000 00B5     		push	{lr}
 347              		.cfi_def_cfa_offset 4
 348              		.cfi_offset 14, -4
 349 0002 074B     		ldr	r3, .L39
 350 0004 83B0     		sub	sp, sp, #12
 351              		.cfi_def_cfa_offset 16
 352              		.loc 1 91 0
 353 0006 1A68     		ldr	r2, [r3]
 354 0008 0192     		str	r2, [sp, #4]
 355              		.loc 1 92 0
 356 000a 019A     		ldr	r2, [sp, #4]
 357 000c 1B68     		ldr	r3, [r3]
 358 000e 9A42     		cmp	r2, r3
 359 0010 04D1     		bne	.L38
 360              		.loc 1 93 0
 361 0012 03B0     		add	sp, sp, #12
 362              		.cfi_remember_state
 363              		.cfi_def_cfa_offset 4
 364              		@ sp needed
 365 0014 5DF804EB 		ldr	lr, [sp], #4
 366              		.cfi_restore 14
 367              		.cfi_def_cfa_offset 0
 368              		.loc 1 92 0
 369 0018 FFF7FEBF 		b	dcmiStopStream
 370              	.LVL21:
 371              	.L38:
 372              		.cfi_restore_state
 373 001c FFF7FEFF 		bl	__stack_chk_fail
 374              	.LVL22:
 375              	.L40:
 376              		.align	2
 377              	.L39:
 378 0020 00000000 		.word	__stack_chk_guard
 379              		.cfi_endproc
 380              	.LFE261:
 381              		.size	dcmi_stop_stream, .-dcmi_stop_stream
 382              		.section	.text.dcmi_start,"ax",%progbits
 383              		.align	1
 384              		.p2align 4,,15
 385              		.global	dcmi_start
 386              		.syntax unified
 387              		.thumb
 388              		.thumb_func
 389              		.fpu fpv4-sp-d16
 390              		.type	dcmi_start, %function
 391              	dcmi_start:
 392              	.LFB262:
 393              		.loc 1 100 0
 394              		.cfi_startproc
 395              		@ args = 0, pretend = 0, frame = 8
 396              		@ frame_needed = 0, uses_anonymous_args = 0
 397 0000 30B5     		push	{r4, r5, lr}
 398              		.cfi_def_cfa_offset 12
 399              		.cfi_offset 4, -12
ARM GAS  C:\Users\shadi\AppData\Local\Temp\ccjmeXix.s 			page 8


 400              		.cfi_offset 5, -8
 401              		.cfi_offset 14, -4
 402 0002 0E4D     		ldr	r5, .L49
 403              		.loc 1 102 0
 404 0004 0E4C     		ldr	r4, .L49+4
 405              		.loc 1 100 0
 406 0006 2B68     		ldr	r3, [r5]
 407 0008 83B0     		sub	sp, sp, #12
 408              		.cfi_def_cfa_offset 24
 409              		.loc 1 100 0
 410 000a 0193     		str	r3, [sp, #4]
 411              		.loc 1 101 0
 412 000c FFF7FEFF 		bl	dcmiInit
 413              	.LVL23:
 414              		.loc 1 102 0
 415 0010 2068     		ldr	r0, [r4]
 416 0012 08B1     		cbz	r0, .L42
 417              		.loc 1 103 0
 418 0014 FFF7FEFF 		bl	free
 419              	.LVL24:
 420              	.L42:
 421              		.loc 1 106 0
 422 0018 4FF49640 		mov	r0, #19200
 423 001c FFF7FEFF 		bl	malloc
 424              	.LVL25:
 425              		.loc 1 111 0
 426 0020 0199     		ldr	r1, [sp, #4]
 427 0022 2A68     		ldr	r2, [r5]
 428              		.loc 1 106 0
 429 0024 2060     		str	r0, [r4]
 430              		.loc 1 107 0
 431 0026 B0FA80F3 		clz	r3, r0
 432 002a 5B09     		lsrs	r3, r3, #5
 433              		.loc 1 111 0
 434 002c 9142     		cmp	r1, r2
 435 002e C3F10000 		rsb	r0, r3, #0
 436 0032 01D1     		bne	.L48
 437 0034 03B0     		add	sp, sp, #12
 438              		.cfi_remember_state
 439              		.cfi_def_cfa_offset 12
 440              		@ sp needed
 441 0036 30BD     		pop	{r4, r5, pc}
 442              	.L48:
 443              		.cfi_restore_state
 444 0038 FFF7FEFF 		bl	__stack_chk_fail
 445              	.LVL26:
 446              	.L50:
 447              		.align	2
 448              	.L49:
 449 003c 00000000 		.word	__stack_chk_guard
 450 0040 00000000 		.word	.LANCHOR2
 451              		.cfi_endproc
 452              	.LFE262:
 453              		.size	dcmi_start, .-dcmi_start
 454              		.section	.text.dcmi_prepare,"ax",%progbits
 455              		.align	1
 456              		.p2align 4,,15
ARM GAS  C:\Users\shadi\AppData\Local\Temp\ccjmeXix.s 			page 9


 457              		.global	dcmi_prepare
 458              		.syntax unified
 459              		.thumb
 460              		.thumb_func
 461              		.fpu fpv4-sp-d16
 462              		.type	dcmi_prepare, %function
 463              	dcmi_prepare:
 464              	.LFB263:
 465              		.loc 1 113 0
 466              		.cfi_startproc
 467              		@ args = 0, pretend = 0, frame = 8
 468              		@ frame_needed = 0, uses_anonymous_args = 0
 469 0000 30B5     		push	{r4, r5, lr}
 470              		.cfi_def_cfa_offset 12
 471              		.cfi_offset 4, -12
 472              		.cfi_offset 5, -8
 473              		.cfi_offset 14, -4
 474              		.loc 1 114 0
 475 0002 174D     		ldr	r5, .L62
 476              		.loc 1 113 0
 477 0004 174C     		ldr	r4, .L62+4
 478              		.loc 1 114 0
 479 0006 2B78     		ldrb	r3, [r5]	@ zero_extendqisi2
 480              		.loc 1 113 0
 481 0008 2268     		ldr	r2, [r4]
 482 000a 85B0     		sub	sp, sp, #20
 483              		.cfi_def_cfa_offset 32
 484              		.loc 1 114 0
 485 000c 012B     		cmp	r3, #1
 486              		.loc 1 113 0
 487 000e 0392     		str	r2, [sp, #12]
 488              		.loc 1 114 0
 489 0010 20D0     		beq	.L60
 490              	.L52:
 491              		.loc 1 118 0
 492 0012 FFF7FEFF 		bl	po8030_get_image_size
 493              	.LVL27:
 494              		.loc 1 119 0
 495 0016 144B     		ldr	r3, .L62+8
 496 0018 1B78     		ldrb	r3, [r3]	@ zero_extendqisi2
 497 001a ABB9     		cbnz	r3, .L53
 498              		.loc 1 120 0
 499 001c B0F5964F 		cmp	r0, #19200
 500 0020 15D8     		bhi	.L58
 501              	.L55:
 502              		.loc 1 129 0
 503 0022 124A     		ldr	r2, .L62+12
 504 0024 124B     		ldr	r3, .L62+16
 505 0026 1268     		ldr	r2, [r2]
 506 0028 1B68     		ldr	r3, [r3]
 507 002a 1249     		ldr	r1, .L62+20
 508 002c 0092     		str	r2, [sp]
 509 002e 0246     		mov	r2, r0
 510 0030 1148     		ldr	r0, .L62+24
 511              	.LVL28:
 512 0032 FFF7FEFF 		bl	dcmiPrepare
 513              	.LVL29:
ARM GAS  C:\Users\shadi\AppData\Local\Temp\ccjmeXix.s 			page 10


 514              		.loc 1 130 0
 515 0036 0123     		movs	r3, #1
 516 0038 2B70     		strb	r3, [r5]
 517              		.loc 1 132 0
 518 003a 0020     		movs	r0, #0
 519              	.L54:
 520              		.loc 1 133 0
 521 003c 039A     		ldr	r2, [sp, #12]
 522 003e 2368     		ldr	r3, [r4]
 523 0040 9A42     		cmp	r2, r3
 524 0042 0BD1     		bne	.L61
 525 0044 05B0     		add	sp, sp, #20
 526              		.cfi_remember_state
 527              		.cfi_def_cfa_offset 12
 528              		@ sp needed
 529 0046 30BD     		pop	{r4, r5, pc}
 530              	.LVL30:
 531              	.L53:
 532              		.cfi_restore_state
 533              		.loc 1 124 0
 534 0048 B0F5165F 		cmp	r0, #9600
 535 004c E9D9     		bls	.L55
 536              	.L58:
 537              		.loc 1 121 0
 538 004e 4FF0FF30 		mov	r0, #-1
 539              	.LVL31:
 540 0052 F3E7     		b	.L54
 541              	.L60:
 542              		.loc 1 115 0
 543 0054 0848     		ldr	r0, .L62+24
 544 0056 FFF7FEFF 		bl	dcmiUnprepare
 545              	.LVL32:
 546 005a DAE7     		b	.L52
 547              	.L61:
 548              		.loc 1 133 0
 549 005c FFF7FEFF 		bl	__stack_chk_fail
 550              	.LVL33:
 551              	.L63:
 552              		.align	2
 553              	.L62:
 554 0060 00000000 		.word	.LANCHOR3
 555 0064 00000000 		.word	__stack_chk_guard
 556 0068 00000000 		.word	.LANCHOR4
 557 006c 00000000 		.word	.LANCHOR6
 558 0070 00000000 		.word	.LANCHOR2
 559 0074 00000000 		.word	.LANCHOR5
 560 0078 00000000 		.word	DCMID
 561              		.cfi_endproc
 562              	.LFE263:
 563              		.size	dcmi_prepare, .-dcmi_prepare
 564              		.section	.text.dcmi_unprepare,"ax",%progbits
 565              		.align	1
 566              		.p2align 4,,15
 567              		.global	dcmi_unprepare
 568              		.syntax unified
 569              		.thumb
 570              		.thumb_func
ARM GAS  C:\Users\shadi\AppData\Local\Temp\ccjmeXix.s 			page 11


 571              		.fpu fpv4-sp-d16
 572              		.type	dcmi_unprepare, %function
 573              	dcmi_unprepare:
 574              	.LFB264:
 575              		.loc 1 135 0
 576              		.cfi_startproc
 577              		@ args = 0, pretend = 0, frame = 8
 578              		@ frame_needed = 0, uses_anonymous_args = 0
 579 0000 30B5     		push	{r4, r5, lr}
 580              		.cfi_def_cfa_offset 12
 581              		.cfi_offset 4, -12
 582              		.cfi_offset 5, -8
 583              		.cfi_offset 14, -4
 584              		.loc 1 136 0
 585 0002 0B4C     		ldr	r4, .L70
 586              		.loc 1 135 0
 587 0004 0B4D     		ldr	r5, .L70+4
 588              		.loc 1 136 0
 589 0006 2378     		ldrb	r3, [r4]	@ zero_extendqisi2
 590              		.loc 1 135 0
 591 0008 2A68     		ldr	r2, [r5]
 592 000a 83B0     		sub	sp, sp, #12
 593              		.cfi_def_cfa_offset 24
 594              		.loc 1 136 0
 595 000c 012B     		cmp	r3, #1
 596              		.loc 1 135 0
 597 000e 0192     		str	r2, [sp, #4]
 598              		.loc 1 136 0
 599 0010 07D0     		beq	.L68
 600              	.L65:
 601              		.loc 1 140 0
 602 0012 019A     		ldr	r2, [sp, #4]
 603 0014 2B68     		ldr	r3, [r5]
 604              		.loc 1 139 0
 605 0016 0021     		movs	r1, #0
 606              		.loc 1 140 0
 607 0018 9A42     		cmp	r2, r3
 608              		.loc 1 139 0
 609 001a 2170     		strb	r1, [r4]
 610              		.loc 1 140 0
 611 001c 05D1     		bne	.L69
 612 001e 03B0     		add	sp, sp, #12
 613              		.cfi_remember_state
 614              		.cfi_def_cfa_offset 12
 615              		@ sp needed
 616 0020 30BD     		pop	{r4, r5, pc}
 617              	.L68:
 618              		.cfi_restore_state
 619              		.loc 1 137 0
 620 0022 0548     		ldr	r0, .L70+8
 621 0024 FFF7FEFF 		bl	dcmiUnprepare
 622              	.LVL34:
 623 0028 F3E7     		b	.L65
 624              	.L69:
 625              		.loc 1 140 0
 626 002a FFF7FEFF 		bl	__stack_chk_fail
 627              	.LVL35:
ARM GAS  C:\Users\shadi\AppData\Local\Temp\ccjmeXix.s 			page 12


 628              	.L71:
 629 002e 00BF     		.align	2
 630              	.L70:
 631 0030 00000000 		.word	.LANCHOR3
 632 0034 00000000 		.word	__stack_chk_guard
 633 0038 00000000 		.word	DCMID
 634              		.cfi_endproc
 635              	.LFE264:
 636              		.size	dcmi_unprepare, .-dcmi_unprepare
 637              		.section	.text.image_is_ready,"ax",%progbits
 638              		.align	1
 639              		.p2align 4,,15
 640              		.global	image_is_ready
 641              		.syntax unified
 642              		.thumb
 643              		.thumb_func
 644              		.fpu fpv4-sp-d16
 645              		.type	image_is_ready, %function
 646              	image_is_ready:
 647              	.LFB265:
 648              		.loc 1 142 0
 649              		.cfi_startproc
 650              		@ args = 0, pretend = 0, frame = 8
 651              		@ frame_needed = 0, uses_anonymous_args = 0
 652 0000 00B5     		push	{lr}
 653              		.cfi_def_cfa_offset 4
 654              		.cfi_offset 14, -4
 655 0002 074B     		ldr	r3, .L76
 656              		.loc 1 143 0
 657 0004 0749     		ldr	r1, .L76+4
 658              		.loc 1 142 0
 659 0006 1A68     		ldr	r2, [r3]
 660              		.loc 1 144 0
 661 0008 0878     		ldrb	r0, [r1]	@ zero_extendqisi2
 662              		.loc 1 142 0
 663 000a 83B0     		sub	sp, sp, #12
 664              		.cfi_def_cfa_offset 16
 665              		.loc 1 142 0
 666 000c 0192     		str	r2, [sp, #4]
 667              		.loc 1 144 0
 668 000e 019A     		ldr	r2, [sp, #4]
 669 0010 1B68     		ldr	r3, [r3]
 670 0012 9A42     		cmp	r2, r3
 671 0014 02D1     		bne	.L75
 672 0016 03B0     		add	sp, sp, #12
 673              		.cfi_remember_state
 674              		.cfi_def_cfa_offset 4
 675              		@ sp needed
 676 0018 5DF804FB 		ldr	pc, [sp], #4
 677              	.L75:
 678              		.cfi_restore_state
 679 001c FFF7FEFF 		bl	__stack_chk_fail
 680              	.LVL36:
 681              	.L77:
 682              		.align	2
 683              	.L76:
 684 0020 00000000 		.word	__stack_chk_guard
ARM GAS  C:\Users\shadi\AppData\Local\Temp\ccjmeXix.s 			page 13


 685 0024 00000000 		.word	.LANCHOR0
 686              		.cfi_endproc
 687              	.LFE265:
 688              		.size	image_is_ready, .-image_is_ready
 689              		.section	.text.wait_image_ready,"ax",%progbits
 690              		.align	1
 691              		.p2align 4,,15
 692              		.global	wait_image_ready
 693              		.syntax unified
 694              		.thumb
 695              		.thumb_func
 696              		.fpu fpv4-sp-d16
 697              		.type	wait_image_ready, %function
 698              	wait_image_ready:
 699              	.LFB266:
 700              		.loc 1 146 0
 701              		.cfi_startproc
 702              		@ args = 0, pretend = 0, frame = 8
 703              		@ frame_needed = 0, uses_anonymous_args = 0
 704 0000 10B5     		push	{r4, lr}
 705              		.cfi_def_cfa_offset 8
 706              		.cfi_offset 4, -8
 707              		.cfi_offset 14, -4
 708 0002 0B4C     		ldr	r4, .L83
 709              		.loc 1 148 0
 710 0004 0B48     		ldr	r0, .L83+4
 711              		.loc 1 146 0
 712 0006 2368     		ldr	r3, [r4]
 713 0008 82B0     		sub	sp, sp, #8
 714              		.cfi_def_cfa_offset 16
 715              		.loc 1 146 0
 716 000a 0193     		str	r3, [sp, #4]
 717              		.loc 1 148 0
 718 000c FFF7FEFF 		bl	chMtxLock
 719              	.LVL37:
 720              		.loc 1 149 0
 721 0010 0948     		ldr	r0, .L83+8
 722 0012 FFF7FEFF 		bl	chCondWait
 723              	.LVL38:
 724              		.loc 1 150 0
 725 0016 019A     		ldr	r2, [sp, #4]
 726 0018 2368     		ldr	r3, [r4]
 727 001a 9A42     		cmp	r2, r3
 728 001c 05D1     		bne	.L82
 729 001e 0548     		ldr	r0, .L83+4
 730              		.loc 1 151 0
 731 0020 02B0     		add	sp, sp, #8
 732              		.cfi_remember_state
 733              		.cfi_def_cfa_offset 8
 734              		@ sp needed
 735 0022 BDE81040 		pop	{r4, lr}
 736              		.cfi_restore 14
 737              		.cfi_restore 4
 738              		.cfi_def_cfa_offset 0
 739              		.loc 1 150 0
 740 0026 FFF7FEBF 		b	chMtxUnlock
 741              	.LVL39:
ARM GAS  C:\Users\shadi\AppData\Local\Temp\ccjmeXix.s 			page 14


 742              	.L82:
 743              		.cfi_restore_state
 744 002a FFF7FEFF 		bl	__stack_chk_fail
 745              	.LVL40:
 746              	.L84:
 747 002e 00BF     		.align	2
 748              	.L83:
 749 0030 00000000 		.word	__stack_chk_guard
 750 0034 00000000 		.word	.LANCHOR7
 751 0038 00000000 		.word	.LANCHOR1
 752              		.cfi_endproc
 753              	.LFE266:
 754              		.size	wait_image_ready, .-wait_image_ready
 755              		.section	.text.dcmi_double_buffering_enabled,"ax",%progbits
 756              		.align	1
 757              		.p2align 4,,15
 758              		.global	dcmi_double_buffering_enabled
 759              		.syntax unified
 760              		.thumb
 761              		.thumb_func
 762              		.fpu fpv4-sp-d16
 763              		.type	dcmi_double_buffering_enabled, %function
 764              	dcmi_double_buffering_enabled:
 765              	.LFB267:
 766              		.loc 1 153 0
 767              		.cfi_startproc
 768              		@ args = 0, pretend = 0, frame = 8
 769              		@ frame_needed = 0, uses_anonymous_args = 0
 770 0000 00B5     		push	{lr}
 771              		.cfi_def_cfa_offset 4
 772              		.cfi_offset 14, -4
 773 0002 074B     		ldr	r3, .L89
 774              		.loc 1 154 0
 775 0004 0749     		ldr	r1, .L89+4
 776              		.loc 1 153 0
 777 0006 1A68     		ldr	r2, [r3]
 778              		.loc 1 155 0
 779 0008 0878     		ldrb	r0, [r1]	@ zero_extendqisi2
 780              		.loc 1 153 0
 781 000a 83B0     		sub	sp, sp, #12
 782              		.cfi_def_cfa_offset 16
 783              		.loc 1 153 0
 784 000c 0192     		str	r2, [sp, #4]
 785              		.loc 1 155 0
 786 000e 019A     		ldr	r2, [sp, #4]
 787 0010 1B68     		ldr	r3, [r3]
 788 0012 9A42     		cmp	r2, r3
 789 0014 02D1     		bne	.L88
 790 0016 03B0     		add	sp, sp, #12
 791              		.cfi_remember_state
 792              		.cfi_def_cfa_offset 4
 793              		@ sp needed
 794 0018 5DF804FB 		ldr	pc, [sp], #4
 795              	.L88:
 796              		.cfi_restore_state
 797 001c FFF7FEFF 		bl	__stack_chk_fail
 798              	.LVL41:
ARM GAS  C:\Users\shadi\AppData\Local\Temp\ccjmeXix.s 			page 15


 799              	.L90:
 800              		.align	2
 801              	.L89:
 802 0020 00000000 		.word	__stack_chk_guard
 803 0024 00000000 		.word	.LANCHOR4
 804              		.cfi_endproc
 805              	.LFE267:
 806              		.size	dcmi_double_buffering_enabled, .-dcmi_double_buffering_enabled
 807              		.section	.text.dcmi_enable_double_buffering,"ax",%progbits
 808              		.align	1
 809              		.p2align 4,,15
 810              		.global	dcmi_enable_double_buffering
 811              		.syntax unified
 812              		.thumb
 813              		.thumb_func
 814              		.fpu fpv4-sp-d16
 815              		.type	dcmi_enable_double_buffering, %function
 816              	dcmi_enable_double_buffering:
 817              	.LFB268:
 818              		.loc 1 157 0
 819              		.cfi_startproc
 820              		@ args = 0, pretend = 0, frame = 8
 821              		@ frame_needed = 0, uses_anonymous_args = 0
 822 0000 30B5     		push	{r4, r5, lr}
 823              		.cfi_def_cfa_offset 12
 824              		.cfi_offset 4, -12
 825              		.cfi_offset 5, -8
 826              		.cfi_offset 14, -4
 827              		.loc 1 161 0
 828 0002 154D     		ldr	r5, .L105
 829              		.loc 1 157 0
 830 0004 154C     		ldr	r4, .L105+4
 831              		.loc 1 158 0
 832 0006 164B     		ldr	r3, .L105+8
 833              		.loc 1 157 0
 834 0008 2268     		ldr	r2, [r4]
 835              		.loc 1 161 0
 836 000a 2868     		ldr	r0, [r5]
 837              		.loc 1 157 0
 838 000c 83B0     		sub	sp, sp, #12
 839              		.cfi_def_cfa_offset 24
 840              		.loc 1 157 0
 841 000e 0192     		str	r2, [sp, #4]
 842              		.loc 1 158 0
 843 0010 0122     		movs	r2, #1
 844 0012 1A70     		strb	r2, [r3]
 845              		.loc 1 161 0
 846 0014 08B1     		cbz	r0, .L92
 847              		.loc 1 162 0
 848 0016 FFF7FEFF 		bl	free
 849              	.LVL42:
 850              	.L92:
 851              		.loc 1 166 0
 852 001a 4FF41650 		mov	r0, #9600
 853 001e FFF7FEFF 		bl	malloc
 854              	.LVL43:
 855 0022 2860     		str	r0, [r5]
ARM GAS  C:\Users\shadi\AppData\Local\Temp\ccjmeXix.s 			page 16


 856              		.loc 1 167 0
 857 0024 98B1     		cbz	r0, .L96
 858              		.loc 1 171 0
 859 0026 0F4D     		ldr	r5, .L105+12
 860 0028 2868     		ldr	r0, [r5]
 861 002a 08B1     		cbz	r0, .L94
 862              		.loc 1 172 0
 863 002c FFF7FEFF 		bl	free
 864              	.LVL44:
 865              	.L94:
 866              		.loc 1 176 0
 867 0030 4FF41650 		mov	r0, #9600
 868 0034 FFF7FEFF 		bl	malloc
 869              	.LVL45:
 870              		.loc 1 177 0
 871 0038 B0FA80F3 		clz	r3, r0
 872 003c 5B09     		lsrs	r3, r3, #5
 873              		.loc 1 176 0
 874 003e 2860     		str	r0, [r5]
 875              		.loc 1 177 0
 876 0040 5842     		negs	r0, r3
 877              	.L93:
 878              		.loc 1 181 0
 879 0042 019A     		ldr	r2, [sp, #4]
 880 0044 2368     		ldr	r3, [r4]
 881 0046 9A42     		cmp	r2, r3
 882 0048 04D1     		bne	.L104
 883 004a 03B0     		add	sp, sp, #12
 884              		.cfi_remember_state
 885              		.cfi_def_cfa_offset 12
 886              		@ sp needed
 887 004c 30BD     		pop	{r4, r5, pc}
 888              	.L96:
 889              		.cfi_restore_state
 890              		.loc 1 168 0
 891 004e 4FF0FF30 		mov	r0, #-1
 892 0052 F6E7     		b	.L93
 893              	.L104:
 894              		.loc 1 181 0
 895 0054 FFF7FEFF 		bl	__stack_chk_fail
 896              	.LVL46:
 897              	.L106:
 898              		.align	2
 899              	.L105:
 900 0058 00000000 		.word	.LANCHOR2
 901 005c 00000000 		.word	__stack_chk_guard
 902 0060 00000000 		.word	.LANCHOR4
 903 0064 00000000 		.word	.LANCHOR6
 904              		.cfi_endproc
 905              	.LFE268:
 906              		.size	dcmi_enable_double_buffering, .-dcmi_enable_double_buffering
 907              		.section	.text.dcmi_disable_double_buffering,"ax",%progbits
 908              		.align	1
 909              		.p2align 4,,15
 910              		.global	dcmi_disable_double_buffering
 911              		.syntax unified
 912              		.thumb
ARM GAS  C:\Users\shadi\AppData\Local\Temp\ccjmeXix.s 			page 17


 913              		.thumb_func
 914              		.fpu fpv4-sp-d16
 915              		.type	dcmi_disable_double_buffering, %function
 916              	dcmi_disable_double_buffering:
 917              	.LFB269:
 918              		.loc 1 183 0
 919              		.cfi_startproc
 920              		@ args = 0, pretend = 0, frame = 8
 921              		@ frame_needed = 0, uses_anonymous_args = 0
 922 0000 70B5     		push	{r4, r5, r6, lr}
 923              		.cfi_def_cfa_offset 16
 924              		.cfi_offset 4, -16
 925              		.cfi_offset 5, -12
 926              		.cfi_offset 6, -8
 927              		.cfi_offset 14, -4
 928              		.loc 1 187 0
 929 0002 124C     		ldr	r4, .L119
 930              		.loc 1 183 0
 931 0004 124D     		ldr	r5, .L119+4
 932              		.loc 1 184 0
 933 0006 134B     		ldr	r3, .L119+8
 934              		.loc 1 187 0
 935 0008 2068     		ldr	r0, [r4]
 936              		.loc 1 183 0
 937 000a 2A68     		ldr	r2, [r5]
 938 000c 82B0     		sub	sp, sp, #8
 939              		.cfi_def_cfa_offset 24
 940              		.loc 1 184 0
 941 000e 0026     		movs	r6, #0
 942              		.loc 1 183 0
 943 0010 0192     		str	r2, [sp, #4]
 944              		.loc 1 184 0
 945 0012 1E70     		strb	r6, [r3]
 946              		.loc 1 187 0
 947 0014 10B1     		cbz	r0, .L108
 948              		.loc 1 188 0
 949 0016 FFF7FEFF 		bl	free
 950              	.LVL47:
 951              		.loc 1 189 0
 952 001a 2660     		str	r6, [r4]
 953              	.L108:
 954              		.loc 1 192 0
 955 001c 0E4C     		ldr	r4, .L119+12
 956 001e 2068     		ldr	r0, [r4]
 957 0020 08B1     		cbz	r0, .L109
 958              		.loc 1 193 0
 959 0022 FFF7FEFF 		bl	free
 960              	.LVL48:
 961              	.L109:
 962              		.loc 1 197 0
 963 0026 4FF49640 		mov	r0, #19200
 964 002a FFF7FEFF 		bl	malloc
 965              	.LVL49:
 966              		.loc 1 202 0
 967 002e 0199     		ldr	r1, [sp, #4]
 968 0030 2A68     		ldr	r2, [r5]
 969              		.loc 1 197 0
ARM GAS  C:\Users\shadi\AppData\Local\Temp\ccjmeXix.s 			page 18


 970 0032 2060     		str	r0, [r4]
 971              		.loc 1 198 0
 972 0034 B0FA80F3 		clz	r3, r0
 973 0038 5B09     		lsrs	r3, r3, #5
 974              		.loc 1 202 0
 975 003a 9142     		cmp	r1, r2
 976 003c C3F10000 		rsb	r0, r3, #0
 977 0040 01D1     		bne	.L118
 978 0042 02B0     		add	sp, sp, #8
 979              		.cfi_remember_state
 980              		.cfi_def_cfa_offset 16
 981              		@ sp needed
 982 0044 70BD     		pop	{r4, r5, r6, pc}
 983              	.L118:
 984              		.cfi_restore_state
 985 0046 FFF7FEFF 		bl	__stack_chk_fail
 986              	.LVL50:
 987              	.L120:
 988 004a 00BF     		.align	2
 989              	.L119:
 990 004c 00000000 		.word	.LANCHOR6
 991 0050 00000000 		.word	__stack_chk_guard
 992 0054 00000000 		.word	.LANCHOR4
 993 0058 00000000 		.word	.LANCHOR2
 994              		.cfi_endproc
 995              	.LFE269:
 996              		.size	dcmi_disable_double_buffering, .-dcmi_disable_double_buffering
 997              		.section	.text.dcmi_set_capture_mode,"ax",%progbits
 998              		.align	1
 999              		.p2align 4,,15
 1000              		.global	dcmi_set_capture_mode
 1001              		.syntax unified
 1002              		.thumb
 1003              		.thumb_func
 1004              		.fpu fpv4-sp-d16
 1005              		.type	dcmi_set_capture_mode, %function
 1006              	dcmi_set_capture_mode:
 1007              	.LFB270:
 1008              		.loc 1 204 0
 1009              		.cfi_startproc
 1010              		@ args = 0, pretend = 0, frame = 8
 1011              		@ frame_needed = 0, uses_anonymous_args = 0
 1012              	.LVL51:
 1013 0000 00B5     		push	{lr}
 1014              		.cfi_def_cfa_offset 4
 1015              		.cfi_offset 14, -4
 1016 0002 074B     		ldr	r3, .L125
 1017              		.loc 1 205 0
 1018 0004 0749     		ldr	r1, .L125+4
 1019              		.loc 1 204 0
 1020 0006 1A68     		ldr	r2, [r3]
 1021              		.loc 1 205 0
 1022 0008 0870     		strb	r0, [r1]
 1023              		.loc 1 204 0
 1024 000a 83B0     		sub	sp, sp, #12
 1025              		.cfi_def_cfa_offset 16
 1026              		.loc 1 204 0
ARM GAS  C:\Users\shadi\AppData\Local\Temp\ccjmeXix.s 			page 19


 1027 000c 0192     		str	r2, [sp, #4]
 1028              		.loc 1 206 0
 1029 000e 019A     		ldr	r2, [sp, #4]
 1030 0010 1B68     		ldr	r3, [r3]
 1031 0012 9A42     		cmp	r2, r3
 1032 0014 02D1     		bne	.L124
 1033 0016 03B0     		add	sp, sp, #12
 1034              		.cfi_remember_state
 1035              		.cfi_def_cfa_offset 4
 1036              		@ sp needed
 1037 0018 5DF804FB 		ldr	pc, [sp], #4
 1038              	.L124:
 1039              		.cfi_restore_state
 1040 001c FFF7FEFF 		bl	__stack_chk_fail
 1041              	.LVL52:
 1042              	.L126:
 1043              		.align	2
 1044              	.L125:
 1045 0020 00000000 		.word	__stack_chk_guard
 1046 0024 00000000 		.word	.LANCHOR8
 1047              		.cfi_endproc
 1048              	.LFE270:
 1049              		.size	dcmi_set_capture_mode, .-dcmi_set_capture_mode
 1050              		.section	.text.dcmi_get_last_image_ptr,"ax",%progbits
 1051              		.align	1
 1052              		.p2align 4,,15
 1053              		.global	dcmi_get_last_image_ptr
 1054              		.syntax unified
 1055              		.thumb
 1056              		.thumb_func
 1057              		.fpu fpv4-sp-d16
 1058              		.type	dcmi_get_last_image_ptr, %function
 1059              	dcmi_get_last_image_ptr:
 1060              	.LFB271:
 1061              		.loc 1 208 0
 1062              		.cfi_startproc
 1063              		@ args = 0, pretend = 0, frame = 8
 1064              		@ frame_needed = 0, uses_anonymous_args = 0
 1065 0000 00B5     		push	{lr}
 1066              		.cfi_def_cfa_offset 4
 1067              		.cfi_offset 14, -4
 1068              		.loc 1 209 0
 1069 0002 0D4A     		ldr	r2, .L134
 1070              		.loc 1 208 0
 1071 0004 0D4B     		ldr	r3, .L134+4
 1072              		.loc 1 209 0
 1073 0006 1278     		ldrb	r2, [r2]	@ zero_extendqisi2
 1074              		.loc 1 208 0
 1075 0008 1968     		ldr	r1, [r3]
 1076 000a 83B0     		sub	sp, sp, #12
 1077              		.cfi_def_cfa_offset 16
 1078              		.loc 1 208 0
 1079 000c 0191     		str	r1, [sp, #4]
 1080              		.loc 1 209 0
 1081 000e 42B1     		cbz	r2, .L130
 1082              		.loc 1 212 0
 1083 0010 0B4A     		ldr	r2, .L134+8
ARM GAS  C:\Users\shadi\AppData\Local\Temp\ccjmeXix.s 			page 20


 1084 0012 D268     		ldr	r2, [r2, #12]
 1085 0014 1268     		ldr	r2, [r2]
 1086 0016 1268     		ldr	r2, [r2]
 1087 0018 1203     		lsls	r2, r2, #12
 1088 001a 02D4     		bmi	.L130
 1089              		.loc 1 215 0
 1090 001c 094A     		ldr	r2, .L134+12
 1091 001e 1068     		ldr	r0, [r2]
 1092 0020 01E0     		b	.L127
 1093              	.L130:
 1094              		.loc 1 210 0
 1095 0022 094A     		ldr	r2, .L134+16
 1096 0024 1068     		ldr	r0, [r2]
 1097              	.L127:
 1098              		.loc 1 218 0
 1099 0026 019A     		ldr	r2, [sp, #4]
 1100 0028 1B68     		ldr	r3, [r3]
 1101 002a 9A42     		cmp	r2, r3
 1102 002c 02D1     		bne	.L133
 1103 002e 03B0     		add	sp, sp, #12
 1104              		.cfi_remember_state
 1105              		.cfi_def_cfa_offset 4
 1106              		@ sp needed
 1107 0030 5DF804FB 		ldr	pc, [sp], #4
 1108              	.L133:
 1109              		.cfi_restore_state
 1110 0034 FFF7FEFF 		bl	__stack_chk_fail
 1111              	.LVL53:
 1112              	.L135:
 1113              		.align	2
 1114              	.L134:
 1115 0038 00000000 		.word	.LANCHOR4
 1116 003c 00000000 		.word	__stack_chk_guard
 1117 0040 00000000 		.word	DCMID
 1118 0044 00000000 		.word	.LANCHOR6
 1119 0048 00000000 		.word	.LANCHOR2
 1120              		.cfi_endproc
 1121              	.LFE271:
 1122              		.size	dcmi_get_last_image_ptr, .-dcmi_get_last_image_ptr
 1123              		.section	.text.dcmi_get_first_buffer_ptr,"ax",%progbits
 1124              		.align	1
 1125              		.p2align 4,,15
 1126              		.global	dcmi_get_first_buffer_ptr
 1127              		.syntax unified
 1128              		.thumb
 1129              		.thumb_func
 1130              		.fpu fpv4-sp-d16
 1131              		.type	dcmi_get_first_buffer_ptr, %function
 1132              	dcmi_get_first_buffer_ptr:
 1133              	.LFB272:
 1134              		.loc 1 220 0
 1135              		.cfi_startproc
 1136              		@ args = 0, pretend = 0, frame = 8
 1137              		@ frame_needed = 0, uses_anonymous_args = 0
 1138 0000 00B5     		push	{lr}
 1139              		.cfi_def_cfa_offset 4
 1140              		.cfi_offset 14, -4
ARM GAS  C:\Users\shadi\AppData\Local\Temp\ccjmeXix.s 			page 21


 1141 0002 074B     		ldr	r3, .L140
 1142              		.loc 1 221 0
 1143 0004 0749     		ldr	r1, .L140+4
 1144              		.loc 1 220 0
 1145 0006 1A68     		ldr	r2, [r3]
 1146              		.loc 1 222 0
 1147 0008 0868     		ldr	r0, [r1]
 1148              		.loc 1 220 0
 1149 000a 83B0     		sub	sp, sp, #12
 1150              		.cfi_def_cfa_offset 16
 1151              		.loc 1 220 0
 1152 000c 0192     		str	r2, [sp, #4]
 1153              		.loc 1 222 0
 1154 000e 019A     		ldr	r2, [sp, #4]
 1155 0010 1B68     		ldr	r3, [r3]
 1156 0012 9A42     		cmp	r2, r3
 1157 0014 02D1     		bne	.L139
 1158 0016 03B0     		add	sp, sp, #12
 1159              		.cfi_remember_state
 1160              		.cfi_def_cfa_offset 4
 1161              		@ sp needed
 1162 0018 5DF804FB 		ldr	pc, [sp], #4
 1163              	.L139:
 1164              		.cfi_restore_state
 1165 001c FFF7FEFF 		bl	__stack_chk_fail
 1166              	.LVL54:
 1167              	.L141:
 1168              		.align	2
 1169              	.L140:
 1170 0020 00000000 		.word	__stack_chk_guard
 1171 0024 00000000 		.word	.LANCHOR2
 1172              		.cfi_endproc
 1173              	.LFE272:
 1174              		.size	dcmi_get_first_buffer_ptr, .-dcmi_get_first_buffer_ptr
 1175              		.section	.text.dcmi_get_second_buffer_ptr,"ax",%progbits
 1176              		.align	1
 1177              		.p2align 4,,15
 1178              		.global	dcmi_get_second_buffer_ptr
 1179              		.syntax unified
 1180              		.thumb
 1181              		.thumb_func
 1182              		.fpu fpv4-sp-d16
 1183              		.type	dcmi_get_second_buffer_ptr, %function
 1184              	dcmi_get_second_buffer_ptr:
 1185              	.LFB273:
 1186              		.loc 1 224 0
 1187              		.cfi_startproc
 1188              		@ args = 0, pretend = 0, frame = 8
 1189              		@ frame_needed = 0, uses_anonymous_args = 0
 1190 0000 00B5     		push	{lr}
 1191              		.cfi_def_cfa_offset 4
 1192              		.cfi_offset 14, -4
 1193 0002 074B     		ldr	r3, .L146
 1194              		.loc 1 225 0
 1195 0004 0749     		ldr	r1, .L146+4
 1196              		.loc 1 224 0
 1197 0006 1A68     		ldr	r2, [r3]
ARM GAS  C:\Users\shadi\AppData\Local\Temp\ccjmeXix.s 			page 22


 1198              		.loc 1 226 0
 1199 0008 0868     		ldr	r0, [r1]
 1200              		.loc 1 224 0
 1201 000a 83B0     		sub	sp, sp, #12
 1202              		.cfi_def_cfa_offset 16
 1203              		.loc 1 224 0
 1204 000c 0192     		str	r2, [sp, #4]
 1205              		.loc 1 226 0
 1206 000e 019A     		ldr	r2, [sp, #4]
 1207 0010 1B68     		ldr	r3, [r3]
 1208 0012 9A42     		cmp	r2, r3
 1209 0014 02D1     		bne	.L145
 1210 0016 03B0     		add	sp, sp, #12
 1211              		.cfi_remember_state
 1212              		.cfi_def_cfa_offset 4
 1213              		@ sp needed
 1214 0018 5DF804FB 		ldr	pc, [sp], #4
 1215              	.L145:
 1216              		.cfi_restore_state
 1217 001c FFF7FEFF 		bl	__stack_chk_fail
 1218              	.LVL55:
 1219              	.L147:
 1220              		.align	2
 1221              	.L146:
 1222 0020 00000000 		.word	__stack_chk_guard
 1223 0024 00000000 		.word	.LANCHOR6
 1224              		.cfi_endproc
 1225              	.LFE273:
 1226              		.size	dcmi_get_second_buffer_ptr, .-dcmi_get_second_buffer_ptr
 1227              		.section	.text.dcmi_capture_start,"ax",%progbits
 1228              		.align	1
 1229              		.p2align 4,,15
 1230              		.global	dcmi_capture_start
 1231              		.syntax unified
 1232              		.thumb
 1233              		.thumb_func
 1234              		.fpu fpv4-sp-d16
 1235              		.type	dcmi_capture_start, %function
 1236              	dcmi_capture_start:
 1237              	.LFB274:
 1238              		.loc 1 228 0
 1239              		.cfi_startproc
 1240              		@ args = 0, pretend = 0, frame = 8
 1241              		@ frame_needed = 0, uses_anonymous_args = 0
 1242 0000 00B5     		push	{lr}
 1243              		.cfi_def_cfa_offset 4
 1244              		.cfi_offset 14, -4
 1245              		.loc 1 229 0
 1246 0002 0E4A     		ldr	r2, .L156
 1247              		.loc 1 228 0
 1248 0004 0E4B     		ldr	r3, .L156+4
 1249              		.loc 1 229 0
 1250 0006 1278     		ldrb	r2, [r2]	@ zero_extendqisi2
 1251              		.loc 1 228 0
 1252 0008 1968     		ldr	r1, [r3]
 1253 000a 83B0     		sub	sp, sp, #12
 1254              		.cfi_def_cfa_offset 16
ARM GAS  C:\Users\shadi\AppData\Local\Temp\ccjmeXix.s 			page 23


 1255              		.loc 1 228 0
 1256 000c 0191     		str	r1, [sp, #4]
 1257              		.loc 1 229 0
 1258 000e 4AB1     		cbz	r2, .L155
 1259              	.LVL56:
 1260              	.LBB54:
 1261              	.LBB55:
 1262              		.loc 1 77 0
 1263 0010 019A     		ldr	r2, [sp, #4]
 1264 0012 1B68     		ldr	r3, [r3]
 1265 0014 9A42     		cmp	r2, r3
 1266 0016 0FD1     		bne	.L154
 1267 0018 0A48     		ldr	r0, .L156+8
 1268              	.LBE55:
 1269              	.LBE54:
 1270              		.loc 1 234 0
 1271 001a 03B0     		add	sp, sp, #12
 1272              		.cfi_remember_state
 1273              		.cfi_def_cfa_offset 4
 1274              		@ sp needed
 1275 001c 5DF804EB 		ldr	lr, [sp], #4
 1276              		.cfi_restore 14
 1277              		.cfi_def_cfa_offset 0
 1278              	.LBB58:
 1279              	.LBB56:
 1280              		.loc 1 77 0
 1281 0020 FFF7FEBF 		b	dcmiStartStream
 1282              	.LVL57:
 1283              	.L155:
 1284              		.cfi_restore_state
 1285              	.LBE56:
 1286              	.LBE58:
 1287              	.LBB59:
 1288              	.LBB60:
 1289              		.loc 1 66 0
 1290 0024 019A     		ldr	r2, [sp, #4]
 1291 0026 1B68     		ldr	r3, [r3]
 1292 0028 9A42     		cmp	r2, r3
 1293 002a 05D1     		bne	.L154
 1294 002c 0548     		ldr	r0, .L156+8
 1295              	.LBE60:
 1296              	.LBE59:
 1297              		.loc 1 234 0
 1298 002e 03B0     		add	sp, sp, #12
 1299              		.cfi_remember_state
 1300              		.cfi_def_cfa_offset 4
 1301              		@ sp needed
 1302 0030 5DF804EB 		ldr	lr, [sp], #4
 1303              		.cfi_restore 14
 1304              		.cfi_def_cfa_offset 0
 1305              	.LBB62:
 1306              	.LBB61:
 1307              		.loc 1 66 0
 1308 0034 FFF7FEBF 		b	dcmiStartOneShot
 1309              	.LVL58:
 1310              	.L154:
 1311              		.cfi_restore_state
ARM GAS  C:\Users\shadi\AppData\Local\Temp\ccjmeXix.s 			page 24


 1312              	.LBE61:
 1313              	.LBE62:
 1314              	.LBB63:
 1315              	.LBB57:
 1316              		.loc 1 77 0
 1317 0038 FFF7FEFF 		bl	__stack_chk_fail
 1318              	.LVL59:
 1319              	.L157:
 1320              		.align	2
 1321              	.L156:
 1322 003c 00000000 		.word	.LANCHOR8
 1323 0040 00000000 		.word	__stack_chk_guard
 1324 0044 00000000 		.word	DCMID
 1325              	.LBE57:
 1326              	.LBE63:
 1327              		.cfi_endproc
 1328              	.LFE274:
 1329              		.size	dcmi_capture_start, .-dcmi_capture_start
 1330              		.section	.text.dcmi_capture_stop,"ax",%progbits
 1331              		.align	1
 1332              		.p2align 4,,15
 1333              		.global	dcmi_capture_stop
 1334              		.syntax unified
 1335              		.thumb
 1336              		.thumb_func
 1337              		.fpu fpv4-sp-d16
 1338              		.type	dcmi_capture_stop, %function
 1339              	dcmi_capture_stop:
 1340              	.LFB275:
 1341              		.loc 1 236 0
 1342              		.cfi_startproc
 1343              		@ args = 0, pretend = 0, frame = 8
 1344              		@ frame_needed = 0, uses_anonymous_args = 0
 1345 0000 00B5     		push	{lr}
 1346              		.cfi_def_cfa_offset 4
 1347              		.cfi_offset 14, -4
 1348              		.loc 1 237 0
 1349 0002 0C4A     		ldr	r2, .L165
 1350              		.loc 1 236 0
 1351 0004 0C4B     		ldr	r3, .L165+4
 1352              		.loc 1 237 0
 1353 0006 1078     		ldrb	r0, [r2]	@ zero_extendqisi2
 1354              		.loc 1 236 0
 1355 0008 1A68     		ldr	r2, [r3]
 1356 000a 83B0     		sub	sp, sp, #12
 1357              		.cfi_def_cfa_offset 16
 1358              		.loc 1 236 0
 1359 000c 0192     		str	r2, [sp, #4]
 1360              		.loc 1 242 0
 1361 000e 019A     		ldr	r2, [sp, #4]
 1362 0010 1B68     		ldr	r3, [r3]
 1363              		.loc 1 237 0
 1364 0012 20B9     		cbnz	r0, .L164
 1365              		.loc 1 242 0
 1366 0014 9A42     		cmp	r2, r3
 1367 0016 0AD1     		bne	.L163
 1368 0018 03B0     		add	sp, sp, #12
ARM GAS  C:\Users\shadi\AppData\Local\Temp\ccjmeXix.s 			page 25


 1369              		.cfi_remember_state
 1370              		.cfi_def_cfa_offset 4
 1371              		@ sp needed
 1372 001a 5DF804FB 		ldr	pc, [sp], #4
 1373              	.L164:
 1374              		.cfi_restore_state
 1375              	.LVL60:
 1376              	.LBB64:
 1377              	.LBB65:
 1378              		.loc 1 92 0
 1379 001e 9A42     		cmp	r2, r3
 1380 0020 05D1     		bne	.L163
 1381 0022 0648     		ldr	r0, .L165+8
 1382              	.LBE65:
 1383              	.LBE64:
 1384              		.loc 1 242 0
 1385 0024 03B0     		add	sp, sp, #12
 1386              		.cfi_remember_state
 1387              		.cfi_def_cfa_offset 4
 1388              		@ sp needed
 1389 0026 5DF804EB 		ldr	lr, [sp], #4
 1390              		.cfi_restore 14
 1391              		.cfi_def_cfa_offset 0
 1392              	.LBB67:
 1393              	.LBB66:
 1394              		.loc 1 92 0
 1395 002a FFF7FEBF 		b	dcmiStopStream
 1396              	.LVL61:
 1397              	.L163:
 1398              		.cfi_restore_state
 1399              	.LBE66:
 1400              	.LBE67:
 1401              		.loc 1 242 0
 1402 002e FFF7FEFF 		bl	__stack_chk_fail
 1403              	.LVL62:
 1404              	.L166:
 1405 0032 00BF     		.align	2
 1406              	.L165:
 1407 0034 00000000 		.word	.LANCHOR8
 1408 0038 00000000 		.word	__stack_chk_guard
 1409 003c 00000000 		.word	DCMID
 1410              		.cfi_endproc
 1411              	.LFE275:
 1412              		.size	dcmi_capture_stop, .-dcmi_capture_stop
 1413              		.global	dcmicfg
 1414              		.section	.bss.capture_mode,"aw",%nobits
 1415              		.set	.LANCHOR8,. + 0
 1416              		.type	capture_mode, %object
 1417              		.size	capture_mode, 1
 1418              	capture_mode:
 1419 0000 00       		.space	1
 1420              		.section	.bss.dcmi_prepared,"aw",%nobits
 1421              		.set	.LANCHOR3,. + 0
 1422              		.type	dcmi_prepared, %object
 1423              		.size	dcmi_prepared, 1
 1424              	dcmi_prepared:
 1425 0000 00       		.space	1
ARM GAS  C:\Users\shadi\AppData\Local\Temp\ccjmeXix.s 			page 26


 1426              		.section	.bss.double_buffering,"aw",%nobits
 1427              		.set	.LANCHOR4,. + 0
 1428              		.type	double_buffering, %object
 1429              		.size	double_buffering, 1
 1430              	double_buffering:
 1431 0000 00       		.space	1
 1432              		.section	.bss.image_buff1,"aw",%nobits
 1433              		.align	2
 1434              		.set	.LANCHOR2,. + 0
 1435              		.type	image_buff1, %object
 1436              		.size	image_buff1, 4
 1437              	image_buff1:
 1438 0000 00000000 		.space	4
 1439              		.section	.bss.image_buff2,"aw",%nobits
 1440              		.align	2
 1441              		.set	.LANCHOR6,. + 0
 1442              		.type	image_buff2, %object
 1443              		.size	image_buff2, 4
 1444              	image_buff2:
 1445 0000 00000000 		.space	4
 1446              		.section	.bss.image_ready,"aw",%nobits
 1447              		.set	.LANCHOR0,. + 0
 1448              		.type	image_ready, %object
 1449              		.size	image_ready, 1
 1450              	image_ready:
 1451 0000 00       		.space	1
 1452              		.section	.data.dcmi_condvar,"aw",%progbits
 1453              		.align	2
 1454              		.set	.LANCHOR1,. + 0
 1455              		.type	dcmi_condvar, %object
 1456              		.size	dcmi_condvar, 8
 1457              	dcmi_condvar:
 1458 0000 00000000 		.word	dcmi_condvar
 1459 0004 00000000 		.word	dcmi_condvar
 1460              		.section	.data.dcmi_lock,"aw",%progbits
 1461              		.align	2
 1462              		.set	.LANCHOR7,. + 0
 1463              		.type	dcmi_lock, %object
 1464              		.size	dcmi_lock, 20
 1465              	dcmi_lock:
 1466 0000 00000000 		.word	dcmi_lock
 1467 0004 00000000 		.word	dcmi_lock
 1468 0008 00000000 		.word	0
 1469 000c 00000000 		.word	0
 1470 0010 00000000 		.word	0
 1471              		.section	.rodata.dcmicfg,"a",%progbits
 1472              		.align	2
 1473              		.set	.LANCHOR5,. + 0
 1474              		.type	dcmicfg, %object
 1475              		.size	dcmicfg, 16
 1476              	dcmicfg:
 1477 0000 00000000 		.word	frameEndCb
 1478 0004 00000000 		.word	dmaTransferEndCb
 1479 0008 00000000 		.word	dcmiErrorCb
 1480 000c 20000000 		.word	32
 1481              		.text
 1482              	.Letext0:
ARM GAS  C:\Users\shadi\AppData\Local\Temp\ccjmeXix.s 			page 27


 1483              		.file 4 "c:\\users\\shadi\\downloads\\eclipse_e-puck2\\tools\\gcc-arm-none-eabi-7-2017-q4-major-wi
 1484              		.file 5 "c:\\users\\shadi\\downloads\\eclipse_e-puck2\\tools\\gcc-arm-none-eabi-7-2017-q4-major-wi
 1485              		.file 6 "c:\\users\\shadi\\downloads\\eclipse_e-puck2\\tools\\gcc-arm-none-eabi-7-2017-q4-major-wi
 1486              		.file 7 "../../lib/e-puck2_main-processor/ChibiOS//os/rt/ports/ARMCMx/compilers/GCC/chtypes.h"
 1487              		.file 8 "../../lib/e-puck2_main-processor/ChibiOS//os/rt/include/chsystypes.h"
 1488              		.file 9 "../../lib/e-puck2_main-processor/ChibiOS//os/rt/include/chschd.h"
 1489              		.file 10 "../../lib/e-puck2_main-processor/ChibiOS//os/ext/CMSIS/include/core_cm4.h"
 1490              		.file 11 "../../lib/e-puck2_main-processor/ChibiOS//os/ext/CMSIS/ST/system_stm32f4xx.h"
 1491              		.file 12 "../../lib/e-puck2_main-processor/ChibiOS//os/ext/CMSIS/ST/stm32f407xx.h"
 1492              		.file 13 "../../lib/e-puck2_main-processor/ChibiOS//os/rt/ports/ARMCMx/chcore.h"
 1493              		.file 14 "../../lib/e-puck2_main-processor/ChibiOS//os/rt/ports/ARMCMx/chcore_v7m.h"
 1494              		.file 15 "../../lib/e-puck2_main-processor/ChibiOS//os/rt/include/chdebug.h"
 1495              		.file 16 "../../lib/e-puck2_main-processor/ChibiOS//os/rt/include/chtm.h"
 1496              		.file 17 "../../lib/e-puck2_main-processor/ChibiOS//os/rt/include/chstats.h"
 1497              		.file 18 "../../lib/e-puck2_main-processor/ChibiOS//os/rt/include/chsem.h"
 1498              		.file 19 "../../lib/e-puck2_main-processor/ChibiOS//os/rt/include/chmtx.h"
 1499              		.file 20 "../../lib/e-puck2_main-processor/ChibiOS//os/rt/include/chregistry.h"
 1500              		.file 21 "../../lib/e-puck2_main-processor/ChibiOS//os/rt/include/chcond.h"
 1501              		.file 22 "../../lib/e-puck2_main-processor/ChibiOS//os/rt/include/chevents.h"
 1502              		.file 23 "../../lib/e-puck2_main-processor/ChibiOS//os/rt/include/chqueues.h"
 1503              		.file 24 "../../lib/e-puck2_main-processor/ChibiOS//os/hal/ports/STM32/STM32F4xx/stm32_dma.h"
 1504              		.file 25 "../../lib/e-puck2_main-processor/ChibiOS//os/hal/include/hal_ioblock.h"
 1505              		.file 26 "../../lib/e-puck2_main-processor/ChibiOS//os/hal/ports/STM32/LLD/GPIOv2/pal_lld.h"
 1506              		.file 27 "../../lib/e-puck2_main-processor/ChibiOS//os/hal/include/adc.h"
 1507              		.file 28 "../../lib/e-puck2_main-processor/ChibiOS//os/hal/ports/STM32/STM32F4xx/adc_lld.h"
 1508              		.file 29 "../../lib/e-puck2_main-processor/ChibiOS//os/hal/include/can.h"
 1509              		.file 30 "../../lib/e-puck2_main-processor/ChibiOS//os/hal/ports/STM32/LLD/can_lld.h"
 1510              		.file 31 "../../lib/e-puck2_main-processor/ChibiOS//os/hal/include/dac.h"
 1511              		.file 32 "../../lib/e-puck2_main-processor/ChibiOS//os/hal/ports/STM32/LLD/DACv1/dac_lld.h"
 1512              		.file 33 "../../lib/e-puck2_main-processor/ChibiOS//os/hal/include/ext.h"
 1513              		.file 34 "../../lib/e-puck2_main-processor/ChibiOS//os/hal/ports/STM32/LLD/ext_lld.h"
 1514              		.file 35 "../../lib/e-puck2_main-processor/ChibiOS//os/hal/include/gpt.h"
 1515              		.file 36 "../../lib/e-puck2_main-processor/ChibiOS//os/hal/ports/STM32/LLD/TIMv1/gpt_lld.h"
 1516              		.file 37 "../../lib/e-puck2_main-processor/ChibiOS//os/hal/ports/STM32/LLD/TIMv1/stm32_tim.h"
 1517              		.file 38 "../../lib/e-puck2_main-processor/ChibiOS//os/hal/include/i2c.h"
 1518              		.file 39 "../../lib/e-puck2_main-processor/ChibiOS//os/hal/ports/STM32/LLD/I2Cv1/i2c_lld.h"
 1519              		.file 40 "../../lib/e-puck2_main-processor/ChibiOS//os/hal/include/i2s.h"
 1520              		.file 41 "../../lib/e-puck2_main-processor/ChibiOS//os/hal/ports/STM32/LLD/SPIv1/i2s_lld.h"
 1521              		.file 42 "../../lib/e-puck2_main-processor/ChibiOS//os/hal/include/pwm.h"
 1522              		.file 43 "../../lib/e-puck2_main-processor/ChibiOS//os/hal/ports/STM32/LLD/TIMv1/pwm_lld.h"
 1523              		.file 44 "../../lib/e-puck2_main-processor/ChibiOS//os/hal/include/serial.h"
 1524              		.file 45 "../../lib/e-puck2_main-processor/ChibiOS//os/hal/ports/STM32/LLD/USARTv1/serial_lld.h"
 1525              		.file 46 "../../lib/e-puck2_main-processor/ChibiOS//os/hal/include/sdc.h"
 1526              		.file 47 "../../lib/e-puck2_main-processor/ChibiOS//os/hal/ports/STM32/LLD/sdc_lld.h"
 1527              		.file 48 "../../lib/e-puck2_main-processor/ChibiOS//os/hal/include/spi.h"
 1528              		.file 49 "../../lib/e-puck2_main-processor/ChibiOS//os/hal/ports/STM32/LLD/SPIv1/spi_lld.h"
 1529              		.file 50 "../../lib/e-puck2_main-processor/ChibiOS//os/hal/include/usb.h"
 1530              		.file 51 "../../lib/e-puck2_main-processor/ChibiOS//os/hal/ports/STM32/LLD/OTGv1/usb_lld.h"
 1531              		.file 52 "../../lib/e-puck2_main-processor/ChibiOS//os/hal/ports/STM32/LLD/OTGv1/stm32_otg.h"
 1532              		.file 53 "c:\\users\\shadi\\downloads\\eclipse_e-puck2\\tools\\gcc-arm-none-eabi-7-2017-q4-major-w
 1533              		.file 54 "c:\\users\\shadi\\downloads\\eclipse_e-puck2\\tools\\gcc-arm-none-eabi-7-2017-q4-major-w
 1534              		.file 55 "c:\\users\\shadi\\downloads\\eclipse_e-puck2\\tools\\gcc-arm-none-eabi-7-2017-q4-major-w
 1535              		.file 56 "c:\\users\\shadi\\downloads\\eclipse_e-puck2\\tools\\gcc-arm-none-eabi-7-2017-q4-major-w
 1536              		.file 57 "../../lib/e-puck2_main-processor/ChibiOS_ext/os/hal/include/../ports/STM32/STM32F4xx/dcm
 1537              		.file 58 "../../lib/e-puck2_main-processor/src/camera/dcmi_camera.h"
 1538              		.file 59 "../../lib/e-puck2_main-processor/ChibiOS_ext/os/hal/include/dcmi.h"
 1539              		.file 60 "../../lib/e-puck2_main-processor/src/camera/po8030.h"
ARM GAS  C:\Users\shadi\AppData\Local\Temp\ccjmeXix.s 			page 28

