ARM GAS  C:\Users\shadi\AppData\Local\Temp\ccXGg8i2.s 			page 1


   1              		.cpu cortex-m4
   2              		.eabi_attribute 27, 1
   3              		.eabi_attribute 28, 1
   4              		.eabi_attribute 20, 1
   5              		.eabi_attribute 21, 1
   6              		.eabi_attribute 23, 3
   7              		.eabi_attribute 24, 1
   8              		.eabi_attribute 25, 1
   9              		.eabi_attribute 26, 1
  10              		.eabi_attribute 30, 2
  11              		.eabi_attribute 34, 1
  12              		.eabi_attribute 18, 4
  13              		.file	"dcmi_lld.c"
  14              		.text
  15              	.Ltext0:
  16              		.cfi_sections	.debug_frame
  17              		.section	.text.dcmi_lld_stop_stream.part.0,"ax",%progbits
  18              		.align	1
  19              		.p2align 4,,15
  20              		.syntax unified
  21              		.thumb
  22              		.thumb_func
  23              		.fpu fpv4-sp-d16
  24              		.type	dcmi_lld_stop_stream.part.0, %function
  25              	dcmi_lld_stop_stream.part.0:
  26              	.LFB265:
  27              		.file 1 "../../lib/e-puck2_main-processor/ChibiOS_ext/os/hal/ports/STM32/STM32F4xx/dcmi_lld.c"
  28              		.loc 1 240 0
  29              		.cfi_startproc
  30              		@ args = 0, pretend = 0, frame = 8
  31              		@ frame_needed = 0, uses_anonymous_args = 0
  32              	.LVL0:
  33 0000 30B5     		push	{r4, r5, lr}
  34              		.cfi_def_cfa_offset 12
  35              		.cfi_offset 4, -12
  36              		.cfi_offset 5, -8
  37              		.cfi_offset 14, -4
  38 0002 104D     		ldr	r5, .L12
  39              		.loc 1 243 0
  40 0004 8168     		ldr	r1, [r0, #8]
  41              		.loc 1 240 0
  42 0006 2B68     		ldr	r3, [r5]
  43              	.LBB32:
  44              	.LBB33:
  45              	.LBB34:
  46              		.file 2 "../../lib/e-puck2_main-processor/ChibiOS//os/rt/include/chvt.h"
  47              		.loc 2 231 0
  48 0008 0F4A     		ldr	r2, .L12+4
  49              	.LBE34:
  50              	.LBE33:
  51              	.LBE32:
  52              		.loc 1 240 0
  53 000a 83B0     		sub	sp, sp, #12
  54              		.cfi_def_cfa_offset 24
  55              		.loc 1 240 0
  56 000c 0193     		str	r3, [sp, #4]
  57              		.loc 1 243 0
ARM GAS  C:\Users\shadi\AppData\Local\Temp\ccXGg8i2.s 			page 2


  58 000e 0B68     		ldr	r3, [r1]
  59 0010 23F00103 		bic	r3, r3, #1
  60 0014 0B60     		str	r3, [r1]
  61              		.loc 1 250 0
  62 0016 8168     		ldr	r1, [r0, #8]
  63              	.LBB37:
  64              	.LBB36:
  65              	.LBB35:
  66              		.loc 2 231 0
  67 0018 946A     		ldr	r4, [r2, #40]
  68              	.LVL1:
  69 001a 03E0     		b	.L3
  70              	.LVL2:
  71              	.L10:
  72              	.LBE35:
  73              	.LBE36:
  74              	.LBE37:
  75              	.LBB38:
  76              	.LBB39:
  77              	.LBB40:
  78 001c 936A     		ldr	r3, [r2, #40]
  79              	.LBE40:
  80              	.LBE39:
  81              	.LBE38:
  82              	.LBB41:
  83              	.LBB42:
  84              	.LBB43:
  85              		.loc 2 288 0
  86 001e 1B1B     		subs	r3, r3, r4
  87              	.LBE43:
  88              	.LBE42:
  89              	.LBE41:
  90              		.loc 1 254 0
  91 0020 C72B     		cmp	r3, #199
  92 0022 09D8     		bhi	.L9
  93              	.L3:
  94              		.loc 1 250 0
  95 0024 0868     		ldr	r0, [r1]
  96 0026 10F00100 		ands	r0, r0, #1
  97 002a F7D1     		bne	.L10
  98              	.L1:
  99              		.loc 1 260 0
 100 002c 019A     		ldr	r2, [sp, #4]
 101 002e 2B68     		ldr	r3, [r5]
 102 0030 9A42     		cmp	r2, r3
 103 0032 04D1     		bne	.L11
 104 0034 03B0     		add	sp, sp, #12
 105              		.cfi_remember_state
 106              		.cfi_def_cfa_offset 12
 107              		@ sp needed
 108 0036 30BD     		pop	{r4, r5, pc}
 109              	.LVL3:
 110              	.L9:
 111              		.cfi_restore_state
 112              		.loc 1 255 0
 113 0038 4FF0FF30 		mov	r0, #-1
 114 003c F6E7     		b	.L1
ARM GAS  C:\Users\shadi\AppData\Local\Temp\ccXGg8i2.s 			page 3


 115              	.L11:
 116              		.loc 1 260 0
 117 003e FFF7FEFF 		bl	__stack_chk_fail
 118              	.LVL4:
 119              	.L13:
 120 0042 00BF     		.align	2
 121              	.L12:
 122 0044 00000000 		.word	__stack_chk_guard
 123 0048 00000000 		.word	ch
 124              		.cfi_endproc
 125              	.LFE265:
 126              		.size	dcmi_lld_stop_stream.part.0, .-dcmi_lld_stop_stream.part.0
 127              		.section	.text.dcmi_lld_serve_dma_rx_interrupt,"ax",%progbits
 128              		.align	1
 129              		.p2align 4,,15
 130              		.syntax unified
 131              		.thumb
 132              		.thumb_func
 133              		.fpu fpv4-sp-d16
 134              		.type	dcmi_lld_serve_dma_rx_interrupt, %function
 135              	dcmi_lld_serve_dma_rx_interrupt:
 136              	.LFB257:
 137              		.loc 1 63 0
 138              		.cfi_startproc
 139              		@ args = 0, pretend = 0, frame = 8
 140              		@ frame_needed = 0, uses_anonymous_args = 0
 141              	.LVL5:
 142 0000 30B5     		push	{r4, r5, lr}
 143              		.cfi_def_cfa_offset 12
 144              		.cfi_offset 4, -12
 145              		.cfi_offset 5, -8
 146              		.cfi_offset 14, -4
 147 0002 184D     		ldr	r5, .L29
 148 0004 83B0     		sub	sp, sp, #12
 149              		.cfi_def_cfa_offset 24
 150              		.loc 1 63 0
 151 0006 2B68     		ldr	r3, [r5]
 152 0008 0193     		str	r3, [sp, #4]
 153              		.loc 1 66 0
 154 000a 11F00C0F 		tst	r1, #12
 155              		.loc 1 63 0
 156 000e 0446     		mov	r4, r0
 157              		.loc 1 66 0
 158 0010 0AD0     		beq	.L25
 159              		.loc 1 67 0
 160 0012 0378     		ldrb	r3, [r0]	@ zero_extendqisi2
 161 0014 032B     		cmp	r3, #3
 162 0016 13D0     		beq	.L27
 163              		.loc 1 67 0 is_stmt 0 discriminator 3
 164 0018 0622     		movs	r2, #6
 165 001a 6368     		ldr	r3, [r4, #4]
 166 001c 2270     		strb	r2, [r4]
 167 001e 9A68     		ldr	r2, [r3, #8]
 168 0020 1AB1     		cbz	r2, .L16
 169              	.LVL6:
 170              	.L28:
 171              		.loc 1 67 0 discriminator 4
ARM GAS  C:\Users\shadi\AppData\Local\Temp\ccXGg8i2.s 			page 4


 172 0022 0021     		movs	r1, #0
 173 0024 2046     		mov	r0, r4
 174 0026 9047     		blx	r2
 175              	.LVL7:
 176              	.L25:
 177 0028 6368     		ldr	r3, [r4, #4]
 178              	.L16:
 179              		.loc 1 69 0 is_stmt 1
 180 002a 5B68     		ldr	r3, [r3, #4]
 181 002c 8BB1     		cbz	r3, .L14
 182              		.loc 1 70 0
 183 002e 0199     		ldr	r1, [sp, #4]
 184 0030 2A68     		ldr	r2, [r5]
 185 0032 9142     		cmp	r1, r2
 186 0034 13D1     		bne	.L26
 187 0036 2046     		mov	r0, r4
 188              		.loc 1 73 0
 189 0038 03B0     		add	sp, sp, #12
 190              		.cfi_remember_state
 191              		.cfi_def_cfa_offset 12
 192              		@ sp needed
 193 003a BDE83040 		pop	{r4, r5, lr}
 194              		.cfi_restore 14
 195              		.cfi_restore 5
 196              		.cfi_restore 4
 197              		.cfi_def_cfa_offset 0
 198              	.LVL8:
 199              		.loc 1 70 0
 200 003e 1847     		bx	r3	@ indirect register sibling call
 201              	.LVL9:
 202              	.L27:
 203              		.cfi_restore_state
 204              	.LBB44:
 205              	.LBB45:
 206 0040 FFF7FEFF 		bl	dcmi_lld_stop_stream.part.0
 207              	.LVL10:
 208              	.LBE45:
 209              	.LBE44:
 210              		.loc 1 67 0
 211 0044 0622     		movs	r2, #6
 212 0046 6368     		ldr	r3, [r4, #4]
 213 0048 2270     		strb	r2, [r4]
 214 004a 9A68     		ldr	r2, [r3, #8]
 215 004c 002A     		cmp	r2, #0
 216 004e E8D1     		bne	.L28
 217 0050 EBE7     		b	.L16
 218              	.LVL11:
 219              	.L14:
 220              		.loc 1 73 0
 221 0052 019A     		ldr	r2, [sp, #4]
 222 0054 2B68     		ldr	r3, [r5]
 223 0056 9A42     		cmp	r2, r3
 224 0058 01D1     		bne	.L26
 225 005a 03B0     		add	sp, sp, #12
 226              		.cfi_remember_state
 227              		.cfi_def_cfa_offset 12
 228              		@ sp needed
ARM GAS  C:\Users\shadi\AppData\Local\Temp\ccXGg8i2.s 			page 5


 229 005c 30BD     		pop	{r4, r5, pc}
 230              	.LVL12:
 231              	.L26:
 232              		.cfi_restore_state
 233 005e FFF7FEFF 		bl	__stack_chk_fail
 234              	.LVL13:
 235              	.L30:
 236 0062 00BF     		.align	2
 237              	.L29:
 238 0064 00000000 		.word	__stack_chk_guard
 239              		.cfi_endproc
 240              	.LFE257:
 241              		.size	dcmi_lld_serve_dma_rx_interrupt, .-dcmi_lld_serve_dma_rx_interrupt
 242              		.section	.text.Vector178,"ax",%progbits
 243              		.align	1
 244              		.p2align 4,,15
 245              		.global	Vector178
 246              		.syntax unified
 247              		.thumb
 248              		.thumb_func
 249              		.fpu fpv4-sp-d16
 250              		.type	Vector178, %function
 251              	Vector178:
 252              	.LFB258:
 253              		.loc 1 84 0
 254              		.cfi_startproc
 255              		@ args = 0, pretend = 0, frame = 8
 256              		@ frame_needed = 0, uses_anonymous_args = 0
 257 0000 F0B5     		push	{r4, r5, r6, r7, lr}
 258              		.cfi_def_cfa_offset 20
 259              		.cfi_offset 4, -20
 260              		.cfi_offset 5, -16
 261              		.cfi_offset 6, -12
 262              		.cfi_offset 7, -8
 263              		.cfi_offset 14, -4
 264 0002 284D     		ldr	r5, .L59
 265 0004 83B0     		sub	sp, sp, #12
 266              		.cfi_def_cfa_offset 32
 267              		.loc 1 84 0
 268 0006 2B68     		ldr	r3, [r5]
 269 0008 0193     		str	r3, [sp, #4]
 270              		.loc 1 85 0
 271 000a FFF7FEFF 		bl	_stats_increase_irq
 272              	.LVL14:
 273 000e FFF7FEFF 		bl	_dbg_check_enter_isr
 274              	.LVL15:
 275              		.loc 1 87 0
 276 0012 254B     		ldr	r3, .L59+4
 277 0014 1E69     		ldr	r6, [r3, #16]
 278              	.LVL16:
 279              		.loc 1 88 0
 280 0016 F207     		lsls	r2, r6, #31
 281 0018 15D5     		bpl	.L32
 282              		.loc 1 89 0
 283 001a 5A69     		ldr	r2, [r3, #20]
 284              	.LBB46:
 285              		.loc 1 90 0
ARM GAS  C:\Users\shadi\AppData\Local\Temp\ccXGg8i2.s 			page 6


 286 001c 234C     		ldr	r4, .L59+8
 287              	.LBE46:
 288              		.loc 1 89 0
 289 001e 42F00102 		orr	r2, r2, #1
 290 0022 5A61     		str	r2, [r3, #20]
 291              	.LBB47:
 292              		.loc 1 90 0
 293 0024 2778     		ldrb	r7, [r4]	@ zero_extendqisi2
 294              	.LVL17:
 295 0026 BB1F     		subs	r3, r7, #6
 296 0028 012B     		cmp	r3, #1
 297 002a 2AD9     		bls	.L31
 298              		.loc 1 90 0 is_stmt 0 discriminator 1
 299 002c 0522     		movs	r2, #5
 300 002e 6368     		ldr	r3, [r4, #4]
 301 0030 2270     		strb	r2, [r4]
 302 0032 1B68     		ldr	r3, [r3]
 303 0034 0BB1     		cbz	r3, .L34
 304              		.loc 1 90 0 discriminator 2
 305 0036 2046     		mov	r0, r4
 306 0038 9847     		blx	r3
 307              	.LVL18:
 308              	.L34:
 309              		.loc 1 90 0 discriminator 4
 310 003a 042F     		cmp	r7, #4
 311 003c 27D0     		beq	.L36
 312              		.loc 1 90 0 discriminator 6
 313 003e 022F     		cmp	r7, #2
 314 0040 25D0     		beq	.L36
 315              		.loc 1 90 0 discriminator 8
 316 0042 0323     		movs	r3, #3
 317 0044 2370     		strb	r3, [r4]
 318              	.LVL19:
 319              	.L32:
 320              	.LBE47:
 321              		.loc 1 92 0 is_stmt 1
 322 0046 B307     		lsls	r3, r6, #30
 323 0048 10D5     		bpl	.L38
 324              	.L58:
 325              		.loc 1 93 0
 326 004a 174A     		ldr	r2, .L59+4
 327              		.loc 1 94 0
 328 004c 174C     		ldr	r4, .L59+8
 329              		.loc 1 93 0
 330 004e 5369     		ldr	r3, [r2, #20]
 331 0050 43F00203 		orr	r3, r3, #2
 332 0054 5361     		str	r3, [r2, #20]
 333              		.loc 1 94 0
 334 0056 2378     		ldrb	r3, [r4]	@ zero_extendqisi2
 335 0058 032B     		cmp	r3, #3
 336 005a 1DD0     		beq	.L57
 337              	.L39:
 338              		.loc 1 94 0 is_stmt 0 discriminator 3
 339 005c 6368     		ldr	r3, [r4, #4]
 340 005e 9B68     		ldr	r3, [r3, #8]
 341 0060 0622     		movs	r2, #6
 342 0062 2270     		strb	r2, [r4]
ARM GAS  C:\Users\shadi\AppData\Local\Temp\ccXGg8i2.s 			page 7


 343 0064 13B1     		cbz	r3, .L38
 344              		.loc 1 94 0 discriminator 4
 345 0066 0121     		movs	r1, #1
 346 0068 1048     		ldr	r0, .L59+8
 347 006a 9847     		blx	r3
 348              	.LVL20:
 349              	.L38:
 350              		.loc 1 98 0 is_stmt 1
 351 006c FFF7FEFF 		bl	_dbg_check_leave_isr
 352              	.LVL21:
 353 0070 019A     		ldr	r2, [sp, #4]
 354 0072 2B68     		ldr	r3, [r5]
 355 0074 9A42     		cmp	r2, r3
 356 0076 13D1     		bne	.L56
 357              		.loc 1 99 0
 358 0078 03B0     		add	sp, sp, #12
 359              		.cfi_remember_state
 360              		.cfi_def_cfa_offset 20
 361              		@ sp needed
 362 007a BDE8F040 		pop	{r4, r5, r6, r7, lr}
 363              		.cfi_restore 14
 364              		.cfi_restore 7
 365              		.cfi_restore 6
 366              		.cfi_restore 5
 367              		.cfi_restore 4
 368              		.cfi_def_cfa_offset 0
 369              	.LVL22:
 370              		.loc 1 98 0
 371 007e FFF7FEBF 		b	_port_irq_epilogue
 372              	.LVL23:
 373              	.L31:
 374              		.cfi_restore_state
 375              		.loc 1 99 0
 376 0082 019A     		ldr	r2, [sp, #4]
 377 0084 2B68     		ldr	r3, [r5]
 378 0086 9A42     		cmp	r2, r3
 379 0088 0AD1     		bne	.L56
 380 008a 03B0     		add	sp, sp, #12
 381              		.cfi_remember_state
 382              		.cfi_def_cfa_offset 20
 383              		@ sp needed
 384 008c F0BD     		pop	{r4, r5, r6, r7, pc}
 385              	.LVL24:
 386              	.L36:
 387              		.cfi_restore_state
 388              	.LBB48:
 389              		.loc 1 90 0 discriminator 5
 390 008e 0223     		movs	r3, #2
 391 0090 2370     		strb	r3, [r4]
 392              	.LBE48:
 393              		.loc 1 92 0 discriminator 5
 394 0092 B307     		lsls	r3, r6, #30
 395 0094 EAD5     		bpl	.L38
 396 0096 D8E7     		b	.L58
 397              	.LVL25:
 398              	.L57:
 399              	.LBB49:
ARM GAS  C:\Users\shadi\AppData\Local\Temp\ccXGg8i2.s 			page 8


 400              	.LBB50:
 401 0098 2046     		mov	r0, r4
 402 009a FFF7FEFF 		bl	dcmi_lld_stop_stream.part.0
 403              	.LVL26:
 404 009e DDE7     		b	.L39
 405              	.LVL27:
 406              	.L56:
 407              	.LBE50:
 408              	.LBE49:
 409              		.loc 1 99 0
 410 00a0 FFF7FEFF 		bl	__stack_chk_fail
 411              	.LVL28:
 412              	.L60:
 413              		.align	2
 414              	.L59:
 415 00a4 00000000 		.word	__stack_chk_guard
 416 00a8 00000550 		.word	1342504960
 417 00ac 00000000 		.word	.LANCHOR0
 418              		.cfi_endproc
 419              	.LFE258:
 420              		.size	Vector178, .-Vector178
 421              		.section	.text.dcmi_lld_init,"ax",%progbits
 422              		.align	1
 423              		.p2align 4,,15
 424              		.global	dcmi_lld_init
 425              		.syntax unified
 426              		.thumb
 427              		.thumb_func
 428              		.fpu fpv4-sp-d16
 429              		.type	dcmi_lld_init, %function
 430              	dcmi_lld_init:
 431              	.LFB259:
 432              		.loc 1 110 0
 433              		.cfi_startproc
 434              		@ args = 0, pretend = 0, frame = 8
 435              		@ frame_needed = 0, uses_anonymous_args = 0
 436 0000 30B5     		push	{r4, r5, lr}
 437              		.cfi_def_cfa_offset 12
 438              		.cfi_offset 4, -12
 439              		.cfi_offset 5, -8
 440              		.cfi_offset 14, -4
 441 0002 0B4D     		ldr	r5, .L65
 442              		.loc 1 111 0
 443 0004 0B4C     		ldr	r4, .L65+4
 444              		.loc 1 110 0
 445 0006 2B68     		ldr	r3, [r5]
 446 0008 83B0     		sub	sp, sp, #12
 447              		.cfi_def_cfa_offset 24
 448              		.loc 1 111 0
 449 000a 2046     		mov	r0, r4
 450              		.loc 1 110 0
 451 000c 0193     		str	r3, [sp, #4]
 452              		.loc 1 111 0
 453 000e FFF7FEFF 		bl	dcmiObjectInit
 454              	.LVL29:
 455              		.loc 1 127 0
 456 0012 019A     		ldr	r2, [sp, #4]
ARM GAS  C:\Users\shadi\AppData\Local\Temp\ccXGg8i2.s 			page 9


 457 0014 2B68     		ldr	r3, [r5]
 458              		.loc 1 113 0
 459 0016 0848     		ldr	r0, .L65+8
 460              		.loc 1 112 0
 461 0018 084D     		ldr	r5, .L65+12
 462              		.loc 1 114 0
 463 001a 0949     		ldr	r1, .L65+16
 464 001c 2161     		str	r1, [r4, #16]
 465              		.loc 1 127 0
 466 001e 9A42     		cmp	r2, r3
 467              		.loc 1 113 0
 468 0020 C4E90250 		strd	r5, r0, [r4, #8]
 469              		.loc 1 127 0
 470 0024 01D1     		bne	.L64
 471 0026 03B0     		add	sp, sp, #12
 472              		.cfi_remember_state
 473              		.cfi_def_cfa_offset 12
 474              		@ sp needed
 475 0028 30BD     		pop	{r4, r5, pc}
 476              	.L64:
 477              		.cfi_restore_state
 478 002a FFF7FEFF 		bl	__stack_chk_fail
 479              	.LVL30:
 480              	.L66:
 481 002e 00BF     		.align	2
 482              	.L65:
 483 0030 00000000 		.word	__stack_chk_guard
 484 0034 00000000 		.word	.LANCHOR0
 485 0038 6C000000 		.word	_stm32_dma_streams+108
 486 003c 00000550 		.word	1342504960
 487 0040 16550202 		.word	33707286
 488              		.cfi_endproc
 489              	.LFE259:
 490              		.size	dcmi_lld_init, .-dcmi_lld_init
 491              		.section	.text.dcmi_lld_prepare,"ax",%progbits
 492              		.align	1
 493              		.p2align 4,,15
 494              		.global	dcmi_lld_prepare
 495              		.syntax unified
 496              		.thumb
 497              		.thumb_func
 498              		.fpu fpv4-sp-d16
 499              		.type	dcmi_lld_prepare, %function
 500              	dcmi_lld_prepare:
 501              	.LFB260:
 502              		.loc 1 139 0
 503              		.cfi_startproc
 504              		@ args = 0, pretend = 0, frame = 8
 505              		@ frame_needed = 0, uses_anonymous_args = 0
 506              	.LVL31:
 507 0000 2DE9F041 		push	{r4, r5, r6, r7, r8, lr}
 508              		.cfi_def_cfa_offset 24
 509              		.cfi_offset 4, -24
 510              		.cfi_offset 5, -20
 511              		.cfi_offset 6, -16
 512              		.cfi_offset 7, -12
 513              		.cfi_offset 8, -8
ARM GAS  C:\Users\shadi\AppData\Local\Temp\ccXGg8i2.s 			page 10


 514              		.cfi_offset 14, -4
 515 0004 2F4C     		ldr	r4, .L81
 516              		.loc 1 142 0
 517 0006 0578     		ldrb	r5, [r0]	@ zero_extendqisi2
 518              		.loc 1 139 0
 519 0008 2668     		ldr	r6, [r4]
 520 000a 82B0     		sub	sp, sp, #8
 521              		.cfi_def_cfa_offset 32
 522              		.loc 1 142 0
 523 000c 012D     		cmp	r5, #1
 524              		.loc 1 139 0
 525 000e 0196     		str	r6, [sp, #4]
 526              		.loc 1 142 0
 527 0010 06D0     		beq	.L77
 528              	.LVL32:
 529              	.L67:
 530              		.loc 1 174 0
 531 0012 019A     		ldr	r2, [sp, #4]
 532 0014 2368     		ldr	r3, [r4]
 533 0016 9A42     		cmp	r2, r3
 534 0018 52D1     		bne	.L78
 535 001a 02B0     		add	sp, sp, #8
 536              		.cfi_remember_state
 537              		.cfi_def_cfa_offset 24
 538              		@ sp needed
 539 001c BDE8F081 		pop	{r4, r5, r6, r7, r8, pc}
 540              	.LVL33:
 541              	.L77:
 542              		.cfi_restore_state
 543              		.loc 1 143 0
 544 0020 294D     		ldr	r5, .L81+4
 545 0022 A842     		cmp	r0, r5
 546 0024 F5D1     		bne	.L67
 547 0026 0E46     		mov	r6, r1
 548 0028 9046     		mov	r8, r2
 549 002a 1F46     		mov	r7, r3
 550              	.LBB51:
 551              		.loc 1 146 0
 552 002c 274A     		ldr	r2, .L81+8
 553              	.LVL34:
 554 002e E868     		ldr	r0, [r5, #12]
 555              	.LVL35:
 556 0030 2B46     		mov	r3, r5
 557              	.LVL36:
 558 0032 0C21     		movs	r1, #12
 559              	.LVL37:
 560 0034 FFF7FEFF 		bl	dmaStreamAllocate
 561              	.LVL38:
 562              		.loc 1 147 0
 563 0038 0028     		cmp	r0, #0
 564 003a 39D1     		bne	.L79
 565              	.LVL39:
 566              	.L69:
 567              		.loc 1 148 0
 568 003c D5E90232 		ldrd	r3, r2, [r5, #8]
 569 0040 1268     		ldr	r2, [r2]
 570 0042 2833     		adds	r3, r3, #40
ARM GAS  C:\Users\shadi\AppData\Local\Temp\ccXGg8i2.s 			page 11


 571 0044 9360     		str	r3, [r2, #8]
 572              		.loc 1 149 0
 573 0046 EB68     		ldr	r3, [r5, #12]
 574 0048 1A68     		ldr	r2, [r3]
 575 004a 0421     		movs	r1, #4
 576 004c 5161     		str	r1, [r2, #20]
 577              		.loc 1 150 0
 578 004e 1B68     		ldr	r3, [r3]
 579 0050 C3F80C80 		str	r8, [r3, #12]
 580              		.loc 1 151 0
 581 0054 EB68     		ldr	r3, [r5, #12]
 582 0056 1A68     		ldr	r2, [r3]
 583 0058 1761     		str	r7, [r2, #16]
 584              		.loc 1 152 0
 585 005a 1B68     		ldr	r3, [r3]
 586 005c B608     		lsrs	r6, r6, #2
 587              	.LVL40:
 588 005e 5E60     		str	r6, [r3, #4]
 589              		.loc 1 155 0
 590 0060 2B69     		ldr	r3, [r5, #16]
 591              		.loc 1 154 0
 592 0062 4FB3     		cbz	r7, .L80
 593              		.loc 1 157 0
 594 0064 43F48023 		orr	r3, r3, #262144
 595 0068 2B61     		str	r3, [r5, #16]
 596              	.L71:
 597              		.loc 1 159 0
 598 006a E968     		ldr	r1, [r5, #12]
 599              		.loc 1 163 0
 600 006c 184A     		ldr	r2, .L81+12
 601              		.loc 1 159 0
 602 006e 0968     		ldr	r1, [r1]
 603 0070 0B60     		str	r3, [r1]
 604              		.loc 1 160 0
 605 0072 EB68     		ldr	r3, [r5, #12]
 606 0074 1968     		ldr	r1, [r3]
 607 0076 0B68     		ldr	r3, [r1]
 608 0078 43F00103 		orr	r3, r3, #1
 609 007c 0B60     		str	r3, [r1]
 610              		.loc 1 163 0
 611 007e 536B     		ldr	r3, [r2, #52]
 612 0080 43F00103 		orr	r3, r3, #1
 613 0084 5363     		str	r3, [r2, #52]
 614              		.loc 1 164 0
 615 0086 0B21     		movs	r1, #11
 616 0088 4E20     		movs	r0, #78
 617 008a FFF7FEFF 		bl	nvicEnableVector
 618              	.LVL41:
 619              		.loc 1 170 0
 620 008e D5E90113 		ldrd	r1, r3, [r5, #4]
 621              		.loc 1 166 0
 622 0092 DA68     		ldr	r2, [r3, #12]
 623 0094 42F00102 		orr	r2, r2, #1
 624 0098 DA60     		str	r2, [r3, #12]
 625              		.loc 1 168 0
 626 009a DA68     		ldr	r2, [r3, #12]
 627 009c 42F00202 		orr	r2, r2, #2
ARM GAS  C:\Users\shadi\AppData\Local\Temp\ccXGg8i2.s 			page 12


 628 00a0 DA60     		str	r2, [r3, #12]
 629              		.loc 1 170 0
 630 00a2 CA68     		ldr	r2, [r1, #12]
 631 00a4 22F48042 		bic	r2, r2, #16384
 632 00a8 22F00102 		bic	r2, r2, #1
 633 00ac 1A60     		str	r2, [r3]
 634              	.LBE51:
 635              		.loc 1 174 0
 636 00ae B0E7     		b	.L67
 637              	.LVL42:
 638              	.L79:
 639              	.LBB52:
 640              		.loc 1 147 0 discriminator 2
 641 00b0 0848     		ldr	r0, .L81+16
 642              	.LVL43:
 643 00b2 FFF7FEFF 		bl	chSysHalt
 644              	.LVL44:
 645 00b6 C1E7     		b	.L69
 646              	.LVL45:
 647              	.L80:
 648              		.loc 1 155 0
 649 00b8 23F48023 		bic	r3, r3, #262144
 650 00bc 2B61     		str	r3, [r5, #16]
 651 00be D4E7     		b	.L71
 652              	.LVL46:
 653              	.L78:
 654              	.LBE52:
 655              		.loc 1 174 0
 656 00c0 FFF7FEFF 		bl	__stack_chk_fail
 657              	.LVL47:
 658              	.L82:
 659              		.align	2
 660              	.L81:
 661 00c4 00000000 		.word	__stack_chk_guard
 662 00c8 00000000 		.word	.LANCHOR0
 663 00cc 00000000 		.word	dcmi_lld_serve_dma_rx_interrupt
 664 00d0 00380240 		.word	1073887232
 665 00d4 00000000 		.word	.LANCHOR1
 666              		.cfi_endproc
 667              	.LFE260:
 668              		.size	dcmi_lld_prepare, .-dcmi_lld_prepare
 669              		.section	.text.dcmi_lld_unprepare,"ax",%progbits
 670              		.align	1
 671              		.p2align 4,,15
 672              		.global	dcmi_lld_unprepare
 673              		.syntax unified
 674              		.thumb
 675              		.thumb_func
 676              		.fpu fpv4-sp-d16
 677              		.type	dcmi_lld_unprepare, %function
 678              	dcmi_lld_unprepare:
 679              	.LFB261:
 680              		.loc 1 183 0
 681              		.cfi_startproc
 682              		@ args = 0, pretend = 0, frame = 8
 683              		@ frame_needed = 0, uses_anonymous_args = 0
 684              	.LVL48:
ARM GAS  C:\Users\shadi\AppData\Local\Temp\ccXGg8i2.s 			page 13


 685 0000 30B5     		push	{r4, r5, lr}
 686              		.cfi_def_cfa_offset 12
 687              		.cfi_offset 4, -12
 688              		.cfi_offset 5, -8
 689              		.cfi_offset 14, -4
 690 0002 184C     		ldr	r4, .L90
 691              		.loc 1 185 0
 692 0004 0378     		ldrb	r3, [r0]	@ zero_extendqisi2
 693              		.loc 1 183 0
 694 0006 2268     		ldr	r2, [r4]
 695 0008 83B0     		sub	sp, sp, #12
 696              		.cfi_def_cfa_offset 24
 697              		.loc 1 185 0
 698 000a 022B     		cmp	r3, #2
 699              		.loc 1 183 0
 700 000c 0192     		str	r2, [sp, #4]
 701              		.loc 1 185 0
 702 000e 05D0     		beq	.L89
 703              	.L83:
 704              		.loc 1 196 0
 705 0010 019A     		ldr	r2, [sp, #4]
 706 0012 2368     		ldr	r3, [r4]
 707 0014 9A42     		cmp	r2, r3
 708 0016 23D1     		bne	.L88
 709 0018 03B0     		add	sp, sp, #12
 710              		.cfi_remember_state
 711              		.cfi_def_cfa_offset 12
 712              		@ sp needed
 713 001a 30BD     		pop	{r4, r5, pc}
 714              	.L89:
 715              		.cfi_restore_state
 716              		.loc 1 186 0
 717 001c 124B     		ldr	r3, .L90+4
 718 001e 9842     		cmp	r0, r3
 719 0020 0546     		mov	r5, r0
 720 0022 F5D1     		bne	.L83
 721              		.loc 1 188 0
 722 0024 8168     		ldr	r1, [r0, #8]
 723              		.loc 1 190 0
 724 0026 114A     		ldr	r2, .L90+8
 725              		.loc 1 188 0
 726 0028 0B68     		ldr	r3, [r1]
 727 002a 23F48043 		bic	r3, r3, #16384
 728 002e 23F00103 		bic	r3, r3, #1
 729 0032 0B60     		str	r3, [r1]
 730              		.loc 1 189 0
 731 0034 8168     		ldr	r1, [r0, #8]
 732 0036 CB68     		ldr	r3, [r1, #12]
 733 0038 23F00F03 		bic	r3, r3, #15
 734 003c CB60     		str	r3, [r1, #12]
 735              		.loc 1 190 0
 736 003e 536B     		ldr	r3, [r2, #52]
 737 0040 23F00103 		bic	r3, r3, #1
 738 0044 5363     		str	r3, [r2, #52]
 739              		.loc 1 191 0
 740 0046 4E20     		movs	r0, #78
 741              	.LVL49:
ARM GAS  C:\Users\shadi\AppData\Local\Temp\ccXGg8i2.s 			page 14


 742 0048 FFF7FEFF 		bl	nvicDisableVector
 743              	.LVL50:
 744              		.loc 1 193 0
 745 004c 019A     		ldr	r2, [sp, #4]
 746 004e 2368     		ldr	r3, [r4]
 747 0050 9A42     		cmp	r2, r3
 748 0052 05D1     		bne	.L88
 749 0054 E868     		ldr	r0, [r5, #12]
 750              		.loc 1 196 0
 751 0056 03B0     		add	sp, sp, #12
 752              		.cfi_remember_state
 753              		.cfi_def_cfa_offset 12
 754              		@ sp needed
 755 0058 BDE83040 		pop	{r4, r5, lr}
 756              		.cfi_restore 14
 757              		.cfi_restore 5
 758              		.cfi_restore 4
 759              		.cfi_def_cfa_offset 0
 760              	.LVL51:
 761              		.loc 1 193 0
 762 005c FFF7FEBF 		b	dmaStreamRelease
 763              	.LVL52:
 764              	.L88:
 765              		.cfi_restore_state
 766              		.loc 1 196 0
 767 0060 FFF7FEFF 		bl	__stack_chk_fail
 768              	.LVL53:
 769              	.L91:
 770              		.align	2
 771              	.L90:
 772 0064 00000000 		.word	__stack_chk_guard
 773 0068 00000000 		.word	.LANCHOR0
 774 006c 00380240 		.word	1073887232
 775              		.cfi_endproc
 776              	.LFE261:
 777              		.size	dcmi_lld_unprepare, .-dcmi_lld_unprepare
 778              		.section	.text.dcmi_lld_start_oneshot,"ax",%progbits
 779              		.align	1
 780              		.p2align 4,,15
 781              		.global	dcmi_lld_start_oneshot
 782              		.syntax unified
 783              		.thumb
 784              		.thumb_func
 785              		.fpu fpv4-sp-d16
 786              		.type	dcmi_lld_start_oneshot, %function
 787              	dcmi_lld_start_oneshot:
 788              	.LFB262:
 789              		.loc 1 205 0
 790              		.cfi_startproc
 791              		@ args = 0, pretend = 0, frame = 8
 792              		@ frame_needed = 0, uses_anonymous_args = 0
 793              	.LVL54:
 794 0000 00B5     		push	{lr}
 795              		.cfi_def_cfa_offset 4
 796              		.cfi_offset 14, -4
 797 0002 0F4B     		ldr	r3, .L97
 798              		.loc 1 206 0
ARM GAS  C:\Users\shadi\AppData\Local\Temp\ccXGg8i2.s 			page 15


 799 0004 0278     		ldrb	r2, [r0]	@ zero_extendqisi2
 800              		.loc 1 205 0
 801 0006 1968     		ldr	r1, [r3]
 802 0008 83B0     		sub	sp, sp, #12
 803              		.cfi_def_cfa_offset 16
 804              		.loc 1 206 0
 805 000a 022A     		cmp	r2, #2
 806              		.loc 1 205 0
 807 000c 0191     		str	r1, [sp, #4]
 808              		.loc 1 206 0
 809 000e 0ED1     		bne	.L92
 810              		.loc 1 207 0
 811 0010 8168     		ldr	r1, [r0, #8]
 812 0012 0A68     		ldr	r2, [r1]
 813 0014 42F00202 		orr	r2, r2, #2
 814 0018 0A60     		str	r2, [r1]
 815              		.loc 1 208 0
 816 001a 8168     		ldr	r1, [r0, #8]
 817 001c 0A68     		ldr	r2, [r1]
 818 001e 42F48042 		orr	r2, r2, #16384
 819 0022 0A60     		str	r2, [r1]
 820              		.loc 1 209 0
 821 0024 8168     		ldr	r1, [r0, #8]
 822 0026 0A68     		ldr	r2, [r1]
 823 0028 42F00102 		orr	r2, r2, #1
 824 002c 0A60     		str	r2, [r1]
 825              	.L92:
 826              		.loc 1 211 0
 827 002e 019A     		ldr	r2, [sp, #4]
 828 0030 1B68     		ldr	r3, [r3]
 829 0032 9A42     		cmp	r2, r3
 830 0034 02D1     		bne	.L96
 831 0036 03B0     		add	sp, sp, #12
 832              		.cfi_remember_state
 833              		.cfi_def_cfa_offset 4
 834              		@ sp needed
 835 0038 5DF804FB 		ldr	pc, [sp], #4
 836              	.L96:
 837              		.cfi_restore_state
 838 003c FFF7FEFF 		bl	__stack_chk_fail
 839              	.LVL55:
 840              	.L98:
 841              		.align	2
 842              	.L97:
 843 0040 00000000 		.word	__stack_chk_guard
 844              		.cfi_endproc
 845              	.LFE262:
 846              		.size	dcmi_lld_start_oneshot, .-dcmi_lld_start_oneshot
 847              		.section	.text.dcmi_lld_start_stream,"ax",%progbits
 848              		.align	1
 849              		.p2align 4,,15
 850              		.global	dcmi_lld_start_stream
 851              		.syntax unified
 852              		.thumb
 853              		.thumb_func
 854              		.fpu fpv4-sp-d16
 855              		.type	dcmi_lld_start_stream, %function
ARM GAS  C:\Users\shadi\AppData\Local\Temp\ccXGg8i2.s 			page 16


 856              	dcmi_lld_start_stream:
 857              	.LFB263:
 858              		.loc 1 220 0
 859              		.cfi_startproc
 860              		@ args = 0, pretend = 0, frame = 8
 861              		@ frame_needed = 0, uses_anonymous_args = 0
 862              	.LVL56:
 863 0000 00B5     		push	{lr}
 864              		.cfi_def_cfa_offset 4
 865              		.cfi_offset 14, -4
 866 0002 0F4B     		ldr	r3, .L104
 867              		.loc 1 221 0
 868 0004 0278     		ldrb	r2, [r0]	@ zero_extendqisi2
 869              		.loc 1 220 0
 870 0006 1968     		ldr	r1, [r3]
 871 0008 83B0     		sub	sp, sp, #12
 872              		.cfi_def_cfa_offset 16
 873              		.loc 1 221 0
 874 000a 022A     		cmp	r2, #2
 875              		.loc 1 220 0
 876 000c 0191     		str	r1, [sp, #4]
 877              		.loc 1 221 0
 878 000e 0ED1     		bne	.L99
 879              		.loc 1 222 0
 880 0010 8168     		ldr	r1, [r0, #8]
 881 0012 0A68     		ldr	r2, [r1]
 882 0014 22F00202 		bic	r2, r2, #2
 883 0018 0A60     		str	r2, [r1]
 884              		.loc 1 223 0
 885 001a 8168     		ldr	r1, [r0, #8]
 886 001c 0A68     		ldr	r2, [r1]
 887 001e 42F48042 		orr	r2, r2, #16384
 888 0022 0A60     		str	r2, [r1]
 889              		.loc 1 224 0
 890 0024 8168     		ldr	r1, [r0, #8]
 891 0026 0A68     		ldr	r2, [r1]
 892 0028 42F00102 		orr	r2, r2, #1
 893 002c 0A60     		str	r2, [r1]
 894              	.L99:
 895              		.loc 1 226 0
 896 002e 019A     		ldr	r2, [sp, #4]
 897 0030 1B68     		ldr	r3, [r3]
 898 0032 9A42     		cmp	r2, r3
 899 0034 02D1     		bne	.L103
 900 0036 03B0     		add	sp, sp, #12
 901              		.cfi_remember_state
 902              		.cfi_def_cfa_offset 4
 903              		@ sp needed
 904 0038 5DF804FB 		ldr	pc, [sp], #4
 905              	.L103:
 906              		.cfi_restore_state
 907 003c FFF7FEFF 		bl	__stack_chk_fail
 908              	.LVL57:
 909              	.L105:
 910              		.align	2
 911              	.L104:
 912 0040 00000000 		.word	__stack_chk_guard
ARM GAS  C:\Users\shadi\AppData\Local\Temp\ccXGg8i2.s 			page 17


 913              		.cfi_endproc
 914              	.LFE263:
 915              		.size	dcmi_lld_start_stream, .-dcmi_lld_start_stream
 916              		.section	.text.dcmi_lld_stop_stream,"ax",%progbits
 917              		.align	1
 918              		.p2align 4,,15
 919              		.global	dcmi_lld_stop_stream
 920              		.syntax unified
 921              		.thumb
 922              		.thumb_func
 923              		.fpu fpv4-sp-d16
 924              		.type	dcmi_lld_stop_stream, %function
 925              	dcmi_lld_stop_stream:
 926              	.LFB264:
 927              		.loc 1 240 0
 928              		.cfi_startproc
 929              		@ args = 0, pretend = 0, frame = 8
 930              		@ frame_needed = 0, uses_anonymous_args = 0
 931              	.LVL58:
 932 0000 00B5     		push	{lr}
 933              		.cfi_def_cfa_offset 4
 934              		.cfi_offset 14, -4
 935 0002 0C4B     		ldr	r3, .L113
 936              		.loc 1 242 0
 937 0004 0278     		ldrb	r2, [r0]	@ zero_extendqisi2
 938              		.loc 1 240 0
 939 0006 1968     		ldr	r1, [r3]
 940 0008 83B0     		sub	sp, sp, #12
 941              		.cfi_def_cfa_offset 16
 942              		.loc 1 242 0
 943 000a 032A     		cmp	r2, #3
 944              		.loc 1 240 0
 945 000c 0191     		str	r1, [sp, #4]
 946 000e 019A     		ldr	r2, [sp, #4]
 947 0010 1B68     		ldr	r3, [r3]
 948              		.loc 1 242 0
 949 0012 06D0     		beq	.L112
 950              		.loc 1 260 0
 951 0014 9A42     		cmp	r2, r3
 952 0016 4FF00000 		mov	r0, #0
 953              	.LVL59:
 954 001a 09D1     		bne	.L111
 955 001c 03B0     		add	sp, sp, #12
 956              		.cfi_remember_state
 957              		.cfi_def_cfa_offset 4
 958              		@ sp needed
 959 001e 5DF804FB 		ldr	pc, [sp], #4
 960              	.LVL60:
 961              	.L112:
 962              		.cfi_restore_state
 963 0022 9A42     		cmp	r2, r3
 964 0024 04D1     		bne	.L111
 965 0026 03B0     		add	sp, sp, #12
 966              		.cfi_remember_state
 967              		.cfi_def_cfa_offset 4
 968              		@ sp needed
 969 0028 5DF804EB 		ldr	lr, [sp], #4
ARM GAS  C:\Users\shadi\AppData\Local\Temp\ccXGg8i2.s 			page 18


 970              		.cfi_restore 14
 971              		.cfi_def_cfa_offset 0
 972 002c FFF7FEBF 		b	dcmi_lld_stop_stream.part.0
 973              	.LVL61:
 974              	.L111:
 975              		.cfi_restore_state
 976 0030 FFF7FEFF 		bl	__stack_chk_fail
 977              	.LVL62:
 978              	.L114:
 979              		.align	2
 980              	.L113:
 981 0034 00000000 		.word	__stack_chk_guard
 982              		.cfi_endproc
 983              	.LFE264:
 984              		.size	dcmi_lld_stop_stream, .-dcmi_lld_stop_stream
 985              		.global	DCMID
 986              		.section	.bss.DCMID,"aw",%nobits
 987              		.align	2
 988              		.set	.LANCHOR0,. + 0
 989              		.type	DCMID, %object
 990              		.size	DCMID, 20
 991              	DCMID:
 992 0000 00000000 		.space	20
 992      00000000 
 992      00000000 
 992      00000000 
 992      00000000 
 993              		.section	.rodata.__func__.9941,"a",%progbits
 994              		.align	2
 995              		.set	.LANCHOR1,. + 0
 996              		.type	__func__.9941, %object
 997              		.size	__func__.9941, 17
 998              	__func__.9941:
 999 0000 64636D69 		.ascii	"dcmi_lld_prepare\000"
 999      5F6C6C64 
 999      5F707265 
 999      70617265 
 999      00
 1000              		.text
 1001              	.Letext0:
 1002              		.file 3 "c:\\users\\shadi\\downloads\\eclipse_e-puck2\\tools\\gcc-arm-none-eabi-7-2017-q4-major-wi
 1003              		.file 4 "c:\\users\\shadi\\downloads\\eclipse_e-puck2\\tools\\gcc-arm-none-eabi-7-2017-q4-major-wi
 1004              		.file 5 "c:\\users\\shadi\\downloads\\eclipse_e-puck2\\tools\\gcc-arm-none-eabi-7-2017-q4-major-wi
 1005              		.file 6 "../../lib/e-puck2_main-processor/ChibiOS//os/rt/ports/ARMCMx/compilers/GCC/chtypes.h"
 1006              		.file 7 "../../lib/e-puck2_main-processor/ChibiOS//os/rt/include/chsystypes.h"
 1007              		.file 8 "../../lib/e-puck2_main-processor/ChibiOS//os/rt/include/chschd.h"
 1008              		.file 9 "../../lib/e-puck2_main-processor/ChibiOS//os/ext/CMSIS/include/core_cm4.h"
 1009              		.file 10 "../../lib/e-puck2_main-processor/ChibiOS//os/ext/CMSIS/ST/system_stm32f4xx.h"
 1010              		.file 11 "../../lib/e-puck2_main-processor/ChibiOS//os/ext/CMSIS/ST/stm32f407xx.h"
 1011              		.file 12 "../../lib/e-puck2_main-processor/ChibiOS//os/rt/ports/ARMCMx/chcore.h"
 1012              		.file 13 "../../lib/e-puck2_main-processor/ChibiOS//os/rt/ports/ARMCMx/chcore_v7m.h"
 1013              		.file 14 "../../lib/e-puck2_main-processor/ChibiOS//os/rt/include/chdebug.h"
 1014              		.file 15 "../../lib/e-puck2_main-processor/ChibiOS//os/rt/include/chtm.h"
 1015              		.file 16 "../../lib/e-puck2_main-processor/ChibiOS//os/rt/include/chstats.h"
 1016              		.file 17 "../../lib/e-puck2_main-processor/ChibiOS//os/rt/include/chsem.h"
 1017              		.file 18 "../../lib/e-puck2_main-processor/ChibiOS//os/rt/include/chmtx.h"
 1018              		.file 19 "../../lib/e-puck2_main-processor/ChibiOS//os/rt/include/chregistry.h"
ARM GAS  C:\Users\shadi\AppData\Local\Temp\ccXGg8i2.s 			page 19


 1019              		.file 20 "../../lib/e-puck2_main-processor/ChibiOS//os/rt/include/chevents.h"
 1020              		.file 21 "../../lib/e-puck2_main-processor/ChibiOS//os/rt/include/chqueues.h"
 1021              		.file 22 "../../lib/e-puck2_main-processor/ChibiOS//os/hal/ports/STM32/STM32F4xx/stm32_dma.h"
 1022              		.file 23 "../../lib/e-puck2_main-processor/ChibiOS//os/hal/include/hal_ioblock.h"
 1023              		.file 24 "../../lib/e-puck2_main-processor/ChibiOS//os/hal/ports/STM32/LLD/GPIOv2/pal_lld.h"
 1024              		.file 25 "../../lib/e-puck2_main-processor/ChibiOS//os/hal/include/adc.h"
 1025              		.file 26 "../../lib/e-puck2_main-processor/ChibiOS//os/hal/ports/STM32/STM32F4xx/adc_lld.h"
 1026              		.file 27 "../../lib/e-puck2_main-processor/ChibiOS//os/hal/include/can.h"
 1027              		.file 28 "../../lib/e-puck2_main-processor/ChibiOS//os/hal/ports/STM32/LLD/can_lld.h"
 1028              		.file 29 "../../lib/e-puck2_main-processor/ChibiOS//os/hal/include/dac.h"
 1029              		.file 30 "../../lib/e-puck2_main-processor/ChibiOS//os/hal/ports/STM32/LLD/DACv1/dac_lld.h"
 1030              		.file 31 "../../lib/e-puck2_main-processor/ChibiOS//os/hal/include/ext.h"
 1031              		.file 32 "../../lib/e-puck2_main-processor/ChibiOS//os/hal/ports/STM32/LLD/ext_lld.h"
 1032              		.file 33 "../../lib/e-puck2_main-processor/ChibiOS//os/hal/include/gpt.h"
 1033              		.file 34 "../../lib/e-puck2_main-processor/ChibiOS//os/hal/ports/STM32/LLD/TIMv1/gpt_lld.h"
 1034              		.file 35 "../../lib/e-puck2_main-processor/ChibiOS//os/hal/ports/STM32/LLD/TIMv1/stm32_tim.h"
 1035              		.file 36 "../../lib/e-puck2_main-processor/ChibiOS//os/hal/include/i2c.h"
 1036              		.file 37 "../../lib/e-puck2_main-processor/ChibiOS//os/hal/ports/STM32/LLD/I2Cv1/i2c_lld.h"
 1037              		.file 38 "../../lib/e-puck2_main-processor/ChibiOS//os/hal/include/i2s.h"
 1038              		.file 39 "../../lib/e-puck2_main-processor/ChibiOS//os/hal/ports/STM32/LLD/SPIv1/i2s_lld.h"
 1039              		.file 40 "../../lib/e-puck2_main-processor/ChibiOS//os/hal/include/pwm.h"
 1040              		.file 41 "../../lib/e-puck2_main-processor/ChibiOS//os/hal/ports/STM32/LLD/TIMv1/pwm_lld.h"
 1041              		.file 42 "../../lib/e-puck2_main-processor/ChibiOS//os/hal/include/serial.h"
 1042              		.file 43 "../../lib/e-puck2_main-processor/ChibiOS//os/hal/ports/STM32/LLD/USARTv1/serial_lld.h"
 1043              		.file 44 "../../lib/e-puck2_main-processor/ChibiOS//os/hal/include/sdc.h"
 1044              		.file 45 "../../lib/e-puck2_main-processor/ChibiOS//os/hal/ports/STM32/LLD/sdc_lld.h"
 1045              		.file 46 "../../lib/e-puck2_main-processor/ChibiOS//os/hal/include/spi.h"
 1046              		.file 47 "../../lib/e-puck2_main-processor/ChibiOS//os/hal/ports/STM32/LLD/SPIv1/spi_lld.h"
 1047              		.file 48 "../../lib/e-puck2_main-processor/ChibiOS//os/hal/include/usb.h"
 1048              		.file 49 "../../lib/e-puck2_main-processor/ChibiOS//os/hal/ports/STM32/LLD/OTGv1/usb_lld.h"
 1049              		.file 50 "../../lib/e-puck2_main-processor/ChibiOS//os/hal/ports/STM32/LLD/OTGv1/stm32_otg.h"
 1050              		.file 51 "../../lib/e-puck2_main-processor/ChibiOS_ext/os/hal/ports/STM32/STM32F4xx/dcmi_lld.h"
 1051              		.file 52 "../../lib/e-puck2_main-processor/ChibiOS//os/hal/osal/rt/osal.h"
 1052              		.file 53 "../../lib/e-puck2_main-processor/ChibiOS//os/hal/ports/common/ARMCMx/nvic.h"
 1053              		.file 54 "../../lib/e-puck2_main-processor/ChibiOS//os/rt/include/chsys.h"
 1054              		.file 55 "../../lib/e-puck2_main-processor/ChibiOS_ext/os/hal/include/dcmi.h"