ARM GAS  C:\Users\shadi\AppData\Local\Temp\cckCKjhk.s 			page 1


   1              		.cpu cortex-m4
   2              		.eabi_attribute 27, 1
   3              		.eabi_attribute 28, 1
   4              		.eabi_attribute 20, 1
   5              		.eabi_attribute 21, 1
   6              		.eabi_attribute 23, 3
   7              		.eabi_attribute 24, 1
   8              		.eabi_attribute 25, 1
   9              		.eabi_attribute 26, 1
  10              		.eabi_attribute 30, 2
  11              		.eabi_attribute 34, 1
  12              		.eabi_attribute 18, 4
  13              		.file	"ext_lld.c"
  14              		.text
  15              	.Ltext0:
  16              		.cfi_sections	.debug_frame
  17              		.section	.text.ext_lld_init,"ax",%progbits
  18              		.align	1
  19              		.p2align 4,,15
  20              		.global	ext_lld_init
  21              		.syntax unified
  22              		.thumb
  23              		.thumb_func
  24              		.fpu fpv4-sp-d16
  25              		.type	ext_lld_init, %function
  26              	ext_lld_init:
  27              	.LFB256:
  28              		.file 1 "../../lib/e-puck2_main-processor/ChibiOS//os/hal/ports/STM32/LLD/ext_lld.c"
  29              		.loc 1 65 0
  30              		.cfi_startproc
  31              		@ args = 0, pretend = 0, frame = 8
  32              		@ frame_needed = 0, uses_anonymous_args = 0
  33 0000 00B5     		push	{lr}
  34              		.cfi_def_cfa_offset 4
  35              		.cfi_offset 14, -4
  36 0002 084B     		ldr	r3, .L7
  37 0004 83B0     		sub	sp, sp, #12
  38              		.cfi_def_cfa_offset 16
  39              		.loc 1 65 0
  40 0006 1A68     		ldr	r2, [r3]
  41 0008 0192     		str	r2, [sp, #4]
  42              		.loc 1 68 0
  43 000a 019A     		ldr	r2, [sp, #4]
  44 000c 1B68     		ldr	r3, [r3]
  45 000e 9A42     		cmp	r2, r3
  46 0010 05D1     		bne	.L6
  47 0012 0548     		ldr	r0, .L7+4
  48              		.loc 1 69 0
  49 0014 03B0     		add	sp, sp, #12
  50              		.cfi_remember_state
  51              		.cfi_def_cfa_offset 4
  52              		@ sp needed
  53 0016 5DF804EB 		ldr	lr, [sp], #4
  54              		.cfi_restore 14
  55              		.cfi_def_cfa_offset 0
  56              		.loc 1 68 0
  57 001a FFF7FEBF 		b	extObjectInit
ARM GAS  C:\Users\shadi\AppData\Local\Temp\cckCKjhk.s 			page 2


  58              	.LVL0:
  59              	.L6:
  60              		.cfi_restore_state
  61 001e FFF7FEFF 		bl	__stack_chk_fail
  62              	.LVL1:
  63              	.L8:
  64 0022 00BF     		.align	2
  65              	.L7:
  66 0024 00000000 		.word	__stack_chk_guard
  67 0028 00000000 		.word	.LANCHOR0
  68              		.cfi_endproc
  69              	.LFE256:
  70              		.size	ext_lld_init, .-ext_lld_init
  71              		.section	.text.ext_lld_stop,"ax",%progbits
  72              		.align	1
  73              		.p2align 4,,15
  74              		.global	ext_lld_stop
  75              		.syntax unified
  76              		.thumb
  77              		.thumb_func
  78              		.fpu fpv4-sp-d16
  79              		.type	ext_lld_stop, %function
  80              	ext_lld_stop:
  81              	.LFB258:
  82              		.loc 1 99 0
  83              		.cfi_startproc
  84              		@ args = 0, pretend = 0, frame = 8
  85              		@ frame_needed = 0, uses_anonymous_args = 0
  86              	.LVL2:
  87 0000 10B5     		push	{r4, lr}
  88              		.cfi_def_cfa_offset 8
  89              		.cfi_offset 4, -8
  90              		.cfi_offset 14, -4
  91              		.loc 1 101 0
  92 0002 0378     		ldrb	r3, [r0]	@ zero_extendqisi2
  93              		.loc 1 99 0
  94 0004 0B4C     		ldr	r4, .L15
  95 0006 82B0     		sub	sp, sp, #8
  96              		.cfi_def_cfa_offset 16
  97              		.loc 1 99 0
  98 0008 2268     		ldr	r2, [r4]
  99 000a 0192     		str	r2, [sp, #4]
 100              		.loc 1 101 0
 101 000c 022B     		cmp	r3, #2
 102 000e 0CD0     		beq	.L13
 103              	.LVL3:
 104              	.L10:
 105              		.loc 1 104 0
 106 0010 094B     		ldr	r3, .L15+4
 107 0012 0022     		movs	r2, #0
 108              		.loc 1 106 0
 109 0014 4FF0FF31 		mov	r1, #-1
 110              		.loc 1 104 0
 111 0018 5A60     		str	r2, [r3, #4]
 112              		.loc 1 105 0
 113 001a 1A60     		str	r2, [r3]
 114              		.loc 1 106 0
ARM GAS  C:\Users\shadi\AppData\Local\Temp\cckCKjhk.s 			page 3


 115 001c 5961     		str	r1, [r3, #20]
 116              		.loc 1 110 0
 117 001e 019A     		ldr	r2, [sp, #4]
 118 0020 2368     		ldr	r3, [r4]
 119 0022 9A42     		cmp	r2, r3
 120 0024 04D1     		bne	.L14
 121 0026 02B0     		add	sp, sp, #8
 122              		.cfi_remember_state
 123              		.cfi_def_cfa_offset 8
 124              		@ sp needed
 125 0028 10BD     		pop	{r4, pc}
 126              	.LVL4:
 127              	.L13:
 128              		.cfi_restore_state
 129              		.loc 1 102 0
 130 002a FFF7FEFF 		bl	ext_lld_exti_irq_disable
 131              	.LVL5:
 132 002e EFE7     		b	.L10
 133              	.L14:
 134              		.loc 1 110 0
 135 0030 FFF7FEFF 		bl	__stack_chk_fail
 136              	.LVL6:
 137              	.L16:
 138              		.align	2
 139              	.L15:
 140 0034 00000000 		.word	__stack_chk_guard
 141 0038 003C0140 		.word	1073822720
 142              		.cfi_endproc
 143              	.LFE258:
 144              		.size	ext_lld_stop, .-ext_lld_stop
 145              		.section	.text.ext_lld_channel_enable,"ax",%progbits
 146              		.align	1
 147              		.p2align 4,,15
 148              		.global	ext_lld_channel_enable
 149              		.syntax unified
 150              		.thumb
 151              		.thumb_func
 152              		.fpu fpv4-sp-d16
 153              		.type	ext_lld_channel_enable, %function
 154              	ext_lld_channel_enable:
 155              	.LFB259:
 156              		.loc 1 120 0
 157              		.cfi_startproc
 158              		@ args = 0, pretend = 0, frame = 8
 159              		@ frame_needed = 0, uses_anonymous_args = 0
 160              	.LVL7:
 161 0000 F0B5     		push	{r4, r5, r6, r7, lr}
 162              		.cfi_def_cfa_offset 20
 163              		.cfi_offset 4, -20
 164              		.cfi_offset 5, -16
 165              		.cfi_offset 6, -12
 166              		.cfi_offset 7, -8
 167              		.cfi_offset 14, -4
 168 0002 294D     		ldr	r5, .L28
 169 0004 4368     		ldr	r3, [r0, #4]
 170 0006 2A68     		ldr	r2, [r5]
 171 0008 83B0     		sub	sp, sp, #12
ARM GAS  C:\Users\shadi\AppData\Local\Temp\cckCKjhk.s 			page 4


 172              		.cfi_def_cfa_offset 32
 173              		.loc 1 123 0
 174 000a 0F29     		cmp	r1, #15
 175              		.loc 1 120 0
 176 000c 0192     		str	r2, [sp, #4]
 177 000e 53F83120 		ldr	r2, [r3, r1, lsl #3]
 178              		.loc 1 123 0
 179 0012 15D8     		bhi	.L18
 180              	.LVL8:
 181 0014 21F00303 		bic	r3, r1, #3
 182 0018 03F18043 		add	r3, r3, #1073741824
 183 001c 03F59C33 		add	r3, r3, #79872
 184              	.LBB4:
 185              		.loc 1 125 0
 186 0020 01F00304 		and	r4, r1, #3
 187              		.loc 1 133 0
 188 0024 9E68     		ldr	r6, [r3, #8]
 189              		.loc 1 125 0
 190 0026 A400     		lsls	r4, r4, #2
 191              	.LVL9:
 192 0028 0F27     		movs	r7, #15
 193              		.loc 1 127 0
 194 002a C2F30312 		ubfx	r2, r2, #4, #4
 195              	.LVL10:
 196              		.loc 1 125 0
 197 002e A740     		lsls	r7, r7, r4
 198              		.loc 1 126 0
 199 0030 A240     		lsls	r2, r2, r4
 200              		.loc 1 133 0
 201 0032 26EA0704 		bic	r4, r6, r7
 202              	.LVL11:
 203 0036 2243     		orrs	r2, r2, r4
 204 0038 9A60     		str	r2, [r3, #8]
 205              	.LVL12:
 206 003a 4368     		ldr	r3, [r0, #4]
 207 003c 53F83120 		ldr	r2, [r3, r1, lsl #3]
 208              	.LVL13:
 209              	.L18:
 210              	.LBE4:
 211              		.loc 1 142 0
 212 0040 1A4E     		ldr	r6, .L28+4
 213 0042 0123     		movs	r3, #1
 214 0044 8B40     		lsls	r3, r3, r1
 215              		.loc 1 141 0
 216 0046 12F0010F 		tst	r2, #1
 217              		.loc 1 142 0
 218 004a B268     		ldr	r2, [r6, #8]
 219 004c 6FEA0304 		mvn	r4, r3
 220 0050 14BF     		ite	ne
 221 0052 1A43     		orrne	r2, r2, r3
 222              		.loc 1 144 0
 223 0054 2240     		andeq	r2, r2, r4
 224 0056 B260     		str	r2, [r6, #8]
 225              		.loc 1 145 0
 226 0058 4268     		ldr	r2, [r0, #4]
 227              		.loc 1 146 0
 228 005a 144E     		ldr	r6, .L28+4
ARM GAS  C:\Users\shadi\AppData\Local\Temp\cckCKjhk.s 			page 5


 229              		.loc 1 145 0
 230 005c 52F83120 		ldr	r2, [r2, r1, lsl #3]
 231 0060 12F0020F 		tst	r2, #2
 232              		.loc 1 146 0
 233 0064 F268     		ldr	r2, [r6, #12]
 234 0066 14BF     		ite	ne
 235 0068 1A43     		orrne	r2, r2, r3
 236              		.loc 1 148 0
 237 006a 2240     		andeq	r2, r2, r4
 238 006c F260     		str	r2, [r6, #12]
 239              		.loc 1 151 0
 240 006e 4268     		ldr	r2, [r0, #4]
 241 0070 02EBC101 		add	r1, r2, r1, lsl #3
 242              	.LVL14:
 243 0074 4A68     		ldr	r2, [r1, #4]
 244 0076 62B1     		cbz	r2, .L23
 245              		.loc 1 152 0
 246 0078 0C4A     		ldr	r2, .L28+4
 247 007a 1168     		ldr	r1, [r2]
 248 007c 0B43     		orrs	r3, r3, r1
 249 007e 1360     		str	r3, [r2]
 250              		.loc 1 153 0
 251 0080 5368     		ldr	r3, [r2, #4]
 252 0082 1C40     		ands	r4, r4, r3
 253 0084 5460     		str	r4, [r2, #4]
 254              	.L17:
 255              		.loc 1 183 0
 256 0086 019A     		ldr	r2, [sp, #4]
 257 0088 2B68     		ldr	r3, [r5]
 258 008a 9A42     		cmp	r2, r3
 259 008c 09D1     		bne	.L27
 260 008e 03B0     		add	sp, sp, #12
 261              		.cfi_remember_state
 262              		.cfi_def_cfa_offset 20
 263              		@ sp needed
 264 0090 F0BD     		pop	{r4, r5, r6, r7, pc}
 265              	.L23:
 266              		.cfi_restore_state
 267              		.loc 1 156 0
 268 0092 064A     		ldr	r2, .L28+4
 269 0094 5168     		ldr	r1, [r2, #4]
 270 0096 0B43     		orrs	r3, r3, r1
 271 0098 5360     		str	r3, [r2, #4]
 272              		.loc 1 157 0
 273 009a 1368     		ldr	r3, [r2]
 274 009c 1C40     		ands	r4, r4, r3
 275 009e 1460     		str	r4, [r2]
 276              		.loc 1 183 0
 277 00a0 F1E7     		b	.L17
 278              	.L27:
 279 00a2 FFF7FEFF 		bl	__stack_chk_fail
 280              	.LVL15:
 281              	.L29:
 282 00a6 00BF     		.align	2
 283              	.L28:
 284 00a8 00000000 		.word	__stack_chk_guard
 285 00ac 003C0140 		.word	1073822720
ARM GAS  C:\Users\shadi\AppData\Local\Temp\cckCKjhk.s 			page 6


 286              		.cfi_endproc
 287              	.LFE259:
 288              		.size	ext_lld_channel_enable, .-ext_lld_channel_enable
 289              		.section	.text.ext_lld_start,"ax",%progbits
 290              		.align	1
 291              		.p2align 4,,15
 292              		.global	ext_lld_start
 293              		.syntax unified
 294              		.thumb
 295              		.thumb_func
 296              		.fpu fpv4-sp-d16
 297              		.type	ext_lld_start, %function
 298              	ext_lld_start:
 299              	.LFB257:
 300              		.loc 1 78 0
 301              		.cfi_startproc
 302              		@ args = 0, pretend = 0, frame = 8
 303              		@ frame_needed = 0, uses_anonymous_args = 0
 304              	.LVL16:
 305 0000 2DE9F041 		push	{r4, r5, r6, r7, r8, lr}
 306              		.cfi_def_cfa_offset 24
 307              		.cfi_offset 4, -24
 308              		.cfi_offset 5, -20
 309              		.cfi_offset 6, -16
 310              		.cfi_offset 7, -12
 311              		.cfi_offset 8, -8
 312              		.cfi_offset 14, -4
 313 0004 1B4E     		ldr	r6, .L41
 314              		.loc 1 81 0
 315 0006 0378     		ldrb	r3, [r0]	@ zero_extendqisi2
 316              		.loc 1 78 0
 317 0008 3268     		ldr	r2, [r6]
 318 000a 82B0     		sub	sp, sp, #8
 319              		.cfi_def_cfa_offset 32
 320              		.loc 1 81 0
 321 000c 012B     		cmp	r3, #1
 322              		.loc 1 78 0
 323 000e 0746     		mov	r7, r0
 324 0010 0192     		str	r2, [sp, #4]
 325              		.loc 1 81 0
 326 0012 2AD0     		beq	.L38
 327              	.LVL17:
 328              	.L31:
 329              	.LBB5:
 330              	.LBB6:
 331              		.loc 1 200 0
 332 0014 184C     		ldr	r4, .L41+4
 333              	.LBE6:
 334              	.LBE5:
 335              		.loc 1 78 0
 336 0016 0025     		movs	r5, #0
 337              	.LBB10:
 338              	.LBB7:
 339              		.loc 1 200 0
 340 0018 4FF00108 		mov	r8, #1
 341 001c 12E0     		b	.L34
 342              	.LVL18:
ARM GAS  C:\Users\shadi\AppData\Local\Temp\cckCKjhk.s 			page 7


 343              	.L32:
 344 001e 2168     		ldr	r1, [r4]
 345 0020 08FA05F2 		lsl	r2, r8, r5
 346 0024 D343     		mvns	r3, r2
 347 0026 1940     		ands	r1, r1, r3
 348 0028 2160     		str	r1, [r4]
 349              		.loc 1 201 0
 350 002a 6168     		ldr	r1, [r4, #4]
 351 002c 1940     		ands	r1, r1, r3
 352 002e 6160     		str	r1, [r4, #4]
 353              		.loc 1 202 0
 354 0030 A168     		ldr	r1, [r4, #8]
 355 0032 1940     		ands	r1, r1, r3
 356 0034 A160     		str	r1, [r4, #8]
 357              		.loc 1 203 0
 358 0036 E168     		ldr	r1, [r4, #12]
 359              	.LBE7:
 360              	.LBE10:
 361              		.loc 1 85 0
 362 0038 0135     		adds	r5, r5, #1
 363              	.LVL19:
 364              	.LBB11:
 365              	.LBB8:
 366              		.loc 1 203 0
 367 003a 0B40     		ands	r3, r3, r1
 368              	.LBE8:
 369              	.LBE11:
 370              		.loc 1 85 0
 371 003c 172D     		cmp	r5, #23
 372              	.LBB12:
 373              	.LBB9:
 374              		.loc 1 203 0
 375 003e E360     		str	r3, [r4, #12]
 376              		.loc 1 204 0
 377 0040 6261     		str	r2, [r4, #20]
 378              	.LBE9:
 379              	.LBE12:
 380              		.loc 1 85 0
 381 0042 0BD0     		beq	.L39
 382              	.LVL20:
 383              	.L34:
 384              		.loc 1 86 0
 385 0044 7B68     		ldr	r3, [r7, #4]
 386 0046 53F83530 		ldr	r3, [r3, r5, lsl #3]
 387 004a 5B07     		lsls	r3, r3, #29
 388 004c E7D5     		bpl	.L32
 389              		.loc 1 87 0
 390 004e 2946     		mov	r1, r5
 391 0050 3846     		mov	r0, r7
 392              		.loc 1 85 0
 393 0052 0135     		adds	r5, r5, #1
 394              	.LVL21:
 395              		.loc 1 87 0
 396 0054 FFF7FEFF 		bl	ext_lld_channel_enable
 397              	.LVL22:
 398              		.loc 1 85 0
 399 0058 172D     		cmp	r5, #23
ARM GAS  C:\Users\shadi\AppData\Local\Temp\cckCKjhk.s 			page 8


 400 005a F3D1     		bne	.L34
 401              	.L39:
 402              		.loc 1 90 0
 403 005c 019A     		ldr	r2, [sp, #4]
 404 005e 3368     		ldr	r3, [r6]
 405 0060 9A42     		cmp	r2, r3
 406 0062 05D1     		bne	.L40
 407 0064 02B0     		add	sp, sp, #8
 408              		.cfi_remember_state
 409              		.cfi_def_cfa_offset 24
 410              		@ sp needed
 411 0066 BDE8F081 		pop	{r4, r5, r6, r7, r8, pc}
 412              	.LVL23:
 413              	.L38:
 414              		.cfi_restore_state
 415              		.loc 1 82 0
 416 006a FFF7FEFF 		bl	ext_lld_exti_irq_enable
 417              	.LVL24:
 418 006e D1E7     		b	.L31
 419              	.LVL25:
 420              	.L40:
 421              		.loc 1 90 0
 422 0070 FFF7FEFF 		bl	__stack_chk_fail
 423              	.LVL26:
 424              	.L42:
 425              		.align	2
 426              	.L41:
 427 0074 00000000 		.word	__stack_chk_guard
 428 0078 003C0140 		.word	1073822720
 429              		.cfi_endproc
 430              	.LFE257:
 431              		.size	ext_lld_start, .-ext_lld_start
 432              		.section	.text.ext_lld_channel_disable,"ax",%progbits
 433              		.align	1
 434              		.p2align 4,,15
 435              		.global	ext_lld_channel_disable
 436              		.syntax unified
 437              		.thumb
 438              		.thumb_func
 439              		.fpu fpv4-sp-d16
 440              		.type	ext_lld_channel_disable, %function
 441              	ext_lld_channel_disable:
 442              	.LFB260:
 443              		.loc 1 193 0
 444              		.cfi_startproc
 445              		@ args = 0, pretend = 0, frame = 8
 446              		@ frame_needed = 0, uses_anonymous_args = 0
 447              	.LVL27:
 448 0000 10B5     		push	{r4, lr}
 449              		.cfi_def_cfa_offset 8
 450              		.cfi_offset 4, -8
 451              		.cfi_offset 14, -4
 452 0002 0F4C     		ldr	r4, .L47
 453              		.loc 1 200 0
 454 0004 0F4B     		ldr	r3, .L47+4
 455              		.loc 1 193 0
 456 0006 2268     		ldr	r2, [r4]
ARM GAS  C:\Users\shadi\AppData\Local\Temp\cckCKjhk.s 			page 9


 457 0008 82B0     		sub	sp, sp, #8
 458              		.cfi_def_cfa_offset 16
 459              		.loc 1 193 0
 460 000a 0192     		str	r2, [sp, #4]
 461              		.loc 1 200 0
 462 000c 0122     		movs	r2, #1
 463 000e 1868     		ldr	r0, [r3]
 464              	.LVL28:
 465 0010 02FA01F1 		lsl	r1, r2, r1
 466              	.LVL29:
 467 0014 CA43     		mvns	r2, r1
 468 0016 1040     		ands	r0, r0, r2
 469 0018 1860     		str	r0, [r3]
 470              		.loc 1 201 0
 471 001a 5868     		ldr	r0, [r3, #4]
 472 001c 1040     		ands	r0, r0, r2
 473 001e 5860     		str	r0, [r3, #4]
 474              		.loc 1 202 0
 475 0020 9868     		ldr	r0, [r3, #8]
 476 0022 1040     		ands	r0, r0, r2
 477 0024 9860     		str	r0, [r3, #8]
 478              		.loc 1 203 0
 479 0026 D868     		ldr	r0, [r3, #12]
 480 0028 0240     		ands	r2, r2, r0
 481 002a DA60     		str	r2, [r3, #12]
 482              		.loc 1 204 0
 483 002c 5961     		str	r1, [r3, #20]
 484              		.loc 1 215 0
 485 002e 019A     		ldr	r2, [sp, #4]
 486 0030 2368     		ldr	r3, [r4]
 487 0032 9A42     		cmp	r2, r3
 488 0034 01D1     		bne	.L46
 489 0036 02B0     		add	sp, sp, #8
 490              		.cfi_remember_state
 491              		.cfi_def_cfa_offset 8
 492              		@ sp needed
 493 0038 10BD     		pop	{r4, pc}
 494              	.L46:
 495              		.cfi_restore_state
 496 003a FFF7FEFF 		bl	__stack_chk_fail
 497              	.LVL30:
 498              	.L48:
 499 003e 00BF     		.align	2
 500              	.L47:
 501 0040 00000000 		.word	__stack_chk_guard
 502 0044 003C0140 		.word	1073822720
 503              		.cfi_endproc
 504              	.LFE260:
 505              		.size	ext_lld_channel_disable, .-ext_lld_channel_disable
 506              		.global	EXTD1
 507              		.section	.bss.EXTD1,"aw",%nobits
 508              		.align	2
 509              		.set	.LANCHOR0,. + 0
 510              		.type	EXTD1, %object
 511              		.size	EXTD1, 8
 512              	EXTD1:
 513 0000 00000000 		.space	8
ARM GAS  C:\Users\shadi\AppData\Local\Temp\cckCKjhk.s 			page 10


 513      00000000 
 514              		.text
 515              	.Letext0:
 516              		.file 2 "c:\\users\\shadi\\downloads\\eclipse_e-puck2\\tools\\gcc-arm-none-eabi-7-2017-q4-major-wi
 517              		.file 3 "c:\\users\\shadi\\downloads\\eclipse_e-puck2\\tools\\gcc-arm-none-eabi-7-2017-q4-major-wi
 518              		.file 4 "c:\\users\\shadi\\downloads\\eclipse_e-puck2\\tools\\gcc-arm-none-eabi-7-2017-q4-major-wi
 519              		.file 5 "../../lib/e-puck2_main-processor/ChibiOS//os/rt/ports/ARMCMx/compilers/GCC/chtypes.h"
 520              		.file 6 "../../lib/e-puck2_main-processor/ChibiOS//os/rt/include/chsystypes.h"
 521              		.file 7 "../../lib/e-puck2_main-processor/ChibiOS//os/rt/include/chschd.h"
 522              		.file 8 "../../lib/e-puck2_main-processor/ChibiOS//os/ext/CMSIS/include/core_cm4.h"
 523              		.file 9 "../../lib/e-puck2_main-processor/ChibiOS//os/ext/CMSIS/ST/system_stm32f4xx.h"
 524              		.file 10 "../../lib/e-puck2_main-processor/ChibiOS//os/ext/CMSIS/ST/stm32f407xx.h"
 525              		.file 11 "../../lib/e-puck2_main-processor/ChibiOS//os/rt/ports/ARMCMx/chcore.h"
 526              		.file 12 "../../lib/e-puck2_main-processor/ChibiOS//os/rt/ports/ARMCMx/chcore_v7m.h"
 527              		.file 13 "../../lib/e-puck2_main-processor/ChibiOS//os/rt/include/chdebug.h"
 528              		.file 14 "../../lib/e-puck2_main-processor/ChibiOS//os/rt/include/chtm.h"
 529              		.file 15 "../../lib/e-puck2_main-processor/ChibiOS//os/rt/include/chstats.h"
 530              		.file 16 "../../lib/e-puck2_main-processor/ChibiOS//os/rt/include/chsem.h"
 531              		.file 17 "../../lib/e-puck2_main-processor/ChibiOS//os/rt/include/chmtx.h"
 532              		.file 18 "../../lib/e-puck2_main-processor/ChibiOS//os/rt/include/chregistry.h"
 533              		.file 19 "../../lib/e-puck2_main-processor/ChibiOS//os/rt/include/chevents.h"
 534              		.file 20 "../../lib/e-puck2_main-processor/ChibiOS//os/rt/include/chqueues.h"
 535              		.file 21 "../../lib/e-puck2_main-processor/ChibiOS//os/hal/ports/STM32/STM32F4xx/stm32_dma.h"
 536              		.file 22 "../../lib/e-puck2_main-processor/ChibiOS//os/hal/include/hal_ioblock.h"
 537              		.file 23 "../../lib/e-puck2_main-processor/ChibiOS//os/hal/ports/STM32/LLD/GPIOv2/pal_lld.h"
 538              		.file 24 "../../lib/e-puck2_main-processor/ChibiOS//os/hal/include/adc.h"
 539              		.file 25 "../../lib/e-puck2_main-processor/ChibiOS//os/hal/ports/STM32/STM32F4xx/adc_lld.h"
 540              		.file 26 "../../lib/e-puck2_main-processor/ChibiOS//os/hal/include/can.h"
 541              		.file 27 "../../lib/e-puck2_main-processor/ChibiOS//os/hal/ports/STM32/LLD/can_lld.h"
 542              		.file 28 "../../lib/e-puck2_main-processor/ChibiOS//os/hal/include/dac.h"
 543              		.file 29 "../../lib/e-puck2_main-processor/ChibiOS//os/hal/ports/STM32/LLD/DACv1/dac_lld.h"
 544              		.file 30 "../../lib/e-puck2_main-processor/ChibiOS//os/hal/include/ext.h"
 545              		.file 31 "../../lib/e-puck2_main-processor/ChibiOS//os/hal/ports/STM32/LLD/ext_lld.h"
 546              		.file 32 "../../lib/e-puck2_main-processor/ChibiOS//os/hal/include/gpt.h"
 547              		.file 33 "../../lib/e-puck2_main-processor/ChibiOS//os/hal/ports/STM32/LLD/TIMv1/gpt_lld.h"
 548              		.file 34 "../../lib/e-puck2_main-processor/ChibiOS//os/hal/ports/STM32/LLD/TIMv1/stm32_tim.h"
 549              		.file 35 "../../lib/e-puck2_main-processor/ChibiOS//os/hal/include/i2c.h"
 550              		.file 36 "../../lib/e-puck2_main-processor/ChibiOS//os/hal/ports/STM32/LLD/I2Cv1/i2c_lld.h"
 551              		.file 37 "../../lib/e-puck2_main-processor/ChibiOS//os/hal/include/i2s.h"
 552              		.file 38 "../../lib/e-puck2_main-processor/ChibiOS//os/hal/ports/STM32/LLD/SPIv1/i2s_lld.h"
 553              		.file 39 "../../lib/e-puck2_main-processor/ChibiOS//os/hal/include/pwm.h"
 554              		.file 40 "../../lib/e-puck2_main-processor/ChibiOS//os/hal/ports/STM32/LLD/TIMv1/pwm_lld.h"
 555              		.file 41 "../../lib/e-puck2_main-processor/ChibiOS//os/hal/include/serial.h"
 556              		.file 42 "../../lib/e-puck2_main-processor/ChibiOS//os/hal/ports/STM32/LLD/USARTv1/serial_lld.h"
 557              		.file 43 "../../lib/e-puck2_main-processor/ChibiOS//os/hal/include/sdc.h"
 558              		.file 44 "../../lib/e-puck2_main-processor/ChibiOS//os/hal/ports/STM32/LLD/sdc_lld.h"
 559              		.file 45 "../../lib/e-puck2_main-processor/ChibiOS//os/hal/include/spi.h"
 560              		.file 46 "../../lib/e-puck2_main-processor/ChibiOS//os/hal/ports/STM32/LLD/SPIv1/spi_lld.h"
 561              		.file 47 "../../lib/e-puck2_main-processor/ChibiOS//os/hal/include/usb.h"
 562              		.file 48 "../../lib/e-puck2_main-processor/ChibiOS//os/hal/ports/STM32/LLD/OTGv1/usb_lld.h"
 563              		.file 49 "../../lib/e-puck2_main-processor/ChibiOS//os/hal/ports/STM32/LLD/OTGv1/stm32_otg.h"
 564              		.file 50 "../../lib/e-puck2_main-processor/ChibiOS//os/hal/ports/STM32/STM32F4xx/ext_lld_isr.h"