ARM GAS  C:\Users\shadi\AppData\Local\Temp\cceXERfe.s 			page 1


   1              		.cpu cortex-m4
   2              		.eabi_attribute 27, 1
   3              		.eabi_attribute 28, 1
   4              		.eabi_attribute 20, 1
   5              		.eabi_attribute 21, 1
   6              		.eabi_attribute 23, 3
   7              		.eabi_attribute 24, 1
   8              		.eabi_attribute 25, 1
   9              		.eabi_attribute 26, 1
  10              		.eabi_attribute 30, 2
  11              		.eabi_attribute 34, 1
  12              		.eabi_attribute 18, 4
  13              		.file	"hal_mmcsd.c"
  14              		.text
  15              	.Ltext0:
  16              		.cfi_sections	.debug_frame
  17              		.section	.text._mmcsd_get_slice,"ax",%progbits
  18              		.align	1
  19              		.p2align 4,,15
  20              		.global	_mmcsd_get_slice
  21              		.syntax unified
  22              		.thumb
  23              		.thumb_func
  24              		.fpu fpv4-sp-d16
  25              		.type	_mmcsd_get_slice, %function
  26              	_mmcsd_get_slice:
  27              	.LFB256:
  28              		.file 1 "../../lib/e-puck2_main-processor/ChibiOS//os/hal/src/hal_mmcsd.c"
  29              		.loc 1 63 0
  30              		.cfi_startproc
  31              		@ args = 0, pretend = 0, frame = 8
  32              		@ frame_needed = 0, uses_anonymous_args = 0
  33              	.LVL0:
  34 0000 F0B5     		push	{r4, r5, r6, r7, lr}
  35              		.cfi_def_cfa_offset 20
  36              		.cfi_offset 4, -20
  37              		.cfi_offset 5, -16
  38              		.cfi_offset 6, -12
  39              		.cfi_offset 7, -8
  40              		.cfi_offset 14, -4
  41 0002 1A4D     		ldr	r5, .L11
  42 0004 83B0     		sub	sp, sp, #12
  43              		.cfi_def_cfa_offset 32
  44              		.loc 1 63 0
  45 0006 2B68     		ldr	r3, [r5]
  46 0008 0193     		str	r3, [sp, #4]
  47              		.loc 1 67 0
  48 000a 9142     		cmp	r1, r2
  49              		.loc 1 63 0
  50 000c 0E46     		mov	r6, r1
  51 000e 1446     		mov	r4, r2
  52 0010 0746     		mov	r7, r0
  53              		.loc 1 67 0
  54 0012 19D3     		bcc	.L2
  55              		.loc 1 67 0 is_stmt 0 discriminator 3
  56 0014 8B1A     		subs	r3, r1, r2
  57 0016 1F2B     		cmp	r3, #31
ARM GAS  C:\Users\shadi\AppData\Local\Temp\cceXERfe.s 			page 2


  58 0018 16D8     		bhi	.L2
  59              	.LVL1:
  60              	.L3:
  61              		.loc 1 72 0 is_stmt 1
  62 001a 06F01F03 		and	r3, r6, #31
  63 001e 581C     		adds	r0, r3, #1
  64              		.loc 1 69 0
  65 0020 6209     		lsrs	r2, r4, #5
  66              	.LVL2:
  67              		.loc 1 72 0
  68 0022 0123     		movs	r3, #1
  69              		.loc 1 71 0
  70 0024 7609     		lsrs	r6, r6, #5
  71              	.LVL3:
  72              		.loc 1 72 0
  73 0026 8340     		lsls	r3, r3, r0
  74              		.loc 1 75 0
  75 0028 B242     		cmp	r2, r6
  76              		.loc 1 72 0
  77 002a 03F1FF33 		add	r3, r3, #-1
  78              		.loc 1 70 0
  79 002e 04F01F04 		and	r4, r4, #31
  80              	.LVL4:
  81 0032 57F82200 		ldr	r0, [r7, r2, lsl #2]
  82              		.loc 1 75 0
  83 0036 0BD3     		bcc	.L9
  84              		.loc 1 79 0
  85 0038 1840     		ands	r0, r0, r3
  86 003a E040     		lsrs	r0, r0, r4
  87              	.LVL5:
  88              	.L1:
  89              		.loc 1 80 0
  90 003c 019A     		ldr	r2, [sp, #4]
  91 003e 2B68     		ldr	r3, [r5]
  92 0040 9A42     		cmp	r2, r3
  93 0042 10D1     		bne	.L10
  94 0044 03B0     		add	sp, sp, #12
  95              		.cfi_remember_state
  96              		.cfi_def_cfa_offset 20
  97              		@ sp needed
  98 0046 F0BD     		pop	{r4, r5, r6, r7, pc}
  99              	.LVL6:
 100              	.L2:
 101              		.cfi_restore_state
 102              		.loc 1 67 0 discriminator 4
 103 0048 0948     		ldr	r0, .L11+4
 104              	.LVL7:
 105 004a FFF7FEFF 		bl	chSysHalt
 106              	.LVL8:
 107 004e E4E7     		b	.L3
 108              	.LVL9:
 109              	.L9:
 110              		.loc 1 77 0
 111 0050 57F82610 		ldr	r1, [r7, r6, lsl #2]
 112 0054 C4F12002 		rsb	r2, r4, #32
 113              	.LVL10:
 114 0058 0B40     		ands	r3, r3, r1
ARM GAS  C:\Users\shadi\AppData\Local\Temp\cceXERfe.s 			page 3


 115              	.LVL11:
 116              		.loc 1 76 0
 117 005a 20FA04F4 		lsr	r4, r0, r4
 118              	.LVL12:
 119              		.loc 1 77 0
 120 005e 03FA02F0 		lsl	r0, r3, r2
 121              		.loc 1 76 0
 122 0062 2043     		orrs	r0, r0, r4
 123 0064 EAE7     		b	.L1
 124              	.L10:
 125              		.loc 1 80 0
 126 0066 FFF7FEFF 		bl	__stack_chk_fail
 127              	.LVL13:
 128              	.L12:
 129 006a 00BF     		.align	2
 130              	.L11:
 131 006c 00000000 		.word	__stack_chk_guard
 132 0070 00000000 		.word	.LANCHOR0
 133              		.cfi_endproc
 134              	.LFE256:
 135              		.size	_mmcsd_get_slice, .-_mmcsd_get_slice
 136              		.section	.text._mmcsd_get_capacity,"ax",%progbits
 137              		.align	1
 138              		.p2align 4,,15
 139              		.global	_mmcsd_get_capacity
 140              		.syntax unified
 141              		.thumb
 142              		.thumb_func
 143              		.fpu fpv4-sp-d16
 144              		.type	_mmcsd_get_capacity, %function
 145              	_mmcsd_get_capacity:
 146              	.LFB257:
 147              		.loc 1 93 0
 148              		.cfi_startproc
 149              		@ args = 0, pretend = 0, frame = 8
 150              		@ frame_needed = 0, uses_anonymous_args = 0
 151              	.LVL14:
 152 0000 F0B5     		push	{r4, r5, r6, r7, lr}
 153              		.cfi_def_cfa_offset 20
 154              		.cfi_offset 4, -20
 155              		.cfi_offset 5, -16
 156              		.cfi_offset 6, -12
 157              		.cfi_offset 7, -8
 158              		.cfi_offset 14, -4
 159 0002 1D4E     		ldr	r6, .L24
 160 0004 83B0     		sub	sp, sp, #12
 161              		.cfi_def_cfa_offset 32
 162              		.loc 1 93 0
 163 0006 3368     		ldr	r3, [r6]
 164 0008 0193     		str	r3, [sp, #4]
 165              		.loc 1 96 0
 166 000a 0546     		mov	r5, r0
 167 000c 70B3     		cbz	r0, .L22
 168              	.LVL15:
 169              	.L14:
 170              		.loc 1 98 0
 171 000e 7E22     		movs	r2, #126
ARM GAS  C:\Users\shadi\AppData\Local\Temp\cceXERfe.s 			page 4


 172 0010 7F21     		movs	r1, #127
 173 0012 2846     		mov	r0, r5
 174 0014 FFF7FEFF 		bl	_mmcsd_get_slice
 175              	.LVL16:
 176 0018 80B1     		cbz	r0, .L16
 177 001a 0128     		cmp	r0, #1
 178 001c 06D0     		beq	.L17
 179              		.loc 1 112 0
 180 001e 0020     		movs	r0, #0
 181              	.L13:
 182              		.loc 1 113 0
 183 0020 019A     		ldr	r2, [sp, #4]
 184 0022 3368     		ldr	r3, [r6]
 185 0024 9A42     		cmp	r2, r3
 186 0026 25D1     		bne	.L23
 187 0028 03B0     		add	sp, sp, #12
 188              		.cfi_remember_state
 189              		.cfi_def_cfa_offset 20
 190              		@ sp needed
 191 002a F0BD     		pop	{r4, r5, r6, r7, pc}
 192              	.LVL17:
 193              	.L17:
 194              		.cfi_restore_state
 195              		.loc 1 107 0
 196 002c 2846     		mov	r0, r5
 197 002e 3022     		movs	r2, #48
 198 0030 4521     		movs	r1, #69
 199 0032 FFF7FEFF 		bl	_mmcsd_get_slice
 200              	.LVL18:
 201 0036 0130     		adds	r0, r0, #1
 202 0038 8002     		lsls	r0, r0, #10
 203 003a F1E7     		b	.L13
 204              	.L16:
 205              		.loc 1 101 0
 206 003c 3E22     		movs	r2, #62
 207 003e 4921     		movs	r1, #73
 208 0040 2846     		mov	r0, r5
 209 0042 FFF7FEFF 		bl	_mmcsd_get_slice
 210              	.LVL19:
 211              		.loc 1 102 0
 212 0046 2F22     		movs	r2, #47
 213              		.loc 1 101 0
 214 0048 0446     		mov	r4, r0
 215              	.LVL20:
 216              		.loc 1 102 0
 217 004a 3121     		movs	r1, #49
 218 004c 2846     		mov	r0, r5
 219              	.LVL21:
 220 004e FFF7FEFF 		bl	_mmcsd_get_slice
 221              	.LVL22:
 222              		.loc 1 103 0
 223 0052 5022     		movs	r2, #80
 224              		.loc 1 102 0
 225 0054 0746     		mov	r7, r0
 226              	.LVL23:
 227              		.loc 1 103 0
 228 0056 5321     		movs	r1, #83
ARM GAS  C:\Users\shadi\AppData\Local\Temp\cceXERfe.s 			page 5


 229 0058 2846     		mov	r0, r5
 230              	.LVL24:
 231 005a FFF7FEFF 		bl	_mmcsd_get_slice
 232              	.LVL25:
 233              		.loc 1 104 0
 234 005e 0134     		adds	r4, r4, #1
 235              	.LVL26:
 236 0060 0237     		adds	r7, r7, #2
 237              	.LVL27:
 238 0062 0938     		subs	r0, r0, #9
 239              	.LVL28:
 240 0064 BC40     		lsls	r4, r4, r7
 241              	.LVL29:
 242 0066 04FA00F0 		lsl	r0, r4, r0
 243              	.LVL30:
 244 006a D9E7     		b	.L13
 245              	.LVL31:
 246              	.L22:
 247              		.loc 1 96 0 discriminator 2
 248 006c 0348     		ldr	r0, .L24+4
 249              	.LVL32:
 250 006e FFF7FEFF 		bl	chSysHalt
 251              	.LVL33:
 252 0072 CCE7     		b	.L14
 253              	.L23:
 254              		.loc 1 113 0
 255 0074 FFF7FEFF 		bl	__stack_chk_fail
 256              	.LVL34:
 257              	.L25:
 258              		.align	2
 259              	.L24:
 260 0078 00000000 		.word	__stack_chk_guard
 261 007c 00000000 		.word	.LANCHOR1
 262              		.cfi_endproc
 263              	.LFE257:
 264              		.size	_mmcsd_get_capacity, .-_mmcsd_get_capacity
 265              		.section	.text._mmcsd_get_capacity_ext,"ax",%progbits
 266              		.align	1
 267              		.p2align 4,,15
 268              		.global	_mmcsd_get_capacity_ext
 269              		.syntax unified
 270              		.thumb
 271              		.thumb_func
 272              		.fpu fpv4-sp-d16
 273              		.type	_mmcsd_get_capacity_ext, %function
 274              	_mmcsd_get_capacity_ext:
 275              	.LFB258:
 276              		.loc 1 125 0
 277              		.cfi_startproc
 278              		@ args = 0, pretend = 0, frame = 8
 279              		@ frame_needed = 0, uses_anonymous_args = 0
 280              	.LVL35:
 281 0000 F0B5     		push	{r4, r5, r6, r7, lr}
 282              		.cfi_def_cfa_offset 20
 283              		.cfi_offset 4, -20
 284              		.cfi_offset 5, -16
 285              		.cfi_offset 6, -12
ARM GAS  C:\Users\shadi\AppData\Local\Temp\cceXERfe.s 			page 6


 286              		.cfi_offset 7, -8
 287              		.cfi_offset 14, -4
 288 0002 104D     		ldr	r5, .L32
 289 0004 83B0     		sub	sp, sp, #12
 290              		.cfi_def_cfa_offset 32
 291              		.loc 1 125 0
 292 0006 2B68     		ldr	r3, [r5]
 293 0008 0193     		str	r3, [sp, #4]
 294              		.loc 1 127 0
 295 000a 0446     		mov	r4, r0
 296 000c 98B1     		cbz	r0, .L30
 297              	.LVL36:
 298              	.L27:
 299              		.loc 1 130 0
 300 000e 94F8D630 		ldrb	r3, [r4, #214]	@ zero_extendqisi2
 301              		.loc 1 129 0
 302 0012 94F8D770 		ldrb	r7, [r4, #215]	@ zero_extendqisi2
 303              		.loc 1 133 0
 304 0016 0199     		ldr	r1, [sp, #4]
 305              		.loc 1 132 0
 306 0018 94F8D460 		ldrb	r6, [r4, #212]	@ zero_extendqisi2
 307              		.loc 1 133 0
 308 001c 2A68     		ldr	r2, [r5]
 309              		.loc 1 131 0
 310 001e 94F8D500 		ldrb	r0, [r4, #213]	@ zero_extendqisi2
 311              		.loc 1 130 0
 312 0022 1B04     		lsls	r3, r3, #16
 313              		.loc 1 129 0
 314 0024 03EB0763 		add	r3, r3, r7, lsl #24
 315              		.loc 1 131 0
 316 0028 3344     		add	r3, r3, r6
 317              		.loc 1 133 0
 318 002a 9142     		cmp	r1, r2
 319 002c 03EB0020 		add	r0, r3, r0, lsl #8
 320 0030 05D1     		bne	.L31
 321 0032 03B0     		add	sp, sp, #12
 322              		.cfi_remember_state
 323              		.cfi_def_cfa_offset 20
 324              		@ sp needed
 325 0034 F0BD     		pop	{r4, r5, r6, r7, pc}
 326              	.LVL37:
 327              	.L30:
 328              		.cfi_restore_state
 329              		.loc 1 127 0 discriminator 2
 330 0036 0448     		ldr	r0, .L32+4
 331              	.LVL38:
 332 0038 FFF7FEFF 		bl	chSysHalt
 333              	.LVL39:
 334 003c E7E7     		b	.L27
 335              	.L31:
 336              		.loc 1 133 0
 337 003e FFF7FEFF 		bl	__stack_chk_fail
 338              	.LVL40:
 339              	.L33:
 340 0042 00BF     		.align	2
 341              	.L32:
 342 0044 00000000 		.word	__stack_chk_guard
ARM GAS  C:\Users\shadi\AppData\Local\Temp\cceXERfe.s 			page 7


 343 0048 00000000 		.word	.LANCHOR2
 344              		.cfi_endproc
 345              	.LFE258:
 346              		.size	_mmcsd_get_capacity_ext, .-_mmcsd_get_capacity_ext
 347              		.section	.text._mmcsd_unpack_sdc_cid,"ax",%progbits
 348              		.align	1
 349              		.p2align 4,,15
 350              		.global	_mmcsd_unpack_sdc_cid
 351              		.syntax unified
 352              		.thumb
 353              		.thumb_func
 354              		.fpu fpv4-sp-d16
 355              		.type	_mmcsd_unpack_sdc_cid, %function
 356              	_mmcsd_unpack_sdc_cid:
 357              	.LFB259:
 358              		.loc 1 144 0
 359              		.cfi_startproc
 360              		@ args = 0, pretend = 0, frame = 8
 361              		@ frame_needed = 0, uses_anonymous_args = 0
 362              	.LVL41:
 363 0000 70B5     		push	{r4, r5, r6, lr}
 364              		.cfi_def_cfa_offset 16
 365              		.cfi_offset 4, -16
 366              		.cfi_offset 5, -12
 367              		.cfi_offset 6, -8
 368              		.cfi_offset 14, -4
 369 0002 334E     		ldr	r6, .L43
 370 0004 82B0     		sub	sp, sp, #8
 371              		.cfi_def_cfa_offset 24
 372              		.loc 1 144 0
 373 0006 3368     		ldr	r3, [r6]
 374 0008 0193     		str	r3, [sp, #4]
 375 000a 0D46     		mov	r5, r1
 376              		.loc 1 147 0
 377 000c 0446     		mov	r4, r0
 378 000e 0028     		cmp	r0, #0
 379 0010 58D0     		beq	.L35
 380              		.loc 1 147 0 is_stmt 0 discriminator 3
 381 0012 0029     		cmp	r1, #0
 382 0014 56D0     		beq	.L35
 383              	.LVL42:
 384              	.L36:
 385              		.loc 1 149 0 is_stmt 1
 386 0016 0834     		adds	r4, r4, #8
 387              	.LVL43:
 388              		.loc 1 150 0
 389 0018 0122     		movs	r2, #1
 390 001a 0721     		movs	r1, #7
 391 001c 2046     		mov	r0, r4
 392 001e FFF7FEFF 		bl	_mmcsd_get_slice
 393              	.LVL44:
 394              		.loc 1 151 0
 395 0022 0C22     		movs	r2, #12
 396              		.loc 1 150 0
 397 0024 2875     		strb	r0, [r5, #20]
 398              		.loc 1 151 0
 399 0026 1321     		movs	r1, #19
ARM GAS  C:\Users\shadi\AppData\Local\Temp\cceXERfe.s 			page 8


 400 0028 2046     		mov	r0, r4
 401 002a FFF7FEFF 		bl	_mmcsd_get_slice
 402              	.LVL45:
 403 002e 00F5FA60 		add	r0, r0, #2000
 404 0032 6882     		strh	r0, [r5, #18]	@ movhi
 405              		.loc 1 153 0
 406 0034 0822     		movs	r2, #8
 407 0036 0B21     		movs	r1, #11
 408 0038 2046     		mov	r0, r4
 409 003a FFF7FEFF 		bl	_mmcsd_get_slice
 410              	.LVL46:
 411              		.loc 1 154 0
 412 003e 7822     		movs	r2, #120
 413              		.loc 1 153 0
 414 0040 2874     		strb	r0, [r5, #16]
 415              		.loc 1 154 0
 416 0042 7F21     		movs	r1, #127
 417 0044 2046     		mov	r0, r4
 418 0046 FFF7FEFF 		bl	_mmcsd_get_slice
 419              	.LVL47:
 420              		.loc 1 155 0
 421 004a 6822     		movs	r2, #104
 422              		.loc 1 154 0
 423 004c 2870     		strb	r0, [r5]
 424              		.loc 1 155 0
 425 004e 7721     		movs	r1, #119
 426 0050 2046     		mov	r0, r4
 427 0052 FFF7FEFF 		bl	_mmcsd_get_slice
 428              	.LVL48:
 429              		.loc 1 156 0
 430 0056 4022     		movs	r2, #64
 431              		.loc 1 155 0
 432 0058 6880     		strh	r0, [r5, #2]	@ movhi
 433              		.loc 1 156 0
 434 005a 4721     		movs	r1, #71
 435 005c 2046     		mov	r0, r4
 436 005e FFF7FEFF 		bl	_mmcsd_get_slice
 437              	.LVL49:
 438              		.loc 1 157 0
 439 0062 4822     		movs	r2, #72
 440              		.loc 1 156 0
 441 0064 2872     		strb	r0, [r5, #8]
 442              		.loc 1 157 0
 443 0066 4F21     		movs	r1, #79
 444 0068 2046     		mov	r0, r4
 445 006a FFF7FEFF 		bl	_mmcsd_get_slice
 446              	.LVL50:
 447              		.loc 1 158 0
 448 006e 5022     		movs	r2, #80
 449              		.loc 1 157 0
 450 0070 E871     		strb	r0, [r5, #7]
 451              		.loc 1 158 0
 452 0072 5721     		movs	r1, #87
 453 0074 2046     		mov	r0, r4
 454 0076 FFF7FEFF 		bl	_mmcsd_get_slice
 455              	.LVL51:
 456              		.loc 1 159 0
ARM GAS  C:\Users\shadi\AppData\Local\Temp\cceXERfe.s 			page 9


 457 007a 5822     		movs	r2, #88
 458              		.loc 1 158 0
 459 007c A871     		strb	r0, [r5, #6]
 460              		.loc 1 159 0
 461 007e 5F21     		movs	r1, #95
 462 0080 2046     		mov	r0, r4
 463 0082 FFF7FEFF 		bl	_mmcsd_get_slice
 464              	.LVL52:
 465              		.loc 1 160 0
 466 0086 6022     		movs	r2, #96
 467              		.loc 1 159 0
 468 0088 6871     		strb	r0, [r5, #5]
 469              		.loc 1 160 0
 470 008a 6721     		movs	r1, #103
 471 008c 2046     		mov	r0, r4
 472 008e FFF7FEFF 		bl	_mmcsd_get_slice
 473              	.LVL53:
 474              		.loc 1 161 0
 475 0092 3C22     		movs	r2, #60
 476              		.loc 1 160 0
 477 0094 2871     		strb	r0, [r5, #4]
 478              		.loc 1 161 0
 479 0096 3F21     		movs	r1, #63
 480 0098 2046     		mov	r0, r4
 481 009a FFF7FEFF 		bl	_mmcsd_get_slice
 482              	.LVL54:
 483              		.loc 1 162 0
 484 009e 3822     		movs	r2, #56
 485              		.loc 1 161 0
 486 00a0 6872     		strb	r0, [r5, #9]
 487              		.loc 1 162 0
 488 00a2 3B21     		movs	r1, #59
 489 00a4 2046     		mov	r0, r4
 490 00a6 FFF7FEFF 		bl	_mmcsd_get_slice
 491              	.LVL55:
 492              		.loc 1 163 0
 493 00aa 1822     		movs	r2, #24
 494              		.loc 1 162 0
 495 00ac A872     		strb	r0, [r5, #10]
 496              		.loc 1 163 0
 497 00ae 3721     		movs	r1, #55
 498 00b0 2046     		mov	r0, r4
 499 00b2 FFF7FEFF 		bl	_mmcsd_get_slice
 500              	.LVL56:
 501              		.loc 1 164 0
 502 00b6 019A     		ldr	r2, [sp, #4]
 503 00b8 3368     		ldr	r3, [r6]
 504              		.loc 1 163 0
 505 00ba E860     		str	r0, [r5, #12]
 506              		.loc 1 164 0
 507 00bc 9A42     		cmp	r2, r3
 508 00be 05D1     		bne	.L42
 509 00c0 02B0     		add	sp, sp, #8
 510              		.cfi_remember_state
 511              		.cfi_def_cfa_offset 16
 512              		@ sp needed
 513 00c2 70BD     		pop	{r4, r5, r6, pc}
ARM GAS  C:\Users\shadi\AppData\Local\Temp\cceXERfe.s 			page 10


 514              	.LVL57:
 515              	.L35:
 516              		.cfi_restore_state
 517              		.loc 1 147 0 discriminator 4
 518 00c4 0348     		ldr	r0, .L43+4
 519              	.LVL58:
 520 00c6 FFF7FEFF 		bl	chSysHalt
 521              	.LVL59:
 522 00ca A4E7     		b	.L36
 523              	.LVL60:
 524              	.L42:
 525              		.loc 1 164 0
 526 00cc FFF7FEFF 		bl	__stack_chk_fail
 527              	.LVL61:
 528              	.L44:
 529              		.align	2
 530              	.L43:
 531 00d0 00000000 		.word	__stack_chk_guard
 532 00d4 00000000 		.word	.LANCHOR3
 533              		.cfi_endproc
 534              	.LFE259:
 535              		.size	_mmcsd_unpack_sdc_cid, .-_mmcsd_unpack_sdc_cid
 536              		.section	.text._mmcsd_unpack_mmc_cid,"ax",%progbits
 537              		.align	1
 538              		.p2align 4,,15
 539              		.global	_mmcsd_unpack_mmc_cid
 540              		.syntax unified
 541              		.thumb
 542              		.thumb_func
 543              		.fpu fpv4-sp-d16
 544              		.type	_mmcsd_unpack_mmc_cid, %function
 545              	_mmcsd_unpack_mmc_cid:
 546              	.LFB260:
 547              		.loc 1 175 0
 548              		.cfi_startproc
 549              		@ args = 0, pretend = 0, frame = 8
 550              		@ frame_needed = 0, uses_anonymous_args = 0
 551              	.LVL62:
 552 0000 70B5     		push	{r4, r5, r6, lr}
 553              		.cfi_def_cfa_offset 16
 554              		.cfi_offset 4, -16
 555              		.cfi_offset 5, -12
 556              		.cfi_offset 6, -8
 557              		.cfi_offset 14, -4
 558 0002 364E     		ldr	r6, .L54
 559 0004 82B0     		sub	sp, sp, #8
 560              		.cfi_def_cfa_offset 24
 561              		.loc 1 175 0
 562 0006 3368     		ldr	r3, [r6]
 563 0008 0193     		str	r3, [sp, #4]
 564 000a 0D46     		mov	r5, r1
 565              		.loc 1 178 0
 566 000c 0446     		mov	r4, r0
 567 000e 0028     		cmp	r0, #0
 568 0010 5ED0     		beq	.L46
 569              		.loc 1 178 0 is_stmt 0 discriminator 3
 570 0012 0029     		cmp	r1, #0
ARM GAS  C:\Users\shadi\AppData\Local\Temp\cceXERfe.s 			page 11


 571 0014 5CD0     		beq	.L46
 572              	.LVL63:
 573              	.L47:
 574              		.loc 1 180 0 is_stmt 1
 575 0016 0834     		adds	r4, r4, #8
 576              	.LVL64:
 577              		.loc 1 181 0
 578 0018 0122     		movs	r2, #1
 579 001a 0721     		movs	r1, #7
 580 001c 2046     		mov	r0, r4
 581 001e FFF7FEFF 		bl	_mmcsd_get_slice
 582              	.LVL65:
 583              		.loc 1 182 0
 584 0022 0822     		movs	r2, #8
 585              		.loc 1 181 0
 586 0024 2875     		strb	r0, [r5, #20]
 587              		.loc 1 182 0
 588 0026 0B21     		movs	r1, #11
 589 0028 2046     		mov	r0, r4
 590 002a FFF7FEFF 		bl	_mmcsd_get_slice
 591              	.LVL66:
 592 002e 00F2CD70 		addw	r0, r0, #1997
 593 0032 6882     		strh	r0, [r5, #18]	@ movhi
 594              		.loc 1 184 0
 595 0034 0C22     		movs	r2, #12
 596 0036 0F21     		movs	r1, #15
 597 0038 2046     		mov	r0, r4
 598 003a FFF7FEFF 		bl	_mmcsd_get_slice
 599              	.LVL67:
 600              		.loc 1 185 0
 601 003e 7822     		movs	r2, #120
 602              		.loc 1 184 0
 603 0040 2874     		strb	r0, [r5, #16]
 604              		.loc 1 185 0
 605 0042 7F21     		movs	r1, #127
 606 0044 2046     		mov	r0, r4
 607 0046 FFF7FEFF 		bl	_mmcsd_get_slice
 608              	.LVL68:
 609              		.loc 1 186 0
 610 004a 6822     		movs	r2, #104
 611              		.loc 1 185 0
 612 004c 2870     		strb	r0, [r5]
 613              		.loc 1 186 0
 614 004e 7721     		movs	r1, #119
 615 0050 2046     		mov	r0, r4
 616 0052 FFF7FEFF 		bl	_mmcsd_get_slice
 617              	.LVL69:
 618              		.loc 1 187 0
 619 0056 3822     		movs	r2, #56
 620              		.loc 1 186 0
 621 0058 6880     		strh	r0, [r5, #2]	@ movhi
 622              		.loc 1 187 0
 623 005a 3F21     		movs	r1, #63
 624 005c 2046     		mov	r0, r4
 625 005e FFF7FEFF 		bl	_mmcsd_get_slice
 626              	.LVL70:
 627              		.loc 1 188 0
ARM GAS  C:\Users\shadi\AppData\Local\Temp\cceXERfe.s 			page 12


 628 0062 4022     		movs	r2, #64
 629              		.loc 1 187 0
 630 0064 6872     		strb	r0, [r5, #9]
 631              		.loc 1 188 0
 632 0066 4721     		movs	r1, #71
 633 0068 2046     		mov	r0, r4
 634 006a FFF7FEFF 		bl	_mmcsd_get_slice
 635              	.LVL71:
 636              		.loc 1 189 0
 637 006e 4822     		movs	r2, #72
 638              		.loc 1 188 0
 639 0070 2872     		strb	r0, [r5, #8]
 640              		.loc 1 189 0
 641 0072 4F21     		movs	r1, #79
 642 0074 2046     		mov	r0, r4
 643 0076 FFF7FEFF 		bl	_mmcsd_get_slice
 644              	.LVL72:
 645              		.loc 1 190 0
 646 007a 5022     		movs	r2, #80
 647              		.loc 1 189 0
 648 007c E871     		strb	r0, [r5, #7]
 649              		.loc 1 190 0
 650 007e 5721     		movs	r1, #87
 651 0080 2046     		mov	r0, r4
 652 0082 FFF7FEFF 		bl	_mmcsd_get_slice
 653              	.LVL73:
 654              		.loc 1 191 0
 655 0086 5822     		movs	r2, #88
 656              		.loc 1 190 0
 657 0088 A871     		strb	r0, [r5, #6]
 658              		.loc 1 191 0
 659 008a 5F21     		movs	r1, #95
 660 008c 2046     		mov	r0, r4
 661 008e FFF7FEFF 		bl	_mmcsd_get_slice
 662              	.LVL74:
 663              		.loc 1 192 0
 664 0092 6022     		movs	r2, #96
 665              		.loc 1 191 0
 666 0094 6871     		strb	r0, [r5, #5]
 667              		.loc 1 192 0
 668 0096 6721     		movs	r1, #103
 669 0098 2046     		mov	r0, r4
 670 009a FFF7FEFF 		bl	_mmcsd_get_slice
 671              	.LVL75:
 672              		.loc 1 193 0
 673 009e 3422     		movs	r2, #52
 674              		.loc 1 192 0
 675 00a0 2871     		strb	r0, [r5, #4]
 676              		.loc 1 193 0
 677 00a2 3721     		movs	r1, #55
 678 00a4 2046     		mov	r0, r4
 679 00a6 FFF7FEFF 		bl	_mmcsd_get_slice
 680              	.LVL76:
 681              		.loc 1 194 0
 682 00aa 3022     		movs	r2, #48
 683              		.loc 1 193 0
 684 00ac A872     		strb	r0, [r5, #10]
ARM GAS  C:\Users\shadi\AppData\Local\Temp\cceXERfe.s 			page 13


 685              		.loc 1 194 0
 686 00ae 3321     		movs	r1, #51
 687 00b0 2046     		mov	r0, r4
 688 00b2 FFF7FEFF 		bl	_mmcsd_get_slice
 689              	.LVL77:
 690              		.loc 1 195 0
 691 00b6 1022     		movs	r2, #16
 692              		.loc 1 194 0
 693 00b8 E872     		strb	r0, [r5, #11]
 694              		.loc 1 195 0
 695 00ba 2F21     		movs	r1, #47
 696 00bc 2046     		mov	r0, r4
 697 00be FFF7FEFF 		bl	_mmcsd_get_slice
 698              	.LVL78:
 699              		.loc 1 196 0
 700 00c2 019A     		ldr	r2, [sp, #4]
 701 00c4 3368     		ldr	r3, [r6]
 702              		.loc 1 195 0
 703 00c6 E860     		str	r0, [r5, #12]
 704              		.loc 1 196 0
 705 00c8 9A42     		cmp	r2, r3
 706 00ca 05D1     		bne	.L53
 707 00cc 02B0     		add	sp, sp, #8
 708              		.cfi_remember_state
 709              		.cfi_def_cfa_offset 16
 710              		@ sp needed
 711 00ce 70BD     		pop	{r4, r5, r6, pc}
 712              	.LVL79:
 713              	.L46:
 714              		.cfi_restore_state
 715              		.loc 1 178 0 discriminator 4
 716 00d0 0348     		ldr	r0, .L54+4
 717              	.LVL80:
 718 00d2 FFF7FEFF 		bl	chSysHalt
 719              	.LVL81:
 720 00d6 9EE7     		b	.L47
 721              	.LVL82:
 722              	.L53:
 723              		.loc 1 196 0
 724 00d8 FFF7FEFF 		bl	__stack_chk_fail
 725              	.LVL83:
 726              	.L55:
 727              		.align	2
 728              	.L54:
 729 00dc 00000000 		.word	__stack_chk_guard
 730 00e0 00000000 		.word	.LANCHOR4
 731              		.cfi_endproc
 732              	.LFE260:
 733              		.size	_mmcsd_unpack_mmc_cid, .-_mmcsd_unpack_mmc_cid
 734              		.section	.text._mmcsd_unpack_csd_mmc,"ax",%progbits
 735              		.align	1
 736              		.p2align 4,,15
 737              		.global	_mmcsd_unpack_csd_mmc
 738              		.syntax unified
 739              		.thumb
 740              		.thumb_func
 741              		.fpu fpv4-sp-d16
ARM GAS  C:\Users\shadi\AppData\Local\Temp\cceXERfe.s 			page 14


 742              		.type	_mmcsd_unpack_csd_mmc, %function
 743              	_mmcsd_unpack_csd_mmc:
 744              	.LFB261:
 745              		.loc 1 207 0
 746              		.cfi_startproc
 747              		@ args = 0, pretend = 0, frame = 8
 748              		@ frame_needed = 0, uses_anonymous_args = 0
 749              	.LVL84:
 750 0000 70B5     		push	{r4, r5, r6, lr}
 751              		.cfi_def_cfa_offset 16
 752              		.cfi_offset 4, -16
 753              		.cfi_offset 5, -12
 754              		.cfi_offset 6, -8
 755              		.cfi_offset 14, -4
 756 0002 6C4E     		ldr	r6, .L65
 757 0004 82B0     		sub	sp, sp, #8
 758              		.cfi_def_cfa_offset 24
 759              		.loc 1 207 0
 760 0006 3368     		ldr	r3, [r6]
 761 0008 0193     		str	r3, [sp, #4]
 762 000a 0D46     		mov	r5, r1
 763              		.loc 1 210 0
 764 000c 0446     		mov	r4, r0
 765 000e 0028     		cmp	r0, #0
 766 0010 00F0C980 		beq	.L57
 767              		.loc 1 210 0 is_stmt 0 discriminator 3
 768 0014 0029     		cmp	r1, #0
 769 0016 00F0C680 		beq	.L57
 770              	.LVL85:
 771              	.L58:
 772              		.loc 1 212 0 is_stmt 1
 773 001a 1834     		adds	r4, r4, #24
 774              	.LVL86:
 775              		.loc 1 213 0
 776 001c 3E22     		movs	r2, #62
 777 001e 4921     		movs	r1, #73
 778 0020 2046     		mov	r0, r4
 779 0022 FFF7FEFF 		bl	_mmcsd_get_slice
 780              	.LVL87:
 781              		.loc 1 214 0
 782 0026 2F22     		movs	r2, #47
 783              		.loc 1 213 0
 784 0028 E881     		strh	r0, [r5, #14]	@ movhi
 785              		.loc 1 214 0
 786 002a 3121     		movs	r1, #49
 787 002c 2046     		mov	r0, r4
 788 002e FFF7FEFF 		bl	_mmcsd_get_slice
 789              	.LVL88:
 790              		.loc 1 215 0
 791 0032 5422     		movs	r2, #84
 792              		.loc 1 214 0
 793 0034 2875     		strb	r0, [r5, #20]
 794              		.loc 1 215 0
 795 0036 5F21     		movs	r1, #95
 796 0038 2046     		mov	r0, r4
 797 003a FFF7FEFF 		bl	_mmcsd_get_slice
 798              	.LVL89:
ARM GAS  C:\Users\shadi\AppData\Local\Temp\cceXERfe.s 			page 15


 799              		.loc 1 216 0
 800 003e 0E22     		movs	r2, #14
 801 0040 1146     		mov	r1, r2
 802              		.loc 1 215 0
 803 0042 E880     		strh	r0, [r5, #6]	@ movhi
 804              		.loc 1 216 0
 805 0044 2046     		mov	r0, r4
 806 0046 FFF7FEFF 		bl	_mmcsd_get_slice
 807              	.LVL90:
 808              		.loc 1 217 0
 809 004a 0122     		movs	r2, #1
 810              		.loc 1 216 0
 811 004c E877     		strb	r0, [r5, #31]
 812              		.loc 1 217 0
 813 004e 0721     		movs	r1, #7
 814 0050 2046     		mov	r0, r4
 815 0052 FFF7FEFF 		bl	_mmcsd_get_slice
 816              	.LVL91:
 817              		.loc 1 218 0
 818 0056 7E22     		movs	r2, #126
 819              		.loc 1 217 0
 820 0058 85F82400 		strb	r0, [r5, #36]
 821              		.loc 1 218 0
 822 005c 7F21     		movs	r1, #127
 823 005e 2046     		mov	r0, r4
 824 0060 FFF7FEFF 		bl	_mmcsd_get_slice
 825              	.LVL92:
 826              		.loc 1 219 0
 827 0064 4C22     		movs	r2, #76
 828 0066 1146     		mov	r1, r2
 829              		.loc 1 218 0
 830 0068 2870     		strb	r0, [r5]
 831              		.loc 1 219 0
 832 006a 2046     		mov	r0, r4
 833 006c FFF7FEFF 		bl	_mmcsd_get_slice
 834              	.LVL93:
 835              		.loc 1 220 0
 836 0070 0822     		movs	r2, #8
 837              		.loc 1 219 0
 838 0072 2873     		strb	r0, [r5, #12]
 839              		.loc 1 220 0
 840 0074 0921     		movs	r1, #9
 841 0076 2046     		mov	r0, r4
 842 0078 FFF7FEFF 		bl	_mmcsd_get_slice
 843              	.LVL94:
 844              		.loc 1 221 0
 845 007c 2522     		movs	r2, #37
 846              		.loc 1 220 0
 847 007e 85F82300 		strb	r0, [r5, #35]
 848              		.loc 1 221 0
 849 0082 2921     		movs	r1, #41
 850 0084 2046     		mov	r0, r4
 851 0086 FFF7FEFF 		bl	_mmcsd_get_slice
 852              	.LVL95:
 853              		.loc 1 222 0
 854 008a 2A22     		movs	r2, #42
 855              		.loc 1 221 0
ARM GAS  C:\Users\shadi\AppData\Local\Temp\cceXERfe.s 			page 16


 856 008c A875     		strb	r0, [r5, #22]
 857              		.loc 1 222 0
 858 008e 2E21     		movs	r1, #46
 859 0090 2046     		mov	r0, r4
 860 0092 FFF7FEFF 		bl	_mmcsd_get_slice
 861              	.LVL96:
 862              		.loc 1 223 0
 863 0096 0A22     		movs	r2, #10
 864              		.loc 1 222 0
 865 0098 6875     		strb	r0, [r5, #21]
 866              		.loc 1 223 0
 867 009a 0B21     		movs	r1, #11
 868 009c 2046     		mov	r0, r4
 869 009e FFF7FEFF 		bl	_mmcsd_get_slice
 870              	.LVL97:
 871              		.loc 1 224 0
 872 00a2 0F22     		movs	r2, #15
 873 00a4 1146     		mov	r1, r2
 874              		.loc 1 223 0
 875 00a6 85F82200 		strb	r0, [r5, #34]
 876              		.loc 1 224 0
 877 00aa 2046     		mov	r0, r4
 878 00ac FFF7FEFF 		bl	_mmcsd_get_slice
 879              	.LVL98:
 880              		.loc 1 225 0
 881 00b0 6822     		movs	r2, #104
 882              		.loc 1 224 0
 883 00b2 A877     		strb	r0, [r5, #30]
 884              		.loc 1 225 0
 885 00b4 6F21     		movs	r1, #111
 886 00b6 2046     		mov	r0, r4
 887 00b8 FFF7FEFF 		bl	_mmcsd_get_slice
 888              	.LVL99:
 889              		.loc 1 226 0
 890 00bc 0D22     		movs	r2, #13
 891 00be 1146     		mov	r1, r2
 892              		.loc 1 225 0
 893 00c0 E870     		strb	r0, [r5, #3]
 894              		.loc 1 226 0
 895 00c2 2046     		mov	r0, r4
 896 00c4 FFF7FEFF 		bl	_mmcsd_get_slice
 897              	.LVL100:
 898              		.loc 1 227 0
 899 00c8 1A22     		movs	r2, #26
 900              		.loc 1 226 0
 901 00ca 85F82000 		strb	r0, [r5, #32]
 902              		.loc 1 227 0
 903 00ce 1C21     		movs	r1, #28
 904 00d0 2046     		mov	r0, r4
 905 00d2 FFF7FEFF 		bl	_mmcsd_get_slice
 906              	.LVL101:
 907              		.loc 1 228 0
 908 00d6 5022     		movs	r2, #80
 909              		.loc 1 227 0
 910 00d8 A876     		strb	r0, [r5, #26]
 911              		.loc 1 228 0
 912 00da 5321     		movs	r1, #83
ARM GAS  C:\Users\shadi\AppData\Local\Temp\cceXERfe.s 			page 17


 913 00dc 2046     		mov	r0, r4
 914 00de FFF7FEFF 		bl	_mmcsd_get_slice
 915              	.LVL102:
 916              		.loc 1 229 0
 917 00e2 4F22     		movs	r2, #79
 918 00e4 1146     		mov	r1, r2
 919              		.loc 1 228 0
 920 00e6 2872     		strb	r0, [r5, #8]
 921              		.loc 1 229 0
 922 00e8 2046     		mov	r0, r4
 923 00ea FFF7FEFF 		bl	_mmcsd_get_slice
 924              	.LVL103:
 925              		.loc 1 230 0
 926 00ee 4D22     		movs	r2, #77
 927 00f0 1146     		mov	r1, r2
 928              		.loc 1 229 0
 929 00f2 6872     		strb	r0, [r5, #9]
 930              		.loc 1 230 0
 931 00f4 2046     		mov	r0, r4
 932 00f6 FFF7FEFF 		bl	_mmcsd_get_slice
 933              	.LVL104:
 934              		.loc 1 231 0
 935 00fa 7A22     		movs	r2, #122
 936              		.loc 1 230 0
 937 00fc E872     		strb	r0, [r5, #11]
 938              		.loc 1 231 0
 939 00fe 7D21     		movs	r1, #125
 940 0100 2046     		mov	r0, r4
 941 0102 FFF7FEFF 		bl	_mmcsd_get_slice
 942              	.LVL105:
 943              		.loc 1 232 0
 944 0106 7022     		movs	r2, #112
 945              		.loc 1 231 0
 946 0108 6870     		strb	r0, [r5, #1]
 947              		.loc 1 232 0
 948 010a 7721     		movs	r1, #119
 949 010c 2046     		mov	r0, r4
 950 010e FFF7FEFF 		bl	_mmcsd_get_slice
 951              	.LVL106:
 952              		.loc 1 233 0
 953 0112 0C22     		movs	r2, #12
 954 0114 1146     		mov	r1, r2
 955              		.loc 1 232 0
 956 0116 A870     		strb	r0, [r5, #2]
 957              		.loc 1 233 0
 958 0118 2046     		mov	r0, r4
 959 011a FFF7FEFF 		bl	_mmcsd_get_slice
 960              	.LVL107:
 961              		.loc 1 234 0
 962 011e 6022     		movs	r2, #96
 963              		.loc 1 233 0
 964 0120 85F82100 		strb	r0, [r5, #33]
 965              		.loc 1 234 0
 966 0124 6721     		movs	r1, #103
 967 0126 2046     		mov	r0, r4
 968 0128 FFF7FEFF 		bl	_mmcsd_get_slice
 969              	.LVL108:
ARM GAS  C:\Users\shadi\AppData\Local\Temp\cceXERfe.s 			page 18


 970              		.loc 1 235 0
 971 012c 3822     		movs	r2, #56
 972              		.loc 1 234 0
 973 012e 2871     		strb	r0, [r5, #4]
 974              		.loc 1 235 0
 975 0130 3A21     		movs	r1, #58
 976 0132 2046     		mov	r0, r4
 977 0134 FFF7FEFF 		bl	_mmcsd_get_slice
 978              	.LVL109:
 979              		.loc 1 236 0
 980 0138 3B22     		movs	r2, #59
 981              		.loc 1 235 0
 982 013a 6874     		strb	r0, [r5, #17]
 983              		.loc 1 236 0
 984 013c 3D21     		movs	r1, #61
 985 013e 2046     		mov	r0, r4
 986 0140 FFF7FEFF 		bl	_mmcsd_get_slice
 987              	.LVL110:
 988              		.loc 1 237 0
 989 0144 3222     		movs	r2, #50
 990              		.loc 1 236 0
 991 0146 2874     		strb	r0, [r5, #16]
 992              		.loc 1 237 0
 993 0148 3421     		movs	r1, #52
 994 014a 2046     		mov	r0, r4
 995 014c FFF7FEFF 		bl	_mmcsd_get_slice
 996              	.LVL111:
 997              		.loc 1 238 0
 998 0150 3522     		movs	r2, #53
 999              		.loc 1 237 0
 1000 0152 E874     		strb	r0, [r5, #19]
 1001              		.loc 1 238 0
 1002 0154 3721     		movs	r1, #55
 1003 0156 2046     		mov	r0, r4
 1004 0158 FFF7FEFF 		bl	_mmcsd_get_slice
 1005              	.LVL112:
 1006              		.loc 1 239 0
 1007 015c 1F22     		movs	r2, #31
 1008 015e 1146     		mov	r1, r2
 1009              		.loc 1 238 0
 1010 0160 A874     		strb	r0, [r5, #18]
 1011              		.loc 1 239 0
 1012 0162 2046     		mov	r0, r4
 1013 0164 FFF7FEFF 		bl	_mmcsd_get_slice
 1014              	.LVL113:
 1015              		.loc 1 240 0
 1016 0168 2022     		movs	r2, #32
 1017              		.loc 1 239 0
 1018 016a 2876     		strb	r0, [r5, #24]
 1019              		.loc 1 240 0
 1020 016c 2421     		movs	r1, #36
 1021 016e 2046     		mov	r0, r4
 1022 0170 FFF7FEFF 		bl	_mmcsd_get_slice
 1023              	.LVL114:
 1024              		.loc 1 241 0
 1025 0174 1622     		movs	r2, #22
 1026              		.loc 1 240 0
ARM GAS  C:\Users\shadi\AppData\Local\Temp\cceXERfe.s 			page 19


 1027 0176 E875     		strb	r0, [r5, #23]
 1028              		.loc 1 241 0
 1029 0178 1921     		movs	r1, #25
 1030 017a 2046     		mov	r0, r4
 1031 017c FFF7FEFF 		bl	_mmcsd_get_slice
 1032              	.LVL115:
 1033              		.loc 1 242 0
 1034 0180 1522     		movs	r2, #21
 1035 0182 1146     		mov	r1, r2
 1036              		.loc 1 241 0
 1037 0184 E876     		strb	r0, [r5, #27]
 1038              		.loc 1 242 0
 1039 0186 2046     		mov	r0, r4
 1040 0188 FFF7FEFF 		bl	_mmcsd_get_slice
 1041              	.LVL116:
 1042              		.loc 1 243 0
 1043 018c 4E22     		movs	r2, #78
 1044              		.loc 1 242 0
 1045 018e 2877     		strb	r0, [r5, #28]
 1046              		.loc 1 243 0
 1047 0190 1146     		mov	r1, r2
 1048 0192 2046     		mov	r0, r4
 1049 0194 FFF7FEFF 		bl	_mmcsd_get_slice
 1050              	.LVL117:
 1051              		.loc 1 244 0
 1052 0198 019A     		ldr	r2, [sp, #4]
 1053 019a 3368     		ldr	r3, [r6]
 1054              		.loc 1 243 0
 1055 019c A872     		strb	r0, [r5, #10]
 1056              		.loc 1 244 0
 1057 019e 9A42     		cmp	r2, r3
 1058 01a0 05D1     		bne	.L64
 1059 01a2 02B0     		add	sp, sp, #8
 1060              		.cfi_remember_state
 1061              		.cfi_def_cfa_offset 16
 1062              		@ sp needed
 1063 01a4 70BD     		pop	{r4, r5, r6, pc}
 1064              	.LVL118:
 1065              	.L57:
 1066              		.cfi_restore_state
 1067              		.loc 1 210 0 discriminator 4
 1068 01a6 0448     		ldr	r0, .L65+4
 1069              	.LVL119:
 1070 01a8 FFF7FEFF 		bl	chSysHalt
 1071              	.LVL120:
 1072 01ac 35E7     		b	.L58
 1073              	.LVL121:
 1074              	.L64:
 1075              		.loc 1 244 0
 1076 01ae FFF7FEFF 		bl	__stack_chk_fail
 1077              	.LVL122:
 1078              	.L66:
 1079 01b2 00BF     		.align	2
 1080              	.L65:
 1081 01b4 00000000 		.word	__stack_chk_guard
 1082 01b8 00000000 		.word	.LANCHOR5
 1083              		.cfi_endproc
ARM GAS  C:\Users\shadi\AppData\Local\Temp\cceXERfe.s 			page 20


 1084              	.LFE261:
 1085              		.size	_mmcsd_unpack_csd_mmc, .-_mmcsd_unpack_csd_mmc
 1086              		.section	.text._mmcsd_unpack_csd_v10,"ax",%progbits
 1087              		.align	1
 1088              		.p2align 4,,15
 1089              		.global	_mmcsd_unpack_csd_v10
 1090              		.syntax unified
 1091              		.thumb
 1092              		.thumb_func
 1093              		.fpu fpv4-sp-d16
 1094              		.type	_mmcsd_unpack_csd_v10, %function
 1095              	_mmcsd_unpack_csd_v10:
 1096              	.LFB262:
 1097              		.loc 1 255 0
 1098              		.cfi_startproc
 1099              		@ args = 0, pretend = 0, frame = 8
 1100              		@ frame_needed = 0, uses_anonymous_args = 0
 1101              	.LVL123:
 1102 0000 70B5     		push	{r4, r5, r6, lr}
 1103              		.cfi_def_cfa_offset 16
 1104              		.cfi_offset 4, -16
 1105              		.cfi_offset 5, -12
 1106              		.cfi_offset 6, -8
 1107              		.cfi_offset 14, -4
 1108 0002 564E     		ldr	r6, .L73
 1109 0004 82B0     		sub	sp, sp, #8
 1110              		.cfi_def_cfa_offset 24
 1111              		.loc 1 255 0
 1112 0006 3368     		ldr	r3, [r6]
 1113 0008 0193     		str	r3, [sp, #4]
 1114 000a 0D46     		mov	r5, r1
 1115              		.loc 1 258 0
 1116 000c 0446     		mov	r4, r0
 1117 000e 0028     		cmp	r0, #0
 1118 0010 00F09D80 		beq	.L71
 1119              	.LVL124:
 1120              	.L68:
 1121              		.loc 1 260 0
 1122 0014 1834     		adds	r4, r4, #24
 1123              	.LVL125:
 1124              		.loc 1 261 0
 1125 0016 3E22     		movs	r2, #62
 1126 0018 4921     		movs	r1, #73
 1127 001a 2046     		mov	r0, r4
 1128 001c FFF7FEFF 		bl	_mmcsd_get_slice
 1129              	.LVL126:
 1130              		.loc 1 262 0
 1131 0020 2F22     		movs	r2, #47
 1132              		.loc 1 261 0
 1133 0022 A881     		strh	r0, [r5, #12]	@ movhi
 1134              		.loc 1 262 0
 1135 0024 3121     		movs	r1, #49
 1136 0026 2046     		mov	r0, r4
 1137 0028 FFF7FEFF 		bl	_mmcsd_get_slice
 1138              	.LVL127:
 1139              		.loc 1 263 0
 1140 002c 5422     		movs	r2, #84
ARM GAS  C:\Users\shadi\AppData\Local\Temp\cceXERfe.s 			page 21


 1141              		.loc 1 262 0
 1142 002e A874     		strb	r0, [r5, #18]
 1143              		.loc 1 263 0
 1144 0030 5F21     		movs	r1, #95
 1145 0032 2046     		mov	r0, r4
 1146 0034 FFF7FEFF 		bl	_mmcsd_get_slice
 1147              	.LVL128:
 1148              		.loc 1 264 0
 1149 0038 0E22     		movs	r2, #14
 1150 003a 1146     		mov	r1, r2
 1151              		.loc 1 263 0
 1152 003c A880     		strh	r0, [r5, #4]	@ movhi
 1153              		.loc 1 264 0
 1154 003e 2046     		mov	r0, r4
 1155 0040 FFF7FEFF 		bl	_mmcsd_get_slice
 1156              	.LVL129:
 1157              		.loc 1 265 0
 1158 0044 0122     		movs	r2, #1
 1159              		.loc 1 264 0
 1160 0046 E876     		strb	r0, [r5, #27]
 1161              		.loc 1 265 0
 1162 0048 0721     		movs	r1, #7
 1163 004a 2046     		mov	r0, r4
 1164 004c FFF7FEFF 		bl	_mmcsd_get_slice
 1165              	.LVL130:
 1166              		.loc 1 266 0
 1167 0050 7E22     		movs	r2, #126
 1168              		.loc 1 265 0
 1169 0052 E877     		strb	r0, [r5, #31]
 1170              		.loc 1 266 0
 1171 0054 7F21     		movs	r1, #127
 1172 0056 2046     		mov	r0, r4
 1173 0058 FFF7FEFF 		bl	_mmcsd_get_slice
 1174              	.LVL131:
 1175              		.loc 1 267 0
 1176 005c 4C22     		movs	r2, #76
 1177 005e 1146     		mov	r1, r2
 1178              		.loc 1 266 0
 1179 0060 2870     		strb	r0, [r5]
 1180              		.loc 1 267 0
 1181 0062 2046     		mov	r0, r4
 1182 0064 FFF7FEFF 		bl	_mmcsd_get_slice
 1183              	.LVL132:
 1184              		.loc 1 268 0
 1185 0068 2E22     		movs	r2, #46
 1186 006a 1146     		mov	r1, r2
 1187              		.loc 1 267 0
 1188 006c A872     		strb	r0, [r5, #10]
 1189              		.loc 1 268 0
 1190 006e 2046     		mov	r0, r4
 1191 0070 FFF7FEFF 		bl	_mmcsd_get_slice
 1192              	.LVL133:
 1193              		.loc 1 269 0
 1194 0074 2722     		movs	r2, #39
 1195              		.loc 1 268 0
 1196 0076 E874     		strb	r0, [r5, #19]
 1197              		.loc 1 269 0
ARM GAS  C:\Users\shadi\AppData\Local\Temp\cceXERfe.s 			page 22


 1198 0078 2D21     		movs	r1, #45
 1199 007a 2046     		mov	r0, r4
 1200 007c FFF7FEFF 		bl	_mmcsd_get_slice
 1201              	.LVL134:
 1202              		.loc 1 270 0
 1203 0080 0A22     		movs	r2, #10
 1204              		.loc 1 269 0
 1205 0082 2875     		strb	r0, [r5, #20]
 1206              		.loc 1 270 0
 1207 0084 0B21     		movs	r1, #11
 1208 0086 2046     		mov	r0, r4
 1209 0088 FFF7FEFF 		bl	_mmcsd_get_slice
 1210              	.LVL135:
 1211              		.loc 1 271 0
 1212 008c 0F22     		movs	r2, #15
 1213 008e 1146     		mov	r1, r2
 1214              		.loc 1 270 0
 1215 0090 A877     		strb	r0, [r5, #30]
 1216              		.loc 1 271 0
 1217 0092 2046     		mov	r0, r4
 1218 0094 FFF7FEFF 		bl	_mmcsd_get_slice
 1219              	.LVL136:
 1220              		.loc 1 272 0
 1221 0098 6822     		movs	r2, #104
 1222              		.loc 1 271 0
 1223 009a A876     		strb	r0, [r5, #26]
 1224              		.loc 1 272 0
 1225 009c 6F21     		movs	r1, #111
 1226 009e 2046     		mov	r0, r4
 1227 00a0 FFF7FEFF 		bl	_mmcsd_get_slice
 1228              	.LVL137:
 1229              		.loc 1 273 0
 1230 00a4 0D22     		movs	r2, #13
 1231 00a6 1146     		mov	r1, r2
 1232              		.loc 1 272 0
 1233 00a8 A870     		strb	r0, [r5, #2]
 1234              		.loc 1 273 0
 1235 00aa 2046     		mov	r0, r4
 1236 00ac FFF7FEFF 		bl	_mmcsd_get_slice
 1237              	.LVL138:
 1238              		.loc 1 274 0
 1239 00b0 1A22     		movs	r2, #26
 1240              		.loc 1 273 0
 1241 00b2 2877     		strb	r0, [r5, #28]
 1242              		.loc 1 274 0
 1243 00b4 1C21     		movs	r1, #28
 1244 00b6 2046     		mov	r0, r4
 1245 00b8 FFF7FEFF 		bl	_mmcsd_get_slice
 1246              	.LVL139:
 1247              		.loc 1 275 0
 1248 00bc 5022     		movs	r2, #80
 1249              		.loc 1 274 0
 1250 00be E875     		strb	r0, [r5, #23]
 1251              		.loc 1 275 0
 1252 00c0 5321     		movs	r1, #83
 1253 00c2 2046     		mov	r0, r4
 1254 00c4 FFF7FEFF 		bl	_mmcsd_get_slice
ARM GAS  C:\Users\shadi\AppData\Local\Temp\cceXERfe.s 			page 23


 1255              	.LVL140:
 1256              		.loc 1 276 0
 1257 00c8 4F22     		movs	r2, #79
 1258 00ca 1146     		mov	r1, r2
 1259              		.loc 1 275 0
 1260 00cc A871     		strb	r0, [r5, #6]
 1261              		.loc 1 276 0
 1262 00ce 2046     		mov	r0, r4
 1263 00d0 FFF7FEFF 		bl	_mmcsd_get_slice
 1264              	.LVL141:
 1265              		.loc 1 277 0
 1266 00d4 4D22     		movs	r2, #77
 1267 00d6 1146     		mov	r1, r2
 1268              		.loc 1 276 0
 1269 00d8 E871     		strb	r0, [r5, #7]
 1270              		.loc 1 277 0
 1271 00da 2046     		mov	r0, r4
 1272 00dc FFF7FEFF 		bl	_mmcsd_get_slice
 1273              	.LVL142:
 1274              		.loc 1 278 0
 1275 00e0 7022     		movs	r2, #112
 1276              		.loc 1 277 0
 1277 00e2 6872     		strb	r0, [r5, #9]
 1278              		.loc 1 278 0
 1279 00e4 7721     		movs	r1, #119
 1280 00e6 2046     		mov	r0, r4
 1281 00e8 FFF7FEFF 		bl	_mmcsd_get_slice
 1282              	.LVL143:
 1283              		.loc 1 279 0
 1284 00ec 0C22     		movs	r2, #12
 1285 00ee 1146     		mov	r1, r2
 1286              		.loc 1 278 0
 1287 00f0 6870     		strb	r0, [r5, #1]
 1288              		.loc 1 279 0
 1289 00f2 2046     		mov	r0, r4
 1290 00f4 FFF7FEFF 		bl	_mmcsd_get_slice
 1291              	.LVL144:
 1292              		.loc 1 280 0
 1293 00f8 6022     		movs	r2, #96
 1294              		.loc 1 279 0
 1295 00fa 6877     		strb	r0, [r5, #29]
 1296              		.loc 1 280 0
 1297 00fc 6721     		movs	r1, #103
 1298 00fe 2046     		mov	r0, r4
 1299 0100 FFF7FEFF 		bl	_mmcsd_get_slice
 1300              	.LVL145:
 1301              		.loc 1 281 0
 1302 0104 1F22     		movs	r2, #31
 1303 0106 1146     		mov	r1, r2
 1304              		.loc 1 280 0
 1305 0108 E870     		strb	r0, [r5, #3]
 1306              		.loc 1 281 0
 1307 010a 2046     		mov	r0, r4
 1308 010c FFF7FEFF 		bl	_mmcsd_get_slice
 1309              	.LVL146:
 1310              		.loc 1 282 0
 1311 0110 2022     		movs	r2, #32
ARM GAS  C:\Users\shadi\AppData\Local\Temp\cceXERfe.s 			page 24


 1312              		.loc 1 281 0
 1313 0112 A875     		strb	r0, [r5, #22]
 1314              		.loc 1 282 0
 1315 0114 2621     		movs	r1, #38
 1316 0116 2046     		mov	r0, r4
 1317 0118 FFF7FEFF 		bl	_mmcsd_get_slice
 1318              	.LVL147:
 1319              		.loc 1 283 0
 1320 011c 0C22     		movs	r2, #12
 1321              		.loc 1 282 0
 1322 011e 6875     		strb	r0, [r5, #21]
 1323              		.loc 1 283 0
 1324 0120 1921     		movs	r1, #25
 1325 0122 2046     		mov	r0, r4
 1326 0124 FFF7FEFF 		bl	_mmcsd_get_slice
 1327              	.LVL148:
 1328              		.loc 1 284 0
 1329 0128 1522     		movs	r2, #21
 1330 012a 1146     		mov	r1, r2
 1331              		.loc 1 283 0
 1332 012c 2876     		strb	r0, [r5, #24]
 1333              		.loc 1 284 0
 1334 012e 2046     		mov	r0, r4
 1335 0130 FFF7FEFF 		bl	_mmcsd_get_slice
 1336              	.LVL149:
 1337              		.loc 1 285 0
 1338 0134 4E22     		movs	r2, #78
 1339              		.loc 1 284 0
 1340 0136 6876     		strb	r0, [r5, #25]
 1341              		.loc 1 285 0
 1342 0138 1146     		mov	r1, r2
 1343 013a 2046     		mov	r0, r4
 1344 013c FFF7FEFF 		bl	_mmcsd_get_slice
 1345              	.LVL150:
 1346              		.loc 1 286 0
 1347 0140 019A     		ldr	r2, [sp, #4]
 1348 0142 3368     		ldr	r3, [r6]
 1349              		.loc 1 285 0
 1350 0144 2872     		strb	r0, [r5, #8]
 1351              		.loc 1 286 0
 1352 0146 9A42     		cmp	r2, r3
 1353 0148 05D1     		bne	.L72
 1354 014a 02B0     		add	sp, sp, #8
 1355              		.cfi_remember_state
 1356              		.cfi_def_cfa_offset 16
 1357              		@ sp needed
 1358 014c 70BD     		pop	{r4, r5, r6, pc}
 1359              	.LVL151:
 1360              	.L71:
 1361              		.cfi_restore_state
 1362              		.loc 1 258 0 discriminator 2
 1363 014e 0448     		ldr	r0, .L73+4
 1364              	.LVL152:
 1365 0150 FFF7FEFF 		bl	chSysHalt
 1366              	.LVL153:
 1367 0154 5EE7     		b	.L68
 1368              	.LVL154:
ARM GAS  C:\Users\shadi\AppData\Local\Temp\cceXERfe.s 			page 25


 1369              	.L72:
 1370              		.loc 1 286 0
 1371 0156 FFF7FEFF 		bl	__stack_chk_fail
 1372              	.LVL155:
 1373              	.L74:
 1374 015a 00BF     		.align	2
 1375              	.L73:
 1376 015c 00000000 		.word	__stack_chk_guard
 1377 0160 00000000 		.word	.LANCHOR6
 1378              		.cfi_endproc
 1379              	.LFE262:
 1380              		.size	_mmcsd_unpack_csd_v10, .-_mmcsd_unpack_csd_v10
 1381              		.section	.text._mmcsd_unpack_csd_v20,"ax",%progbits
 1382              		.align	1
 1383              		.p2align 4,,15
 1384              		.global	_mmcsd_unpack_csd_v20
 1385              		.syntax unified
 1386              		.thumb
 1387              		.thumb_func
 1388              		.fpu fpv4-sp-d16
 1389              		.type	_mmcsd_unpack_csd_v20, %function
 1390              	_mmcsd_unpack_csd_v20:
 1391              	.LFB263:
 1392              		.loc 1 297 0
 1393              		.cfi_startproc
 1394              		@ args = 0, pretend = 0, frame = 8
 1395              		@ frame_needed = 0, uses_anonymous_args = 0
 1396              	.LVL156:
 1397 0000 70B5     		push	{r4, r5, r6, lr}
 1398              		.cfi_def_cfa_offset 16
 1399              		.cfi_offset 4, -16
 1400              		.cfi_offset 5, -12
 1401              		.cfi_offset 6, -8
 1402              		.cfi_offset 14, -4
 1403 0002 534E     		ldr	r6, .L81
 1404 0004 82B0     		sub	sp, sp, #8
 1405              		.cfi_def_cfa_offset 24
 1406              		.loc 1 297 0
 1407 0006 3368     		ldr	r3, [r6]
 1408 0008 0193     		str	r3, [sp, #4]
 1409 000a 0D46     		mov	r5, r1
 1410              		.loc 1 300 0
 1411 000c 0446     		mov	r4, r0
 1412 000e 0028     		cmp	r0, #0
 1413 0010 00F09780 		beq	.L79
 1414              	.LVL157:
 1415              	.L76:
 1416              		.loc 1 302 0
 1417 0014 1834     		adds	r4, r4, #24
 1418              	.LVL158:
 1419              		.loc 1 303 0
 1420 0016 3022     		movs	r2, #48
 1421 0018 4521     		movs	r1, #69
 1422 001a 2046     		mov	r0, r4
 1423 001c FFF7FEFF 		bl	_mmcsd_get_slice
 1424              	.LVL159:
 1425              		.loc 1 304 0
ARM GAS  C:\Users\shadi\AppData\Local\Temp\cceXERfe.s 			page 26


 1426 0020 0122     		movs	r2, #1
 1427              		.loc 1 303 0
 1428 0022 E860     		str	r0, [r5, #12]
 1429              		.loc 1 304 0
 1430 0024 0721     		movs	r1, #7
 1431 0026 2046     		mov	r0, r4
 1432 0028 FFF7FEFF 		bl	_mmcsd_get_slice
 1433              	.LVL160:
 1434              		.loc 1 305 0
 1435 002c 5422     		movs	r2, #84
 1436              		.loc 1 304 0
 1437 002e 2877     		strb	r0, [r5, #28]
 1438              		.loc 1 305 0
 1439 0030 5F21     		movs	r1, #95
 1440 0032 2046     		mov	r0, r4
 1441 0034 FFF7FEFF 		bl	_mmcsd_get_slice
 1442              	.LVL161:
 1443              		.loc 1 306 0
 1444 0038 0E22     		movs	r2, #14
 1445 003a 1146     		mov	r1, r2
 1446              		.loc 1 305 0
 1447 003c A880     		strh	r0, [r5, #4]	@ movhi
 1448              		.loc 1 306 0
 1449 003e 2046     		mov	r0, r4
 1450 0040 FFF7FEFF 		bl	_mmcsd_get_slice
 1451              	.LVL162:
 1452              		.loc 1 307 0
 1453 0044 7E22     		movs	r2, #126
 1454              		.loc 1 306 0
 1455 0046 2876     		strb	r0, [r5, #24]
 1456              		.loc 1 307 0
 1457 0048 7F21     		movs	r1, #127
 1458 004a 2046     		mov	r0, r4
 1459 004c FFF7FEFF 		bl	_mmcsd_get_slice
 1460              	.LVL163:
 1461              		.loc 1 308 0
 1462 0050 4C22     		movs	r2, #76
 1463 0052 1146     		mov	r1, r2
 1464              		.loc 1 307 0
 1465 0054 2870     		strb	r0, [r5]
 1466              		.loc 1 308 0
 1467 0056 2046     		mov	r0, r4
 1468 0058 FFF7FEFF 		bl	_mmcsd_get_slice
 1469              	.LVL164:
 1470              		.loc 1 309 0
 1471 005c 2E22     		movs	r2, #46
 1472 005e 1146     		mov	r1, r2
 1473              		.loc 1 308 0
 1474 0060 A872     		strb	r0, [r5, #10]
 1475              		.loc 1 309 0
 1476 0062 2046     		mov	r0, r4
 1477 0064 FFF7FEFF 		bl	_mmcsd_get_slice
 1478              	.LVL165:
 1479              		.loc 1 310 0
 1480 0068 0A22     		movs	r2, #10
 1481              		.loc 1 309 0
 1482 006a 2874     		strb	r0, [r5, #16]
ARM GAS  C:\Users\shadi\AppData\Local\Temp\cceXERfe.s 			page 27


 1483              		.loc 1 310 0
 1484 006c 0B21     		movs	r1, #11
 1485 006e 2046     		mov	r0, r4
 1486 0070 FFF7FEFF 		bl	_mmcsd_get_slice
 1487              	.LVL166:
 1488              		.loc 1 311 0
 1489 0074 0F22     		movs	r2, #15
 1490 0076 1146     		mov	r1, r2
 1491              		.loc 1 310 0
 1492 0078 E876     		strb	r0, [r5, #27]
 1493              		.loc 1 311 0
 1494 007a 2046     		mov	r0, r4
 1495 007c FFF7FEFF 		bl	_mmcsd_get_slice
 1496              	.LVL167:
 1497              		.loc 1 312 0
 1498 0080 6822     		movs	r2, #104
 1499              		.loc 1 311 0
 1500 0082 E875     		strb	r0, [r5, #23]
 1501              		.loc 1 312 0
 1502 0084 6F21     		movs	r1, #111
 1503 0086 2046     		mov	r0, r4
 1504 0088 FFF7FEFF 		bl	_mmcsd_get_slice
 1505              	.LVL168:
 1506              		.loc 1 313 0
 1507 008c 0D22     		movs	r2, #13
 1508 008e 1146     		mov	r1, r2
 1509              		.loc 1 312 0
 1510 0090 A870     		strb	r0, [r5, #2]
 1511              		.loc 1 313 0
 1512 0092 2046     		mov	r0, r4
 1513 0094 FFF7FEFF 		bl	_mmcsd_get_slice
 1514              	.LVL169:
 1515              		.loc 1 314 0
 1516 0098 1A22     		movs	r2, #26
 1517              		.loc 1 313 0
 1518 009a 6876     		strb	r0, [r5, #25]
 1519              		.loc 1 314 0
 1520 009c 1C21     		movs	r1, #28
 1521 009e 2046     		mov	r0, r4
 1522 00a0 FFF7FEFF 		bl	_mmcsd_get_slice
 1523              	.LVL170:
 1524              		.loc 1 315 0
 1525 00a4 5022     		movs	r2, #80
 1526              		.loc 1 314 0
 1527 00a6 2875     		strb	r0, [r5, #20]
 1528              		.loc 1 315 0
 1529 00a8 5321     		movs	r1, #83
 1530 00aa 2046     		mov	r0, r4
 1531 00ac FFF7FEFF 		bl	_mmcsd_get_slice
 1532              	.LVL171:
 1533              		.loc 1 316 0
 1534 00b0 4F22     		movs	r2, #79
 1535 00b2 1146     		mov	r1, r2
 1536              		.loc 1 315 0
 1537 00b4 A871     		strb	r0, [r5, #6]
 1538              		.loc 1 316 0
 1539 00b6 2046     		mov	r0, r4
ARM GAS  C:\Users\shadi\AppData\Local\Temp\cceXERfe.s 			page 28


 1540 00b8 FFF7FEFF 		bl	_mmcsd_get_slice
 1541              	.LVL172:
 1542              		.loc 1 317 0
 1543 00bc 4D22     		movs	r2, #77
 1544 00be 1146     		mov	r1, r2
 1545              		.loc 1 316 0
 1546 00c0 E871     		strb	r0, [r5, #7]
 1547              		.loc 1 317 0
 1548 00c2 2046     		mov	r0, r4
 1549 00c4 FFF7FEFF 		bl	_mmcsd_get_slice
 1550              	.LVL173:
 1551              		.loc 1 318 0
 1552 00c8 2722     		movs	r2, #39
 1553              		.loc 1 317 0
 1554 00ca 6872     		strb	r0, [r5, #9]
 1555              		.loc 1 318 0
 1556 00cc 2D21     		movs	r1, #45
 1557 00ce 2046     		mov	r0, r4
 1558 00d0 FFF7FEFF 		bl	_mmcsd_get_slice
 1559              	.LVL174:
 1560              		.loc 1 319 0
 1561 00d4 7022     		movs	r2, #112
 1562              		.loc 1 318 0
 1563 00d6 6874     		strb	r0, [r5, #17]
 1564              		.loc 1 319 0
 1565 00d8 7721     		movs	r1, #119
 1566 00da 2046     		mov	r0, r4
 1567 00dc FFF7FEFF 		bl	_mmcsd_get_slice
 1568              	.LVL175:
 1569              		.loc 1 320 0
 1570 00e0 0C22     		movs	r2, #12
 1571 00e2 1146     		mov	r1, r2
 1572              		.loc 1 319 0
 1573 00e4 6870     		strb	r0, [r5, #1]
 1574              		.loc 1 320 0
 1575 00e6 2046     		mov	r0, r4
 1576 00e8 FFF7FEFF 		bl	_mmcsd_get_slice
 1577              	.LVL176:
 1578              		.loc 1 321 0
 1579 00ec 6022     		movs	r2, #96
 1580              		.loc 1 320 0
 1581 00ee A876     		strb	r0, [r5, #26]
 1582              		.loc 1 321 0
 1583 00f0 6721     		movs	r1, #103
 1584 00f2 2046     		mov	r0, r4
 1585 00f4 FFF7FEFF 		bl	_mmcsd_get_slice
 1586              	.LVL177:
 1587              		.loc 1 322 0
 1588 00f8 1F22     		movs	r2, #31
 1589 00fa 1146     		mov	r1, r2
 1590              		.loc 1 321 0
 1591 00fc E870     		strb	r0, [r5, #3]
 1592              		.loc 1 322 0
 1593 00fe 2046     		mov	r0, r4
 1594 0100 FFF7FEFF 		bl	_mmcsd_get_slice
 1595              	.LVL178:
 1596              		.loc 1 323 0
ARM GAS  C:\Users\shadi\AppData\Local\Temp\cceXERfe.s 			page 29


 1597 0104 2022     		movs	r2, #32
 1598              		.loc 1 322 0
 1599 0106 E874     		strb	r0, [r5, #19]
 1600              		.loc 1 323 0
 1601 0108 2621     		movs	r1, #38
 1602 010a 2046     		mov	r0, r4
 1603 010c FFF7FEFF 		bl	_mmcsd_get_slice
 1604              	.LVL179:
 1605              		.loc 1 324 0
 1606 0110 0C22     		movs	r2, #12
 1607              		.loc 1 323 0
 1608 0112 A874     		strb	r0, [r5, #18]
 1609              		.loc 1 324 0
 1610 0114 1921     		movs	r1, #25
 1611 0116 2046     		mov	r0, r4
 1612 0118 FFF7FEFF 		bl	_mmcsd_get_slice
 1613              	.LVL180:
 1614              		.loc 1 325 0
 1615 011c 1522     		movs	r2, #21
 1616 011e 1146     		mov	r1, r2
 1617              		.loc 1 324 0
 1618 0120 6875     		strb	r0, [r5, #21]
 1619              		.loc 1 325 0
 1620 0122 2046     		mov	r0, r4
 1621 0124 FFF7FEFF 		bl	_mmcsd_get_slice
 1622              	.LVL181:
 1623              		.loc 1 326 0
 1624 0128 4E22     		movs	r2, #78
 1625              		.loc 1 325 0
 1626 012a A875     		strb	r0, [r5, #22]
 1627              		.loc 1 326 0
 1628 012c 1146     		mov	r1, r2
 1629 012e 2046     		mov	r0, r4
 1630 0130 FFF7FEFF 		bl	_mmcsd_get_slice
 1631              	.LVL182:
 1632              		.loc 1 327 0
 1633 0134 019A     		ldr	r2, [sp, #4]
 1634 0136 3368     		ldr	r3, [r6]
 1635              		.loc 1 326 0
 1636 0138 2872     		strb	r0, [r5, #8]
 1637              		.loc 1 327 0
 1638 013a 9A42     		cmp	r2, r3
 1639 013c 05D1     		bne	.L80
 1640 013e 02B0     		add	sp, sp, #8
 1641              		.cfi_remember_state
 1642              		.cfi_def_cfa_offset 16
 1643              		@ sp needed
 1644 0140 70BD     		pop	{r4, r5, r6, pc}
 1645              	.LVL183:
 1646              	.L79:
 1647              		.cfi_restore_state
 1648              		.loc 1 300 0 discriminator 2
 1649 0142 0448     		ldr	r0, .L81+4
 1650              	.LVL184:
 1651 0144 FFF7FEFF 		bl	chSysHalt
 1652              	.LVL185:
 1653 0148 64E7     		b	.L76
ARM GAS  C:\Users\shadi\AppData\Local\Temp\cceXERfe.s 			page 30


 1654              	.LVL186:
 1655              	.L80:
 1656              		.loc 1 327 0
 1657 014a FFF7FEFF 		bl	__stack_chk_fail
 1658              	.LVL187:
 1659              	.L82:
 1660 014e 00BF     		.align	2
 1661              	.L81:
 1662 0150 00000000 		.word	__stack_chk_guard
 1663 0154 00000000 		.word	.LANCHOR7
 1664              		.cfi_endproc
 1665              	.LFE263:
 1666              		.size	_mmcsd_unpack_csd_v20, .-_mmcsd_unpack_csd_v20
 1667              		.section	.rodata.__func__.9847,"a",%progbits
 1668              		.align	2
 1669              		.set	.LANCHOR0,. + 0
 1670              		.type	__func__.9847, %object
 1671              		.size	__func__.9847, 17
 1672              	__func__.9847:
 1673 0000 5F6D6D63 		.ascii	"_mmcsd_get_slice\000"
 1673      73645F67 
 1673      65745F73 
 1673      6C696365 
 1673      00
 1674              		.section	.rodata.__func__.9854,"a",%progbits
 1675              		.align	2
 1676              		.set	.LANCHOR1,. + 0
 1677              		.type	__func__.9854, %object
 1678              		.size	__func__.9854, 20
 1679              	__func__.9854:
 1680 0000 5F6D6D63 		.ascii	"_mmcsd_get_capacity\000"
 1680      73645F67 
 1680      65745F63 
 1680      61706163 
 1680      69747900 
 1681              		.section	.rodata.__func__.9862,"a",%progbits
 1682              		.align	2
 1683              		.set	.LANCHOR2,. + 0
 1684              		.type	__func__.9862, %object
 1685              		.size	__func__.9862, 24
 1686              	__func__.9862:
 1687 0000 5F6D6D63 		.ascii	"_mmcsd_get_capacity_ext\000"
 1687      73645F67 
 1687      65745F63 
 1687      61706163 
 1687      6974795F 
 1688              		.section	.rodata.__func__.9868,"a",%progbits
 1689              		.align	2
 1690              		.set	.LANCHOR3,. + 0
 1691              		.type	__func__.9868, %object
 1692              		.size	__func__.9868, 22
 1693              	__func__.9868:
 1694 0000 5F6D6D63 		.ascii	"_mmcsd_unpack_sdc_cid\000"
 1694      73645F75 
 1694      6E706163 
 1694      6B5F7364 
 1694      635F6369 
ARM GAS  C:\Users\shadi\AppData\Local\Temp\cceXERfe.s 			page 31


 1695              		.section	.rodata.__func__.9874,"a",%progbits
 1696              		.align	2
 1697              		.set	.LANCHOR4,. + 0
 1698              		.type	__func__.9874, %object
 1699              		.size	__func__.9874, 22
 1700              	__func__.9874:
 1701 0000 5F6D6D63 		.ascii	"_mmcsd_unpack_mmc_cid\000"
 1701      73645F75 
 1701      6E706163 
 1701      6B5F6D6D 
 1701      635F6369 
 1702              		.section	.rodata.__func__.9880,"a",%progbits
 1703              		.align	2
 1704              		.set	.LANCHOR5,. + 0
 1705              		.type	__func__.9880, %object
 1706              		.size	__func__.9880, 22
 1707              	__func__.9880:
 1708 0000 5F6D6D63 		.ascii	"_mmcsd_unpack_csd_mmc\000"
 1708      73645F75 
 1708      6E706163 
 1708      6B5F6373 
 1708      645F6D6D 
 1709              		.section	.rodata.__func__.9886,"a",%progbits
 1710              		.align	2
 1711              		.set	.LANCHOR6,. + 0
 1712              		.type	__func__.9886, %object
 1713              		.size	__func__.9886, 22
 1714              	__func__.9886:
 1715 0000 5F6D6D63 		.ascii	"_mmcsd_unpack_csd_v10\000"
 1715      73645F75 
 1715      6E706163 
 1715      6B5F6373 
 1715      645F7631 
 1716              		.section	.rodata.__func__.9892,"a",%progbits
 1717              		.align	2
 1718              		.set	.LANCHOR7,. + 0
 1719              		.type	__func__.9892, %object
 1720              		.size	__func__.9892, 22
 1721              	__func__.9892:
 1722 0000 5F6D6D63 		.ascii	"_mmcsd_unpack_csd_v20\000"
 1722      73645F75 
 1722      6E706163 
 1722      6B5F6373 
 1722      645F7632 
 1723              		.text
 1724              	.Letext0:
 1725              		.file 2 "c:\\users\\shadi\\downloads\\eclipse_e-puck2\\tools\\gcc-arm-none-eabi-7-2017-q4-major-wi
 1726              		.file 3 "c:\\users\\shadi\\downloads\\eclipse_e-puck2\\tools\\gcc-arm-none-eabi-7-2017-q4-major-wi
 1727              		.file 4 "c:\\users\\shadi\\downloads\\eclipse_e-puck2\\tools\\gcc-arm-none-eabi-7-2017-q4-major-wi
 1728              		.file 5 "../../lib/e-puck2_main-processor/ChibiOS//os/rt/ports/ARMCMx/compilers/GCC/chtypes.h"
 1729              		.file 6 "../../lib/e-puck2_main-processor/ChibiOS//os/rt/include/chsystypes.h"
 1730              		.file 7 "../../lib/e-puck2_main-processor/ChibiOS//os/rt/include/chschd.h"
 1731              		.file 8 "../../lib/e-puck2_main-processor/ChibiOS//os/ext/CMSIS/include/core_cm4.h"
 1732              		.file 9 "../../lib/e-puck2_main-processor/ChibiOS//os/ext/CMSIS/ST/system_stm32f4xx.h"
 1733              		.file 10 "../../lib/e-puck2_main-processor/ChibiOS//os/ext/CMSIS/ST/stm32f407xx.h"
 1734              		.file 11 "../../lib/e-puck2_main-processor/ChibiOS//os/rt/ports/ARMCMx/chcore.h"
 1735              		.file 12 "../../lib/e-puck2_main-processor/ChibiOS//os/rt/ports/ARMCMx/chcore_v7m.h"
ARM GAS  C:\Users\shadi\AppData\Local\Temp\cceXERfe.s 			page 32


 1736              		.file 13 "../../lib/e-puck2_main-processor/ChibiOS//os/rt/include/chdebug.h"
 1737              		.file 14 "../../lib/e-puck2_main-processor/ChibiOS//os/rt/include/chtm.h"
 1738              		.file 15 "../../lib/e-puck2_main-processor/ChibiOS//os/rt/include/chstats.h"
 1739              		.file 16 "../../lib/e-puck2_main-processor/ChibiOS//os/rt/include/chsem.h"
 1740              		.file 17 "../../lib/e-puck2_main-processor/ChibiOS//os/rt/include/chmtx.h"
 1741              		.file 18 "../../lib/e-puck2_main-processor/ChibiOS//os/rt/include/chregistry.h"
 1742              		.file 19 "../../lib/e-puck2_main-processor/ChibiOS//os/rt/include/chevents.h"
 1743              		.file 20 "../../lib/e-puck2_main-processor/ChibiOS//os/rt/include/chqueues.h"
 1744              		.file 21 "../../lib/e-puck2_main-processor/ChibiOS//os/hal/ports/STM32/STM32F4xx/stm32_dma.h"
 1745              		.file 22 "../../lib/e-puck2_main-processor/ChibiOS//os/hal/include/hal_ioblock.h"
 1746              		.file 23 "../../lib/e-puck2_main-processor/ChibiOS//os/hal/include/hal_mmcsd.h"
 1747              		.file 24 "../../lib/e-puck2_main-processor/ChibiOS//os/hal/ports/STM32/LLD/GPIOv2/pal_lld.h"
 1748              		.file 25 "../../lib/e-puck2_main-processor/ChibiOS//os/hal/include/adc.h"
 1749              		.file 26 "../../lib/e-puck2_main-processor/ChibiOS//os/hal/ports/STM32/STM32F4xx/adc_lld.h"
 1750              		.file 27 "../../lib/e-puck2_main-processor/ChibiOS//os/hal/include/can.h"
 1751              		.file 28 "../../lib/e-puck2_main-processor/ChibiOS//os/hal/ports/STM32/LLD/can_lld.h"
 1752              		.file 29 "../../lib/e-puck2_main-processor/ChibiOS//os/hal/include/dac.h"
 1753              		.file 30 "../../lib/e-puck2_main-processor/ChibiOS//os/hal/ports/STM32/LLD/DACv1/dac_lld.h"
 1754              		.file 31 "../../lib/e-puck2_main-processor/ChibiOS//os/hal/include/ext.h"
 1755              		.file 32 "../../lib/e-puck2_main-processor/ChibiOS//os/hal/ports/STM32/LLD/ext_lld.h"
 1756              		.file 33 "../../lib/e-puck2_main-processor/ChibiOS//os/hal/include/gpt.h"
 1757              		.file 34 "../../lib/e-puck2_main-processor/ChibiOS//os/hal/ports/STM32/LLD/TIMv1/gpt_lld.h"
 1758              		.file 35 "../../lib/e-puck2_main-processor/ChibiOS//os/hal/ports/STM32/LLD/TIMv1/stm32_tim.h"
 1759              		.file 36 "../../lib/e-puck2_main-processor/ChibiOS//os/hal/include/i2c.h"
 1760              		.file 37 "../../lib/e-puck2_main-processor/ChibiOS//os/hal/ports/STM32/LLD/I2Cv1/i2c_lld.h"
 1761              		.file 38 "../../lib/e-puck2_main-processor/ChibiOS//os/hal/include/i2s.h"
 1762              		.file 39 "../../lib/e-puck2_main-processor/ChibiOS//os/hal/ports/STM32/LLD/SPIv1/i2s_lld.h"
 1763              		.file 40 "../../lib/e-puck2_main-processor/ChibiOS//os/hal/include/pwm.h"
 1764              		.file 41 "../../lib/e-puck2_main-processor/ChibiOS//os/hal/ports/STM32/LLD/TIMv1/pwm_lld.h"
 1765              		.file 42 "../../lib/e-puck2_main-processor/ChibiOS//os/hal/include/serial.h"
 1766              		.file 43 "../../lib/e-puck2_main-processor/ChibiOS//os/hal/ports/STM32/LLD/USARTv1/serial_lld.h"
 1767              		.file 44 "../../lib/e-puck2_main-processor/ChibiOS//os/hal/include/sdc.h"
 1768              		.file 45 "../../lib/e-puck2_main-processor/ChibiOS//os/hal/ports/STM32/LLD/sdc_lld.h"
 1769              		.file 46 "../../lib/e-puck2_main-processor/ChibiOS//os/hal/include/spi.h"
 1770              		.file 47 "../../lib/e-puck2_main-processor/ChibiOS//os/hal/ports/STM32/LLD/SPIv1/spi_lld.h"
 1771              		.file 48 "../../lib/e-puck2_main-processor/ChibiOS//os/hal/include/usb.h"
 1772              		.file 49 "../../lib/e-puck2_main-processor/ChibiOS//os/hal/ports/STM32/LLD/OTGv1/usb_lld.h"
 1773              		.file 50 "../../lib/e-puck2_main-processor/ChibiOS//os/hal/ports/STM32/LLD/OTGv1/stm32_otg.h"
 1774              		.file 51 "../../lib/e-puck2_main-processor/ChibiOS//os/rt/include/chsys.h"