ARM GAS  C:\Users\shadi\AppData\Local\Temp\ccpz0lVh.s 			page 1


   1              		.cpu cortex-m4
   2              		.eabi_attribute 27, 1
   3              		.eabi_attribute 28, 1
   4              		.eabi_attribute 20, 1
   5              		.eabi_attribute 21, 1
   6              		.eabi_attribute 23, 3
   7              		.eabi_attribute 24, 1
   8              		.eabi_attribute 25, 1
   9              		.eabi_attribute 26, 1
  10              		.eabi_attribute 30, 2
  11              		.eabi_attribute 34, 1
  12              		.eabi_attribute 18, 4
  13              		.file	"i2c_bus.c"
  14              		.text
  15              	.Ltext0:
  16              		.cfi_sections	.debug_frame
  17              		.section	.text.i2c_start.part.0,"ax",%progbits
  18              		.align	1
  19              		.p2align 4,,15
  20              		.syntax unified
  21              		.thumb
  22              		.thumb_func
  23              		.fpu fpv4-sp-d16
  24              		.type	i2c_start.part.0, %function
  25              	i2c_start.part.0:
  26              	.LFB262:
  27              		.file 1 "../../lib/e-puck2_main-processor/src/i2c_bus.c"
  28              		.loc 1 8 0
  29              		.cfi_startproc
  30              		@ args = 0, pretend = 0, frame = 8
  31              		@ frame_needed = 0, uses_anonymous_args = 0
  32 0000 70B5     		push	{r4, r5, r6, lr}
  33              		.cfi_def_cfa_offset 16
  34              		.cfi_offset 4, -16
  35              		.cfi_offset 5, -12
  36              		.cfi_offset 6, -8
  37              		.cfi_offset 14, -4
  38 0002 164E     		ldr	r6, .L9
  39              		.loc 1 26 0
  40 0004 1648     		ldr	r0, .L9+4
  41              		.loc 1 8 0
  42 0006 3368     		ldr	r3, [r6]
  43              	.LBB18:
  44              		.loc 1 29 0
  45 0008 154D     		ldr	r5, .L9+4
  46              	.LBE18:
  47              		.loc 1 8 0
  48 000a 82B0     		sub	sp, sp, #8
  49              		.cfi_def_cfa_offset 24
  50              		.loc 1 26 0
  51 000c 0522     		movs	r2, #5
  52 000e 4FF48071 		mov	r1, #256
  53              		.loc 1 8 0
  54 0012 0193     		str	r3, [sp, #4]
  55              		.loc 1 26 0
  56 0014 FFF7FEFF 		bl	_pal_lld_setgroupmode
  57              	.LVL0:
ARM GAS  C:\Users\shadi\AppData\Local\Temp\ccpz0lVh.s 			page 2


  58 0018 2024     		movs	r4, #32
  59              	.LVL1:
  60              	.L2:
  61              	.LBB19:
  62              		.loc 1 29 0
  63 001a 6B69     		ldr	r3, [r5, #20]
  64 001c 83F48073 		eor	r3, r3, #256
  65 0020 6B61     		str	r3, [r5, #20]
  66              		.loc 1 30 0
  67 0022 0120     		movs	r0, #1
  68 0024 FFF7FEFF 		bl	chThdSleep
  69              	.LVL2:
  70 0028 631E     		subs	r3, r4, #1
  71              		.loc 1 28 0
  72 002a 13F0FF04 		ands	r4, r3, #255
  73              	.LVL3:
  74 002e F4D1     		bne	.L2
  75              	.LBE19:
  76              		.loc 1 33 0
  77 0030 4FF48071 		mov	r1, #256
  78              		.loc 1 35 0
  79 0034 40F20622 		movw	r2, #518
  80              		.loc 1 33 0
  81 0038 2983     		strh	r1, [r5, #24]	@ movhi
  82              		.loc 1 35 0
  83 003a 0948     		ldr	r0, .L9+4
  84 003c FFF7FEFF 		bl	_pal_lld_setgroupmode
  85              	.LVL4:
  86              		.loc 1 36 0
  87 0040 019A     		ldr	r2, [sp, #4]
  88 0042 3368     		ldr	r3, [r6]
  89 0044 9A42     		cmp	r2, r3
  90 0046 06D1     		bne	.L8
  91 0048 0649     		ldr	r1, .L9+8
  92 004a 0748     		ldr	r0, .L9+12
  93              		.loc 1 37 0
  94 004c 02B0     		add	sp, sp, #8
  95              		.cfi_remember_state
  96              		.cfi_def_cfa_offset 16
  97              		@ sp needed
  98 004e BDE87040 		pop	{r4, r5, r6, lr}
  99              		.cfi_restore 14
 100              		.cfi_restore 6
 101              		.cfi_restore 5
 102              		.cfi_restore 4
 103              		.cfi_def_cfa_offset 0
 104              		.loc 1 36 0
 105 0052 FFF7FEBF 		b	i2cStart
 106              	.LVL5:
 107              	.L8:
 108              		.cfi_restore_state
 109 0056 FFF7FEFF 		bl	__stack_chk_fail
 110              	.LVL6:
 111              	.L10:
 112 005a 00BF     		.align	2
 113              	.L9:
 114 005c 00000000 		.word	__stack_chk_guard
ARM GAS  C:\Users\shadi\AppData\Local\Temp\ccpz0lVh.s 			page 3


 115 0060 00040240 		.word	1073873920
 116 0064 00000000 		.word	.LANCHOR0
 117 0068 00000000 		.word	I2CD1
 118              		.cfi_endproc
 119              	.LFE262:
 120              		.size	i2c_start.part.0, .-i2c_start.part.0
 121              		.section	.text.i2c_start,"ax",%progbits
 122              		.align	1
 123              		.p2align 4,,15
 124              		.global	i2c_start
 125              		.syntax unified
 126              		.thumb
 127              		.thumb_func
 128              		.fpu fpv4-sp-d16
 129              		.type	i2c_start, %function
 130              	i2c_start:
 131              	.LFB256:
 132              		.loc 1 8 0
 133              		.cfi_startproc
 134              		@ args = 0, pretend = 0, frame = 8
 135              		@ frame_needed = 0, uses_anonymous_args = 0
 136 0000 00B5     		push	{lr}
 137              		.cfi_def_cfa_offset 4
 138              		.cfi_offset 14, -4
 139              		.loc 1 10 0
 140 0002 0C4A     		ldr	r2, .L18
 141              		.loc 1 8 0
 142 0004 0C4B     		ldr	r3, .L18+4
 143              		.loc 1 10 0
 144 0006 1278     		ldrb	r2, [r2]	@ zero_extendqisi2
 145              		.loc 1 8 0
 146 0008 1968     		ldr	r1, [r3]
 147 000a 83B0     		sub	sp, sp, #12
 148              		.cfi_def_cfa_offset 16
 149              		.loc 1 10 0
 150 000c 012A     		cmp	r2, #1
 151              		.loc 1 8 0
 152 000e 0191     		str	r1, [sp, #4]
 153              		.loc 1 37 0
 154 0010 019A     		ldr	r2, [sp, #4]
 155 0012 1B68     		ldr	r3, [r3]
 156              		.loc 1 10 0
 157 0014 04D0     		beq	.L17
 158              		.loc 1 37 0
 159 0016 9A42     		cmp	r2, r3
 160 0018 09D1     		bne	.L16
 161 001a 03B0     		add	sp, sp, #12
 162              		.cfi_remember_state
 163              		.cfi_def_cfa_offset 4
 164              		@ sp needed
 165 001c 5DF804FB 		ldr	pc, [sp], #4
 166              	.L17:
 167              		.cfi_restore_state
 168 0020 9A42     		cmp	r2, r3
 169 0022 04D1     		bne	.L16
 170 0024 03B0     		add	sp, sp, #12
 171              		.cfi_remember_state
ARM GAS  C:\Users\shadi\AppData\Local\Temp\ccpz0lVh.s 			page 4


 172              		.cfi_def_cfa_offset 4
 173              		@ sp needed
 174 0026 5DF804EB 		ldr	lr, [sp], #4
 175              		.cfi_restore 14
 176              		.cfi_def_cfa_offset 0
 177 002a FFF7FEBF 		b	i2c_start.part.0
 178              	.LVL7:
 179              	.L16:
 180              		.cfi_restore_state
 181 002e FFF7FEFF 		bl	__stack_chk_fail
 182              	.LVL8:
 183              	.L19:
 184 0032 00BF     		.align	2
 185              	.L18:
 186 0034 00000000 		.word	I2CD1
 187 0038 00000000 		.word	__stack_chk_guard
 188              		.cfi_endproc
 189              	.LFE256:
 190              		.size	i2c_start, .-i2c_start
 191              		.section	.text.i2c_stop,"ax",%progbits
 192              		.align	1
 193              		.p2align 4,,15
 194              		.global	i2c_stop
 195              		.syntax unified
 196              		.thumb
 197              		.thumb_func
 198              		.fpu fpv4-sp-d16
 199              		.type	i2c_stop, %function
 200              	i2c_stop:
 201              	.LFB257:
 202              		.loc 1 39 0
 203              		.cfi_startproc
 204              		@ args = 0, pretend = 0, frame = 8
 205              		@ frame_needed = 0, uses_anonymous_args = 0
 206 0000 00B5     		push	{lr}
 207              		.cfi_def_cfa_offset 4
 208              		.cfi_offset 14, -4
 209 0002 084B     		ldr	r3, .L25
 210 0004 83B0     		sub	sp, sp, #12
 211              		.cfi_def_cfa_offset 16
 212              		.loc 1 39 0
 213 0006 1A68     		ldr	r2, [r3]
 214 0008 0192     		str	r2, [sp, #4]
 215              		.loc 1 40 0
 216 000a 019A     		ldr	r2, [sp, #4]
 217 000c 1B68     		ldr	r3, [r3]
 218 000e 9A42     		cmp	r2, r3
 219 0010 05D1     		bne	.L24
 220 0012 0548     		ldr	r0, .L25+4
 221              		.loc 1 41 0
 222 0014 03B0     		add	sp, sp, #12
 223              		.cfi_remember_state
 224              		.cfi_def_cfa_offset 4
 225              		@ sp needed
 226 0016 5DF804EB 		ldr	lr, [sp], #4
 227              		.cfi_restore 14
 228              		.cfi_def_cfa_offset 0
ARM GAS  C:\Users\shadi\AppData\Local\Temp\ccpz0lVh.s 			page 5


 229              		.loc 1 40 0
 230 001a FFF7FEBF 		b	i2cStop
 231              	.LVL9:
 232              	.L24:
 233              		.cfi_restore_state
 234 001e FFF7FEFF 		bl	__stack_chk_fail
 235              	.LVL10:
 236              	.L26:
 237 0022 00BF     		.align	2
 238              	.L25:
 239 0024 00000000 		.word	__stack_chk_guard
 240 0028 00000000 		.word	I2CD1
 241              		.cfi_endproc
 242              	.LFE257:
 243              		.size	i2c_stop, .-i2c_stop
 244              		.section	.text.get_last_i2c_error,"ax",%progbits
 245              		.align	1
 246              		.p2align 4,,15
 247              		.global	get_last_i2c_error
 248              		.syntax unified
 249              		.thumb
 250              		.thumb_func
 251              		.fpu fpv4-sp-d16
 252              		.type	get_last_i2c_error, %function
 253              	get_last_i2c_error:
 254              	.LFB258:
 255              		.loc 1 43 0
 256              		.cfi_startproc
 257              		@ args = 0, pretend = 0, frame = 8
 258              		@ frame_needed = 0, uses_anonymous_args = 0
 259 0000 00B5     		push	{lr}
 260              		.cfi_def_cfa_offset 4
 261              		.cfi_offset 14, -4
 262 0002 074B     		ldr	r3, .L31
 263              		.loc 1 44 0
 264 0004 0749     		ldr	r1, .L31+4
 265              		.loc 1 43 0
 266 0006 1A68     		ldr	r2, [r3]
 267              		.loc 1 45 0
 268 0008 0868     		ldr	r0, [r1]
 269              		.loc 1 43 0
 270 000a 83B0     		sub	sp, sp, #12
 271              		.cfi_def_cfa_offset 16
 272              		.loc 1 43 0
 273 000c 0192     		str	r2, [sp, #4]
 274              		.loc 1 45 0
 275 000e 019A     		ldr	r2, [sp, #4]
 276 0010 1B68     		ldr	r3, [r3]
 277 0012 9A42     		cmp	r2, r3
 278 0014 02D1     		bne	.L30
 279 0016 03B0     		add	sp, sp, #12
 280              		.cfi_remember_state
 281              		.cfi_def_cfa_offset 4
 282              		@ sp needed
 283 0018 5DF804FB 		ldr	pc, [sp], #4
 284              	.L30:
 285              		.cfi_restore_state
ARM GAS  C:\Users\shadi\AppData\Local\Temp\ccpz0lVh.s 			page 6


 286 001c FFF7FEFF 		bl	__stack_chk_fail
 287              	.LVL11:
 288              	.L32:
 289              		.align	2
 290              	.L31:
 291 0020 00000000 		.word	__stack_chk_guard
 292 0024 00000000 		.word	.LANCHOR1
 293              		.cfi_endproc
 294              	.LFE258:
 295              		.size	get_last_i2c_error, .-get_last_i2c_error
 296              		.section	.text.read_reg,"ax",%progbits
 297              		.align	1
 298              		.p2align 4,,15
 299              		.global	read_reg
 300              		.syntax unified
 301              		.thumb
 302              		.thumb_func
 303              		.fpu fpv4-sp-d16
 304              		.type	read_reg, %function
 305              	read_reg:
 306              	.LFB259:
 307              		.loc 1 47 0
 308              		.cfi_startproc
 309              		@ args = 0, pretend = 0, frame = 16
 310              		@ frame_needed = 0, uses_anonymous_args = 0
 311              	.LVL12:
 312 0000 2DE9F041 		push	{r4, r5, r6, r7, r8, lr}
 313              		.cfi_def_cfa_offset 24
 314              		.cfi_offset 4, -24
 315              		.cfi_offset 5, -20
 316              		.cfi_offset 6, -16
 317              		.cfi_offset 7, -12
 318              		.cfi_offset 8, -8
 319              		.cfi_offset 14, -4
 320              		.loc 1 52 0
 321 0004 224C     		ldr	r4, .L50
 322              		.loc 1 47 0
 323 0006 234E     		ldr	r6, .L50+4
 324 0008 88B0     		sub	sp, sp, #32
 325              		.cfi_def_cfa_offset 56
 326              		.loc 1 50 0
 327 000a 0023     		movs	r3, #0
 328              		.loc 1 47 0
 329 000c 3568     		ldr	r5, [r6]
 330              		.loc 1 50 0
 331 000e 8DF81830 		strb	r3, [sp, #24]
 332              		.loc 1 47 0
 333 0012 8046     		mov	r8, r0
 334              		.loc 1 52 0
 335 0014 2046     		mov	r0, r4
 336              	.LVL13:
 337              		.loc 1 49 0
 338 0016 8DF81410 		strb	r1, [sp, #20]
 339              		.loc 1 47 0
 340 001a 1746     		mov	r7, r2
 341 001c 0795     		str	r5, [sp, #28]
 342              		.loc 1 52 0
ARM GAS  C:\Users\shadi\AppData\Local\Temp\ccpz0lVh.s 			page 7


 343 001e FFF7FEFF 		bl	i2cAcquireBus
 344              	.LVL14:
 345              		.loc 1 53 0
 346 0022 2378     		ldrb	r3, [r4]	@ zero_extendqisi2
 347 0024 012B     		cmp	r3, #1
 348 0026 0CD0     		beq	.L34
 349              	.LBB20:
 350              		.loc 1 54 0
 351 0028 0420     		movs	r0, #4
 352 002a 0123     		movs	r3, #1
 353 002c 06AA     		add	r2, sp, #24
 354 002e CDE90130 		strd	r3, r0, [sp, #4]
 355 0032 0092     		str	r2, [sp]
 356 0034 4146     		mov	r1, r8
 357 0036 05AA     		add	r2, sp, #20
 358 0038 2046     		mov	r0, r4
 359 003a FFF7FEFF 		bl	i2cMasterTransmitTimeout
 360              	.LVL15:
 361              		.loc 1 55 0
 362 003e 0546     		mov	r5, r0
 363 0040 68B9     		cbnz	r0, .L47
 364              	.LVL16:
 365              	.L34:
 366              	.LBE20:
 367              		.loc 1 65 0
 368 0042 1348     		ldr	r0, .L50
 369 0044 FFF7FEFF 		bl	i2cReleaseBus
 370              	.LVL17:
 371              		.loc 1 67 0
 372 0048 9DF81830 		ldrb	r3, [sp, #24]	@ zero_extendqisi2
 373 004c 3B70     		strb	r3, [r7]
 374              		.loc 1 69 0
 375 004e 0020     		movs	r0, #0
 376              	.L38:
 377              		.loc 1 70 0
 378 0050 079A     		ldr	r2, [sp, #28]
 379 0052 3368     		ldr	r3, [r6]
 380 0054 9A42     		cmp	r2, r3
 381 0056 18D1     		bne	.L48
 382 0058 08B0     		add	sp, sp, #32
 383              		.cfi_remember_state
 384              		.cfi_def_cfa_offset 24
 385              		@ sp needed
 386 005a BDE8F081 		pop	{r4, r5, r6, r7, r8, pc}
 387              	.LVL18:
 388              	.L47:
 389              		.cfi_restore_state
 390              	.LBB25:
 391              		.loc 1 56 0
 392 005e 2046     		mov	r0, r4
 393              	.LVL19:
 394 0060 FFF7FEFF 		bl	i2cGetErrors
 395              	.LVL20:
 396              		.loc 1 57 0
 397 0064 2378     		ldrb	r3, [r4]	@ zero_extendqisi2
 398              		.loc 1 56 0
 399 0066 0C4A     		ldr	r2, .L50+8
ARM GAS  C:\Users\shadi\AppData\Local\Temp\ccpz0lVh.s 			page 8


 400              		.loc 1 57 0
 401 0068 052B     		cmp	r3, #5
 402              		.loc 1 56 0
 403 006a 1060     		str	r0, [r2]
 404              		.loc 1 57 0
 405 006c 04D0     		beq	.L49
 406              	.L36:
 407              		.loc 1 61 0
 408 006e 0848     		ldr	r0, .L50
 409 0070 FFF7FEFF 		bl	i2cReleaseBus
 410              	.LVL21:
 411              		.loc 1 62 0
 412 0074 68B2     		sxtb	r0, r5
 413 0076 EBE7     		b	.L38
 414              	.L49:
 415              	.LBB21:
 416              	.LBB22:
 417              		.loc 1 40 0
 418 0078 2046     		mov	r0, r4
 419 007a FFF7FEFF 		bl	i2cStop
 420              	.LVL22:
 421              	.LBE22:
 422              	.LBE21:
 423              	.LBB23:
 424              	.LBB24:
 425              		.loc 1 10 0
 426 007e 2378     		ldrb	r3, [r4]	@ zero_extendqisi2
 427 0080 012B     		cmp	r3, #1
 428 0082 F4D1     		bne	.L36
 429 0084 FFF7FEFF 		bl	i2c_start.part.0
 430              	.LVL23:
 431 0088 F1E7     		b	.L36
 432              	.LVL24:
 433              	.L48:
 434              	.LBE24:
 435              	.LBE23:
 436              	.LBE25:
 437              		.loc 1 70 0
 438 008a FFF7FEFF 		bl	__stack_chk_fail
 439              	.LVL25:
 440              	.L51:
 441 008e 00BF     		.align	2
 442              	.L50:
 443 0090 00000000 		.word	I2CD1
 444 0094 00000000 		.word	__stack_chk_guard
 445 0098 00000000 		.word	.LANCHOR1
 446              		.cfi_endproc
 447              	.LFE259:
 448              		.size	read_reg, .-read_reg
 449              		.section	.text.write_reg,"ax",%progbits
 450              		.align	1
 451              		.p2align 4,,15
 452              		.global	write_reg
 453              		.syntax unified
 454              		.thumb
 455              		.thumb_func
 456              		.fpu fpv4-sp-d16
ARM GAS  C:\Users\shadi\AppData\Local\Temp\ccpz0lVh.s 			page 9


 457              		.type	write_reg, %function
 458              	write_reg:
 459              	.LFB260:
 460              		.loc 1 73 0
 461              		.cfi_startproc
 462              		@ args = 0, pretend = 0, frame = 16
 463              		@ frame_needed = 0, uses_anonymous_args = 0
 464              	.LVL26:
 465 0000 F0B5     		push	{r4, r5, r6, r7, lr}
 466              		.cfi_def_cfa_offset 20
 467              		.cfi_offset 4, -20
 468              		.cfi_offset 5, -16
 469              		.cfi_offset 6, -12
 470              		.cfi_offset 7, -8
 471              		.cfi_offset 14, -4
 472              		.loc 1 78 0
 473 0002 214C     		ldr	r4, .L69
 474              		.loc 1 73 0
 475 0004 214E     		ldr	r6, .L69+4
 476 0006 89B0     		sub	sp, sp, #36
 477              		.cfi_def_cfa_offset 56
 478              		.loc 1 73 0
 479 0008 3368     		ldr	r3, [r6]
 480 000a 0793     		str	r3, [sp, #28]
 481 000c 0746     		mov	r7, r0
 482              		.loc 1 76 0
 483 000e 0025     		movs	r5, #0
 484              		.loc 1 78 0
 485 0010 2046     		mov	r0, r4
 486              	.LVL27:
 487              		.loc 1 75 0
 488 0012 8DF81810 		strb	r1, [sp, #24]
 489 0016 8DF81920 		strb	r2, [sp, #25]
 490              		.loc 1 76 0
 491 001a 8DF81450 		strb	r5, [sp, #20]
 492              		.loc 1 78 0
 493 001e FFF7FEFF 		bl	i2cAcquireBus
 494              	.LVL28:
 495              		.loc 1 79 0
 496 0022 2378     		ldrb	r3, [r4]	@ zero_extendqisi2
 497 0024 012B     		cmp	r3, #1
 498 0026 0CD0     		beq	.L53
 499              	.LBB26:
 500              		.loc 1 80 0
 501 0028 0422     		movs	r2, #4
 502 002a 05AB     		add	r3, sp, #20
 503 002c 0195     		str	r5, [sp, #4]
 504 002e 0292     		str	r2, [sp, #8]
 505 0030 0093     		str	r3, [sp]
 506 0032 3946     		mov	r1, r7
 507 0034 0223     		movs	r3, #2
 508 0036 06AA     		add	r2, sp, #24
 509 0038 2046     		mov	r0, r4
 510 003a FFF7FEFF 		bl	i2cMasterTransmitTimeout
 511              	.LVL29:
 512              		.loc 1 81 0
 513 003e 0546     		mov	r5, r0
ARM GAS  C:\Users\shadi\AppData\Local\Temp\ccpz0lVh.s 			page 10


 514 0040 48B9     		cbnz	r0, .L66
 515              	.LVL30:
 516              	.L53:
 517              	.LBE26:
 518              		.loc 1 91 0
 519 0042 1148     		ldr	r0, .L69
 520 0044 FFF7FEFF 		bl	i2cReleaseBus
 521              	.LVL31:
 522              		.loc 1 93 0
 523 0048 0020     		movs	r0, #0
 524              	.L57:
 525              		.loc 1 94 0
 526 004a 079A     		ldr	r2, [sp, #28]
 527 004c 3368     		ldr	r3, [r6]
 528 004e 9A42     		cmp	r2, r3
 529 0050 17D1     		bne	.L67
 530 0052 09B0     		add	sp, sp, #36
 531              		.cfi_remember_state
 532              		.cfi_def_cfa_offset 20
 533              		@ sp needed
 534 0054 F0BD     		pop	{r4, r5, r6, r7, pc}
 535              	.LVL32:
 536              	.L66:
 537              		.cfi_restore_state
 538              	.LBB31:
 539              		.loc 1 82 0
 540 0056 2046     		mov	r0, r4
 541              	.LVL33:
 542 0058 FFF7FEFF 		bl	i2cGetErrors
 543              	.LVL34:
 544              		.loc 1 83 0
 545 005c 2378     		ldrb	r3, [r4]	@ zero_extendqisi2
 546              		.loc 1 82 0
 547 005e 0C4A     		ldr	r2, .L69+8
 548              		.loc 1 83 0
 549 0060 052B     		cmp	r3, #5
 550              		.loc 1 82 0
 551 0062 1060     		str	r0, [r2]
 552              		.loc 1 83 0
 553 0064 04D0     		beq	.L68
 554              	.L55:
 555              		.loc 1 87 0
 556 0066 0848     		ldr	r0, .L69
 557 0068 FFF7FEFF 		bl	i2cReleaseBus
 558              	.LVL35:
 559              		.loc 1 88 0
 560 006c 68B2     		sxtb	r0, r5
 561 006e ECE7     		b	.L57
 562              	.L68:
 563              	.LBB27:
 564              	.LBB28:
 565              		.loc 1 40 0
 566 0070 2046     		mov	r0, r4
 567 0072 FFF7FEFF 		bl	i2cStop
 568              	.LVL36:
 569              	.LBE28:
 570              	.LBE27:
ARM GAS  C:\Users\shadi\AppData\Local\Temp\ccpz0lVh.s 			page 11


 571              	.LBB29:
 572              	.LBB30:
 573              		.loc 1 10 0
 574 0076 2378     		ldrb	r3, [r4]	@ zero_extendqisi2
 575 0078 012B     		cmp	r3, #1
 576 007a F4D1     		bne	.L55
 577 007c FFF7FEFF 		bl	i2c_start.part.0
 578              	.LVL37:
 579 0080 F1E7     		b	.L55
 580              	.LVL38:
 581              	.L67:
 582              	.LBE30:
 583              	.LBE29:
 584              	.LBE31:
 585              		.loc 1 94 0
 586 0082 FFF7FEFF 		bl	__stack_chk_fail
 587              	.LVL39:
 588              	.L70:
 589 0086 00BF     		.align	2
 590              	.L69:
 591 0088 00000000 		.word	I2CD1
 592 008c 00000000 		.word	__stack_chk_guard
 593 0090 00000000 		.word	.LANCHOR1
 594              		.cfi_endproc
 595              	.LFE260:
 596              		.size	write_reg, .-write_reg
 597              		.section	.text.read_reg_multi,"ax",%progbits
 598              		.align	1
 599              		.p2align 4,,15
 600              		.global	read_reg_multi
 601              		.syntax unified
 602              		.thumb
 603              		.thumb_func
 604              		.fpu fpv4-sp-d16
 605              		.type	read_reg_multi, %function
 606              	read_reg_multi:
 607              	.LFB261:
 608              		.loc 1 96 0
 609              		.cfi_startproc
 610              		@ args = 0, pretend = 0, frame = 16
 611              		@ frame_needed = 0, uses_anonymous_args = 0
 612              	.LVL40:
 613 0000 2DE9F043 		push	{r4, r5, r6, r7, r8, r9, lr}
 614              		.cfi_def_cfa_offset 28
 615              		.cfi_offset 4, -28
 616              		.cfi_offset 5, -24
 617              		.cfi_offset 6, -20
 618              		.cfi_offset 7, -16
 619              		.cfi_offset 8, -12
 620              		.cfi_offset 9, -8
 621              		.cfi_offset 14, -4
 622              		.loc 1 98 0
 623 0004 1F4C     		ldr	r4, .L88
 624              		.loc 1 96 0
 625 0006 204E     		ldr	r6, .L88+4
 626 0008 89B0     		sub	sp, sp, #36
 627              		.cfi_def_cfa_offset 64
ARM GAS  C:\Users\shadi\AppData\Local\Temp\ccpz0lVh.s 			page 12


 628              		.loc 1 96 0
 629 000a 3568     		ldr	r5, [r6]
 630 000c 8DF81710 		strb	r1, [sp, #23]
 631 0010 0746     		mov	r7, r0
 632              		.loc 1 98 0
 633 0012 2046     		mov	r0, r4
 634              	.LVL41:
 635              		.loc 1 96 0
 636 0014 9046     		mov	r8, r2
 637 0016 9946     		mov	r9, r3
 638 0018 0795     		str	r5, [sp, #28]
 639              		.loc 1 98 0
 640 001a FFF7FEFF 		bl	i2cAcquireBus
 641              	.LVL42:
 642              		.loc 1 99 0
 643 001e 2178     		ldrb	r1, [r4]	@ zero_extendqisi2
 644 0020 0129     		cmp	r1, #1
 645 0022 0CD0     		beq	.L72
 646              	.LBB32:
 647              		.loc 1 100 0
 648 0024 0423     		movs	r3, #4
 649 0026 0293     		str	r3, [sp, #8]
 650 0028 CDE90089 		strd	r8, r9, [sp]
 651 002c 3946     		mov	r1, r7
 652 002e 0123     		movs	r3, #1
 653 0030 0DF11702 		add	r2, sp, #23
 654 0034 2046     		mov	r0, r4
 655 0036 FFF7FEFF 		bl	i2cMasterTransmitTimeout
 656              	.LVL43:
 657              		.loc 1 101 0
 658 003a 0546     		mov	r5, r0
 659 003c 50B9     		cbnz	r0, .L85
 660              	.LVL44:
 661              	.L72:
 662              	.LBE32:
 663              		.loc 1 111 0
 664 003e 1148     		ldr	r0, .L88
 665 0040 FFF7FEFF 		bl	i2cReleaseBus
 666              	.LVL45:
 667              		.loc 1 113 0
 668 0044 0020     		movs	r0, #0
 669              	.L76:
 670              		.loc 1 114 0
 671 0046 079A     		ldr	r2, [sp, #28]
 672 0048 3368     		ldr	r3, [r6]
 673 004a 9A42     		cmp	r2, r3
 674 004c 18D1     		bne	.L86
 675 004e 09B0     		add	sp, sp, #36
 676              		.cfi_remember_state
 677              		.cfi_def_cfa_offset 28
 678              		@ sp needed
 679 0050 BDE8F083 		pop	{r4, r5, r6, r7, r8, r9, pc}
 680              	.LVL46:
 681              	.L85:
 682              		.cfi_restore_state
 683              	.LBB37:
 684              		.loc 1 102 0
ARM GAS  C:\Users\shadi\AppData\Local\Temp\ccpz0lVh.s 			page 13


 685 0054 2046     		mov	r0, r4
 686              	.LVL47:
 687 0056 FFF7FEFF 		bl	i2cGetErrors
 688              	.LVL48:
 689              		.loc 1 103 0
 690 005a 2378     		ldrb	r3, [r4]	@ zero_extendqisi2
 691              		.loc 1 102 0
 692 005c 0B4A     		ldr	r2, .L88+8
 693              		.loc 1 103 0
 694 005e 052B     		cmp	r3, #5
 695              		.loc 1 102 0
 696 0060 1060     		str	r0, [r2]
 697              		.loc 1 103 0
 698 0062 04D0     		beq	.L87
 699              	.L74:
 700              		.loc 1 107 0
 701 0064 0748     		ldr	r0, .L88
 702 0066 FFF7FEFF 		bl	i2cReleaseBus
 703              	.LVL49:
 704              		.loc 1 108 0
 705 006a 68B2     		sxtb	r0, r5
 706 006c EBE7     		b	.L76
 707              	.L87:
 708              	.LBB33:
 709              	.LBB34:
 710              		.loc 1 40 0
 711 006e 2046     		mov	r0, r4
 712 0070 FFF7FEFF 		bl	i2cStop
 713              	.LVL50:
 714              	.LBE34:
 715              	.LBE33:
 716              	.LBB35:
 717              	.LBB36:
 718              		.loc 1 10 0
 719 0074 2378     		ldrb	r3, [r4]	@ zero_extendqisi2
 720 0076 012B     		cmp	r3, #1
 721 0078 F4D1     		bne	.L74
 722 007a FFF7FEFF 		bl	i2c_start.part.0
 723              	.LVL51:
 724 007e F1E7     		b	.L74
 725              	.LVL52:
 726              	.L86:
 727              	.LBE36:
 728              	.LBE35:
 729              	.LBE37:
 730              		.loc 1 114 0
 731 0080 FFF7FEFF 		bl	__stack_chk_fail
 732              	.LVL53:
 733              	.L89:
 734              		.align	2
 735              	.L88:
 736 0084 00000000 		.word	I2CD1
 737 0088 00000000 		.word	__stack_chk_guard
 738 008c 00000000 		.word	.LANCHOR1
 739              		.cfi_endproc
 740              	.LFE261:
 741              		.size	read_reg_multi, .-read_reg_multi
ARM GAS  C:\Users\shadi\AppData\Local\Temp\ccpz0lVh.s 			page 14


 742              		.section	.bss.errors,"aw",%nobits
 743              		.align	2
 744              		.set	.LANCHOR1,. + 0
 745              		.type	errors, %object
 746              		.size	errors, 4
 747              	errors:
 748 0000 00000000 		.space	4
 749              		.section	.rodata.i2c_cfg1.9862,"a",%progbits
 750              		.align	2
 751              		.set	.LANCHOR0,. + 0
 752              		.type	i2c_cfg1.9862, %object
 753              		.size	i2c_cfg1.9862, 12
 754              	i2c_cfg1.9862:
 755 0000 01       		.byte	1
 756 0001 000000   		.space	3
 757 0004 400D0300 		.word	200000
 758 0008 02       		.byte	2
 759 0009 000000   		.space	3
 760              		.text
 761              	.Letext0:
 762              		.file 2 "c:\\users\\shadi\\downloads\\eclipse_e-puck2\\tools\\gcc-arm-none-eabi-7-2017-q4-major-wi
 763              		.file 3 "c:\\users\\shadi\\downloads\\eclipse_e-puck2\\tools\\gcc-arm-none-eabi-7-2017-q4-major-wi
 764              		.file 4 "c:\\users\\shadi\\downloads\\eclipse_e-puck2\\tools\\gcc-arm-none-eabi-7-2017-q4-major-wi
 765              		.file 5 "../../lib/e-puck2_main-processor/ChibiOS//os/rt/ports/ARMCMx/compilers/GCC/chtypes.h"
 766              		.file 6 "../../lib/e-puck2_main-processor/ChibiOS//os/rt/include/chsystypes.h"
 767              		.file 7 "../../lib/e-puck2_main-processor/ChibiOS//os/rt/include/chschd.h"
 768              		.file 8 "../../lib/e-puck2_main-processor/ChibiOS//os/ext/CMSIS/include/core_cm4.h"
 769              		.file 9 "../../lib/e-puck2_main-processor/ChibiOS//os/ext/CMSIS/ST/system_stm32f4xx.h"
 770              		.file 10 "../../lib/e-puck2_main-processor/ChibiOS//os/ext/CMSIS/ST/stm32f407xx.h"
 771              		.file 11 "../../lib/e-puck2_main-processor/ChibiOS//os/rt/ports/ARMCMx/chcore.h"
 772              		.file 12 "../../lib/e-puck2_main-processor/ChibiOS//os/rt/ports/ARMCMx/chcore_v7m.h"
 773              		.file 13 "../../lib/e-puck2_main-processor/ChibiOS//os/rt/include/chdebug.h"
 774              		.file 14 "../../lib/e-puck2_main-processor/ChibiOS//os/rt/include/chtm.h"
 775              		.file 15 "../../lib/e-puck2_main-processor/ChibiOS//os/rt/include/chstats.h"
 776              		.file 16 "../../lib/e-puck2_main-processor/ChibiOS//os/rt/include/chsem.h"
 777              		.file 17 "../../lib/e-puck2_main-processor/ChibiOS//os/rt/include/chmtx.h"
 778              		.file 18 "../../lib/e-puck2_main-processor/ChibiOS//os/rt/include/chregistry.h"
 779              		.file 19 "../../lib/e-puck2_main-processor/ChibiOS//os/rt/include/chevents.h"
 780              		.file 20 "../../lib/e-puck2_main-processor/ChibiOS//os/rt/include/chqueues.h"
 781              		.file 21 "../../lib/e-puck2_main-processor/ChibiOS//os/hal/ports/STM32/STM32F4xx/stm32_dma.h"
 782              		.file 22 "../../lib/e-puck2_main-processor/ChibiOS//os/hal/include/hal_ioblock.h"
 783              		.file 23 "../../lib/e-puck2_main-processor/ChibiOS//os/hal/ports/STM32/LLD/GPIOv2/pal_lld.h"
 784              		.file 24 "../../lib/e-puck2_main-processor/ChibiOS//os/hal/include/adc.h"
 785              		.file 25 "../../lib/e-puck2_main-processor/ChibiOS//os/hal/ports/STM32/STM32F4xx/adc_lld.h"
 786              		.file 26 "../../lib/e-puck2_main-processor/ChibiOS//os/hal/include/can.h"
 787              		.file 27 "../../lib/e-puck2_main-processor/ChibiOS//os/hal/ports/STM32/LLD/can_lld.h"
 788              		.file 28 "../../lib/e-puck2_main-processor/ChibiOS//os/hal/include/dac.h"
 789              		.file 29 "../../lib/e-puck2_main-processor/ChibiOS//os/hal/ports/STM32/LLD/DACv1/dac_lld.h"
 790              		.file 30 "../../lib/e-puck2_main-processor/ChibiOS//os/hal/include/ext.h"
 791              		.file 31 "../../lib/e-puck2_main-processor/ChibiOS//os/hal/ports/STM32/LLD/ext_lld.h"
 792              		.file 32 "../../lib/e-puck2_main-processor/ChibiOS//os/hal/include/gpt.h"
 793              		.file 33 "../../lib/e-puck2_main-processor/ChibiOS//os/hal/ports/STM32/LLD/TIMv1/gpt_lld.h"
 794              		.file 34 "../../lib/e-puck2_main-processor/ChibiOS//os/hal/ports/STM32/LLD/TIMv1/stm32_tim.h"
 795              		.file 35 "../../lib/e-puck2_main-processor/ChibiOS//os/hal/include/i2c.h"
 796              		.file 36 "../../lib/e-puck2_main-processor/ChibiOS//os/hal/ports/STM32/LLD/I2Cv1/i2c_lld.h"
 797              		.file 37 "../../lib/e-puck2_main-processor/ChibiOS//os/hal/include/i2s.h"
 798              		.file 38 "../../lib/e-puck2_main-processor/ChibiOS//os/hal/ports/STM32/LLD/SPIv1/i2s_lld.h"
ARM GAS  C:\Users\shadi\AppData\Local\Temp\ccpz0lVh.s 			page 15


 799              		.file 39 "../../lib/e-puck2_main-processor/ChibiOS//os/hal/include/pwm.h"
 800              		.file 40 "../../lib/e-puck2_main-processor/ChibiOS//os/hal/ports/STM32/LLD/TIMv1/pwm_lld.h"
 801              		.file 41 "../../lib/e-puck2_main-processor/ChibiOS//os/hal/include/serial.h"
 802              		.file 42 "../../lib/e-puck2_main-processor/ChibiOS//os/hal/ports/STM32/LLD/USARTv1/serial_lld.h"
 803              		.file 43 "../../lib/e-puck2_main-processor/ChibiOS//os/hal/include/sdc.h"
 804              		.file 44 "../../lib/e-puck2_main-processor/ChibiOS//os/hal/ports/STM32/LLD/sdc_lld.h"
 805              		.file 45 "../../lib/e-puck2_main-processor/ChibiOS//os/hal/include/spi.h"
 806              		.file 46 "../../lib/e-puck2_main-processor/ChibiOS//os/hal/ports/STM32/LLD/SPIv1/spi_lld.h"
 807              		.file 47 "../../lib/e-puck2_main-processor/ChibiOS//os/hal/include/usb.h"
 808              		.file 48 "../../lib/e-puck2_main-processor/ChibiOS//os/hal/ports/STM32/LLD/OTGv1/usb_lld.h"
 809              		.file 49 "../../lib/e-puck2_main-processor/ChibiOS//os/hal/ports/STM32/LLD/OTGv1/stm32_otg.h"
 810              		.file 50 "../../lib/e-puck2_main-processor/ChibiOS//os/rt/include/chthreads.h"