ARM GAS  C:\Users\shadi\AppData\Local\Temp\cchtnTAD.s 			page 1


   1              		.cpu cortex-m4
   2              		.eabi_attribute 27, 1
   3              		.eabi_attribute 28, 1
   4              		.eabi_attribute 20, 1
   5              		.eabi_attribute 21, 1
   6              		.eabi_attribute 23, 3
   7              		.eabi_attribute 24, 1
   8              		.eabi_attribute 25, 1
   9              		.eabi_attribute 26, 1
  10              		.eabi_attribute 30, 2
  11              		.eabi_attribute 34, 1
  12              		.eabi_attribute 18, 4
  13              		.file	"led_control.c"
  14              		.text
  15              	.Ltext0:
  16              		.cfi_sections	.debug_frame
  17              		.section	.text.BlinkLeds,"ax",%progbits
  18              		.align	1
  19              		.p2align 4,,15
  20              		.syntax unified
  21              		.thumb
  22              		.thumb_func
  23              		.fpu fpv4-sp-d16
  24              		.type	BlinkLeds, %function
  25              	BlinkLeds:
  26              	.LFB260:
  27              		.file 1 "led_control.c"
  28              		.loc 1 23 0
  29              		.cfi_startproc
  30              		@ args = 0, pretend = 0, frame = 8
  31              		@ frame_needed = 0, uses_anonymous_args = 0
  32              	.LVL0:
  33 0000 10B5     		push	{r4, lr}
  34              		.cfi_def_cfa_offset 8
  35              		.cfi_offset 4, -8
  36              		.cfi_offset 14, -4
  37 0002 354B     		ldr	r3, .L13
  38 0004 82B0     		sub	sp, sp, #8
  39              		.cfi_def_cfa_offset 16
  40              		.loc 1 23 0
  41 0006 1B68     		ldr	r3, [r3]
  42 0008 0193     		str	r3, [sp, #4]
  43              	.LVL1:
  44              	.L2:
  45              	.LBB2:
  46              		.loc 1 31 0
  47 000a FFF7FEFF 		bl	get_state
  48              	.LVL2:
  49 000e 0128     		cmp	r0, #1
  50 0010 0446     		mov	r4, r0
  51 0012 15D1     		bne	.L4
  52 0014 46E0     		b	.L12
  53              	.L5:
  54              	.LBE2:
  55              	.LBB3:
  56              		.loc 1 40 0
  57 0016 FFF7FEFF 		bl	toggle_rgb_led
ARM GAS  C:\Users\shadi\AppData\Local\Temp\cchtnTAD.s 			page 2


  58              	.LVL3:
  59              		.loc 1 41 0
  60 001a 0A22     		movs	r2, #10
  61 001c 0021     		movs	r1, #0
  62 001e 0120     		movs	r0, #1
  63 0020 FFF7FEFF 		bl	toggle_rgb_led
  64              	.LVL4:
  65              		.loc 1 42 0
  66 0024 0A22     		movs	r2, #10
  67 0026 0021     		movs	r1, #0
  68 0028 0220     		movs	r0, #2
  69 002a FFF7FEFF 		bl	toggle_rgb_led
  70              	.LVL5:
  71              		.loc 1 43 0
  72 002e 2046     		mov	r0, r4
  73 0030 0A22     		movs	r2, #10
  74 0032 0021     		movs	r1, #0
  75 0034 FFF7FEFF 		bl	toggle_rgb_led
  76              	.LVL6:
  77              		.loc 1 44 0
  78 0038 4FF4FA70 		mov	r0, #500
  79 003c FFF7FEFF 		bl	chThdSleep
  80              	.LVL7:
  81              	.L4:
  82              		.loc 1 39 0
  83 0040 FFF7FEFF 		bl	get_state
  84              	.LVL8:
  85 0044 0446     		mov	r4, r0
  86              		.loc 1 40 0
  87 0046 0021     		movs	r1, #0
  88              		.loc 1 39 0
  89 0048 032C     		cmp	r4, #3
  90              		.loc 1 40 0
  91 004a 0846     		mov	r0, r1
  92 004c 4FF00A02 		mov	r2, #10
  93              		.loc 1 39 0
  94 0050 E1D0     		beq	.L5
  95 0052 14E0     		b	.L6
  96              	.L7:
  97              	.LBE3:
  98              	.LBB4:
  99              		.loc 1 48 0
 100 0054 FFF7FEFF 		bl	toggle_rgb_led
 101              	.LVL9:
 102              		.loc 1 49 0
 103 0058 0121     		movs	r1, #1
 104 005a 0846     		mov	r0, r1
 105 005c 0A22     		movs	r2, #10
 106 005e FFF7FEFF 		bl	toggle_rgb_led
 107              	.LVL10:
 108              		.loc 1 50 0
 109 0062 2046     		mov	r0, r4
 110 0064 0A22     		movs	r2, #10
 111 0066 0121     		movs	r1, #1
 112 0068 FFF7FEFF 		bl	toggle_rgb_led
 113              	.LVL11:
 114              		.loc 1 51 0
ARM GAS  C:\Users\shadi\AppData\Local\Temp\cchtnTAD.s 			page 3


 115 006c 0320     		movs	r0, #3
 116 006e 0A22     		movs	r2, #10
 117 0070 0121     		movs	r1, #1
 118 0072 FFF7FEFF 		bl	toggle_rgb_led
 119              	.LVL12:
 120              		.loc 1 52 0
 121 0076 4FF4FA70 		mov	r0, #500
 122 007a FFF7FEFF 		bl	chThdSleep
 123              	.LVL13:
 124              	.L6:
 125              		.loc 1 47 0
 126 007e FFF7FEFF 		bl	get_state
 127              	.LVL14:
 128 0082 0446     		mov	r4, r0
 129 0084 022C     		cmp	r4, #2
 130              		.loc 1 48 0
 131 0086 4FF00A02 		mov	r2, #10
 132 008a 4FF00101 		mov	r1, #1
 133 008e 4FF00000 		mov	r0, #0
 134              		.loc 1 47 0
 135 0092 DFD0     		beq	.L7
 136              	.LBE4:
 137              		.loc 1 55 0
 138 0094 6420     		movs	r0, #100
 139 0096 FFF7FEFF 		bl	chThdSleep
 140              	.LVL15:
 141              	.LBB5:
 142              		.loc 1 31 0
 143 009a FFF7FEFF 		bl	get_state
 144              	.LVL16:
 145 009e 0128     		cmp	r0, #1
 146 00a0 0446     		mov	r4, r0
 147 00a2 CDD1     		bne	.L4
 148              	.L12:
 149              		.loc 1 32 0
 150 00a4 0A22     		movs	r2, #10
 151 00a6 0221     		movs	r1, #2
 152 00a8 0020     		movs	r0, #0
 153 00aa FFF7FEFF 		bl	toggle_rgb_led
 154              	.LVL17:
 155              		.loc 1 33 0
 156 00ae 2046     		mov	r0, r4
 157 00b0 0A22     		movs	r2, #10
 158 00b2 0221     		movs	r1, #2
 159 00b4 FFF7FEFF 		bl	toggle_rgb_led
 160              	.LVL18:
 161              		.loc 1 34 0
 162 00b8 0221     		movs	r1, #2
 163 00ba 0846     		mov	r0, r1
 164 00bc 0A22     		movs	r2, #10
 165 00be FFF7FEFF 		bl	toggle_rgb_led
 166              	.LVL19:
 167              		.loc 1 35 0
 168 00c2 0A22     		movs	r2, #10
 169 00c4 0221     		movs	r1, #2
 170 00c6 0320     		movs	r0, #3
 171 00c8 FFF7FEFF 		bl	toggle_rgb_led
ARM GAS  C:\Users\shadi\AppData\Local\Temp\cchtnTAD.s 			page 4


 172              	.LVL20:
 173              		.loc 1 36 0
 174 00cc 4FF4FA70 		mov	r0, #500
 175 00d0 FFF7FEFF 		bl	chThdSleep
 176              	.LVL21:
 177 00d4 99E7     		b	.L2
 178              	.L14:
 179 00d6 00BF     		.align	2
 180              	.L13:
 181 00d8 00000000 		.word	__stack_chk_guard
 182              	.LBE5:
 183              		.cfi_endproc
 184              	.LFE260:
 185              		.size	BlinkLeds, .-BlinkLeds
 186              		.section	.text.blink_leds_start,"ax",%progbits
 187              		.align	1
 188              		.p2align 4,,15
 189              		.global	blink_leds_start
 190              		.syntax unified
 191              		.thumb
 192              		.thumb_func
 193              		.fpu fpv4-sp-d16
 194              		.type	blink_leds_start, %function
 195              	blink_leds_start:
 196              	.LFB261:
 197              		.loc 1 96 0
 198              		.cfi_startproc
 199              		@ args = 0, pretend = 0, frame = 8
 200              		@ frame_needed = 0, uses_anonymous_args = 0
 201 0000 10B5     		push	{r4, lr}
 202              		.cfi_def_cfa_offset 8
 203              		.cfi_offset 4, -8
 204              		.cfi_offset 14, -4
 205 0002 0A4C     		ldr	r4, .L19
 206              		.loc 1 97 0
 207 0004 0A4B     		ldr	r3, .L19+4
 208              		.loc 1 96 0
 209 0006 2268     		ldr	r2, [r4]
 210              		.loc 1 97 0
 211 0008 0A48     		ldr	r0, .L19+8
 212              		.loc 1 96 0
 213 000a 84B0     		sub	sp, sp, #16
 214              		.cfi_def_cfa_offset 24
 215              		.loc 1 97 0
 216 000c 4FF4AF61 		mov	r1, #1400
 217              		.loc 1 96 0
 218 0010 0392     		str	r2, [sp, #12]
 219              		.loc 1 97 0
 220 0012 0022     		movs	r2, #0
 221 0014 0092     		str	r2, [sp]
 222 0016 4022     		movs	r2, #64
 223 0018 FFF7FEFF 		bl	chThdCreateStatic
 224              	.LVL22:
 225              		.loc 1 98 0
 226 001c 039A     		ldr	r2, [sp, #12]
 227 001e 2368     		ldr	r3, [r4]
 228 0020 9A42     		cmp	r2, r3
ARM GAS  C:\Users\shadi\AppData\Local\Temp\cchtnTAD.s 			page 5


 229 0022 01D1     		bne	.L18
 230 0024 04B0     		add	sp, sp, #16
 231              		.cfi_remember_state
 232              		.cfi_def_cfa_offset 8
 233              		@ sp needed
 234 0026 10BD     		pop	{r4, pc}
 235              	.L18:
 236              		.cfi_restore_state
 237 0028 FFF7FEFF 		bl	__stack_chk_fail
 238              	.LVL23:
 239              	.L20:
 240              		.align	2
 241              	.L19:
 242 002c 00000000 		.word	__stack_chk_guard
 243 0030 00000000 		.word	BlinkLeds
 244 0034 00000000 		.word	.LANCHOR0
 245              		.cfi_endproc
 246              	.LFE261:
 247              		.size	blink_leds_start, .-blink_leds_start
 248              		.section	.bss.waBlinkLeds,"aw",%nobits
 249              		.align	3
 250              		.set	.LANCHOR0,. + 0
 251              		.type	waBlinkLeds, %object
 252              		.size	waBlinkLeds, 1400
 253              	waBlinkLeds:
 254 0000 00000000 		.space	1400
 254      00000000 
 254      00000000 
 254      00000000 
 254      00000000 
 255              		.text
 256              	.Letext0:
 257              		.file 2 "c:\\users\\shadi\\downloads\\eclipse_e-puck2\\tools\\gcc-arm-none-eabi-7-2017-q4-major-wi
 258              		.file 3 "c:\\users\\shadi\\downloads\\eclipse_e-puck2\\tools\\gcc-arm-none-eabi-7-2017-q4-major-wi
 259              		.file 4 "c:\\users\\shadi\\downloads\\eclipse_e-puck2\\tools\\gcc-arm-none-eabi-7-2017-q4-major-wi
 260              		.file 5 "c:\\users\\shadi\\downloads\\eclipse_e-puck2\\tools\\gcc-arm-none-eabi-7-2017-q4-major-wi
 261              		.file 6 "c:\\users\\shadi\\downloads\\eclipse_e-puck2\\tools\\gcc-arm-none-eabi-7-2017-q4-major-wi
 262              		.file 7 "c:\\users\\shadi\\downloads\\eclipse_e-puck2\\tools\\gcc-arm-none-eabi-7-2017-q4-major-wi
 263              		.file 8 "c:\\users\\shadi\\downloads\\eclipse_e-puck2\\tools\\gcc-arm-none-eabi-7-2017-q4-major-wi
 264              		.file 9 "c:\\users\\shadi\\downloads\\eclipse_e-puck2\\tools\\gcc-arm-none-eabi-7-2017-q4-major-wi
 265              		.file 10 "../../lib/e-puck2_main-processor/ChibiOS//os/rt/ports/ARMCMx/compilers/GCC/chtypes.h"
 266              		.file 11 "../../lib/e-puck2_main-processor/ChibiOS//os/rt/include/chsystypes.h"
 267              		.file 12 "../../lib/e-puck2_main-processor/ChibiOS//os/rt/include/chschd.h"
 268              		.file 13 "../../lib/e-puck2_main-processor/ChibiOS//os/ext/CMSIS/include/core_cm4.h"
 269              		.file 14 "../../lib/e-puck2_main-processor/ChibiOS//os/ext/CMSIS/ST/system_stm32f4xx.h"
 270              		.file 15 "../../lib/e-puck2_main-processor/ChibiOS//os/ext/CMSIS/ST/stm32f407xx.h"
 271              		.file 16 "../../lib/e-puck2_main-processor/ChibiOS//os/rt/ports/ARMCMx/chcore.h"
 272              		.file 17 "../../lib/e-puck2_main-processor/ChibiOS//os/rt/ports/ARMCMx/chcore_v7m.h"
 273              		.file 18 "../../lib/e-puck2_main-processor/ChibiOS//os/rt/include/chdebug.h"
 274              		.file 19 "../../lib/e-puck2_main-processor/ChibiOS//os/rt/include/chtm.h"
 275              		.file 20 "../../lib/e-puck2_main-processor/ChibiOS//os/rt/include/chstats.h"
 276              		.file 21 "../../lib/e-puck2_main-processor/ChibiOS//os/rt/include/chsem.h"
 277              		.file 22 "../../lib/e-puck2_main-processor/ChibiOS//os/rt/include/chmtx.h"
 278              		.file 23 "../../lib/e-puck2_main-processor/ChibiOS//os/rt/include/chregistry.h"
 279              		.file 24 "../../lib/e-puck2_main-processor/ChibiOS//os/rt/include/chevents.h"
 280              		.file 25 "../../lib/e-puck2_main-processor/ChibiOS//os/rt/include/chqueues.h"
 281              		.file 26 "../../lib/e-puck2_main-processor/ChibiOS//os/hal/ports/STM32/STM32F4xx/stm32_dma.h"
ARM GAS  C:\Users\shadi\AppData\Local\Temp\cchtnTAD.s 			page 6


 282              		.file 27 "../../lib/e-puck2_main-processor/ChibiOS//os/hal/include/hal_ioblock.h"
 283              		.file 28 "../../lib/e-puck2_main-processor/ChibiOS//os/hal/ports/STM32/LLD/GPIOv2/pal_lld.h"
 284              		.file 29 "../../lib/e-puck2_main-processor/ChibiOS//os/hal/include/adc.h"
 285              		.file 30 "../../lib/e-puck2_main-processor/ChibiOS//os/hal/ports/STM32/STM32F4xx/adc_lld.h"
 286              		.file 31 "../../lib/e-puck2_main-processor/ChibiOS//os/hal/include/can.h"
 287              		.file 32 "../../lib/e-puck2_main-processor/ChibiOS//os/hal/ports/STM32/LLD/can_lld.h"
 288              		.file 33 "../../lib/e-puck2_main-processor/ChibiOS//os/hal/include/dac.h"
 289              		.file 34 "../../lib/e-puck2_main-processor/ChibiOS//os/hal/ports/STM32/LLD/DACv1/dac_lld.h"
 290              		.file 35 "../../lib/e-puck2_main-processor/ChibiOS//os/hal/include/ext.h"
 291              		.file 36 "../../lib/e-puck2_main-processor/ChibiOS//os/hal/ports/STM32/LLD/ext_lld.h"
 292              		.file 37 "../../lib/e-puck2_main-processor/ChibiOS//os/hal/include/gpt.h"
 293              		.file 38 "../../lib/e-puck2_main-processor/ChibiOS//os/hal/ports/STM32/LLD/TIMv1/gpt_lld.h"
 294              		.file 39 "../../lib/e-puck2_main-processor/ChibiOS//os/hal/ports/STM32/LLD/TIMv1/stm32_tim.h"
 295              		.file 40 "../../lib/e-puck2_main-processor/ChibiOS//os/hal/include/i2c.h"
 296              		.file 41 "../../lib/e-puck2_main-processor/ChibiOS//os/hal/ports/STM32/LLD/I2Cv1/i2c_lld.h"
 297              		.file 42 "../../lib/e-puck2_main-processor/ChibiOS//os/hal/include/i2s.h"
 298              		.file 43 "../../lib/e-puck2_main-processor/ChibiOS//os/hal/ports/STM32/LLD/SPIv1/i2s_lld.h"
 299              		.file 44 "../../lib/e-puck2_main-processor/ChibiOS//os/hal/include/pwm.h"
 300              		.file 45 "../../lib/e-puck2_main-processor/ChibiOS//os/hal/ports/STM32/LLD/TIMv1/pwm_lld.h"
 301              		.file 46 "../../lib/e-puck2_main-processor/ChibiOS//os/hal/include/serial.h"
 302              		.file 47 "../../lib/e-puck2_main-processor/ChibiOS//os/hal/ports/STM32/LLD/USARTv1/serial_lld.h"
 303              		.file 48 "../../lib/e-puck2_main-processor/ChibiOS//os/hal/include/sdc.h"
 304              		.file 49 "../../lib/e-puck2_main-processor/ChibiOS//os/hal/ports/STM32/LLD/sdc_lld.h"
 305              		.file 50 "../../lib/e-puck2_main-processor/ChibiOS//os/hal/include/spi.h"
 306              		.file 51 "../../lib/e-puck2_main-processor/ChibiOS//os/hal/ports/STM32/LLD/SPIv1/spi_lld.h"
 307              		.file 52 "../../lib/e-puck2_main-processor/ChibiOS//os/hal/include/usb.h"
 308              		.file 53 "../../lib/e-puck2_main-processor/ChibiOS//os/hal/ports/STM32/LLD/OTGv1/usb_lld.h"
 309              		.file 54 "../../lib/e-puck2_main-processor/ChibiOS//os/hal/ports/STM32/LLD/OTGv1/stm32_otg.h"
 310              		.file 55 "../../lib/e-puck2_main-processor/ChibiOS//os/hal/include/serial_usb.h"
 311              		.file 56 "../../lib/e-puck2_main-processor/ChibiOS//os/various/shell.h"
 312              		.file 57 "../../lib/e-puck2_main-processor/src/leds.h"
 313              		.file 58 "../../lib/e-puck2_main-processor/ChibiOS_ext/os/hal/include/../ports/STM32/STM32F4xx/dcm
 314              		.file 59 "c:\\users\\shadi\\downloads\\eclipse_e-puck2\\tools\\gcc-arm-none-eabi-7-2017-q4-major-w
 315              		.file 60 "../../lib/e-puck2_main-processor/src/msgbus/messagebus.h"
 316              		.file 61 "../../lib/e-puck2_main-processor/src/parameter/parameter.h"
 317              		.file 62 "./main.h"
 318              		.file 63 "../../lib/e-puck2_main-processor/src/usbcfg.h"
 319              		.file 64 "../../lib/e-puck2_main-processor/ChibiOS//os/rt/include/chthreads.h"