ARM GAS  C:\Users\shadi\AppData\Local\Temp\ccRz0M59.s 			page 1


   1              		.cpu cortex-m4
   2              		.eabi_attribute 27, 1
   3              		.eabi_attribute 28, 1
   4              		.eabi_attribute 20, 1
   5              		.eabi_attribute 21, 1
   6              		.eabi_attribute 23, 3
   7              		.eabi_attribute 24, 1
   8              		.eabi_attribute 25, 1
   9              		.eabi_attribute 26, 1
  10              		.eabi_attribute 30, 2
  11              		.eabi_attribute 34, 1
  12              		.eabi_attribute 18, 4
  13              		.file	"main.c"
  14              		.text
  15              	.Ltext0:
  16              		.cfi_sections	.debug_frame
  17              		.section	.text.SendUint8ToComputer,"ax",%progbits
  18              		.align	1
  19              		.p2align 4,,15
  20              		.global	SendUint8ToComputer
  21              		.syntax unified
  22              		.thumb
  23              		.thumb_func
  24              		.fpu fpv4-sp-d16
  25              		.type	SendUint8ToComputer, %function
  26              	SendUint8ToComputer:
  27              	.LFB260:
  28              		.file 1 "main.c"
  29              		.loc 1 22 0
  30              		.cfi_startproc
  31              		@ args = 0, pretend = 0, frame = 16
  32              		@ frame_needed = 0, uses_anonymous_args = 0
  33              	.LVL0:
  34 0000 70B5     		push	{r4, r5, r6, lr}
  35              		.cfi_def_cfa_offset 16
  36              		.cfi_offset 4, -16
  37              		.cfi_offset 5, -12
  38              		.cfi_offset 6, -8
  39              		.cfi_offset 14, -4
  40              		.loc 1 23 0
  41 0002 124C     		ldr	r4, .L6
  42              		.loc 1 22 0
  43 0004 124D     		ldr	r5, .L6+4
  44              		.loc 1 23 0
  45 0006 2368     		ldr	r3, [r4]
  46              		.loc 1 22 0
  47 0008 2A68     		ldr	r2, [r5]
  48 000a 84B0     		sub	sp, sp, #16
  49              		.cfi_def_cfa_offset 32
  50              		.loc 1 22 0
  51 000c 0646     		mov	r6, r0
  52 000e ADF80610 		strh	r1, [sp, #6]	@ movhi
  53              		.loc 1 23 0
  54 0012 1B68     		ldr	r3, [r3]
  55 0014 0F49     		ldr	r1, .L6+8
  56              	.LVL1:
  57              		.loc 1 22 0
ARM GAS  C:\Users\shadi\AppData\Local\Temp\ccRz0M59.s 			page 2


  58 0016 0392     		str	r2, [sp, #12]
  59              		.loc 1 23 0
  60 0018 2046     		mov	r0, r4
  61              	.LVL2:
  62 001a 0522     		movs	r2, #5
  63 001c 9847     		blx	r3
  64              	.LVL3:
  65              		.loc 1 24 0
  66 001e 2368     		ldr	r3, [r4]
  67 0020 0222     		movs	r2, #2
  68 0022 1B68     		ldr	r3, [r3]
  69 0024 0DF10601 		add	r1, sp, #6
  70 0028 2046     		mov	r0, r4
  71 002a 9847     		blx	r3
  72              	.LVL4:
  73              		.loc 1 25 0
  74 002c 2368     		ldr	r3, [r4]
  75 002e BDF80620 		ldrh	r2, [sp, #6]
  76 0032 1B68     		ldr	r3, [r3]
  77 0034 3146     		mov	r1, r6
  78 0036 2046     		mov	r0, r4
  79 0038 9847     		blx	r3
  80              	.LVL5:
  81              		.loc 1 26 0
  82 003a 039A     		ldr	r2, [sp, #12]
  83 003c 2B68     		ldr	r3, [r5]
  84 003e 9A42     		cmp	r2, r3
  85 0040 01D1     		bne	.L5
  86 0042 04B0     		add	sp, sp, #16
  87              		.cfi_remember_state
  88              		.cfi_def_cfa_offset 16
  89              		@ sp needed
  90 0044 70BD     		pop	{r4, r5, r6, pc}
  91              	.LVL6:
  92              	.L5:
  93              		.cfi_restore_state
  94 0046 FFF7FEFF 		bl	__stack_chk_fail
  95              	.LVL7:
  96              	.L7:
  97 004a 00BF     		.align	2
  98              	.L6:
  99 004c 00000000 		.word	SD3
 100 0050 00000000 		.word	__stack_chk_guard
 101 0054 00000000 		.word	.LC0
 102              		.cfi_endproc
 103              	.LFE260:
 104              		.size	SendUint8ToComputer, .-SendUint8ToComputer
 105              		.section	.text.startup.main,"ax",%progbits
 106              		.align	1
 107              		.p2align 4,,15
 108              		.global	main
 109              		.syntax unified
 110              		.thumb
 111              		.thumb_func
 112              		.fpu fpv4-sp-d16
 113              		.type	main, %function
 114              	main:
ARM GAS  C:\Users\shadi\AppData\Local\Temp\ccRz0M59.s 			page 3


 115              	.LFB262:
 116              		.loc 1 41 0
 117              		.cfi_startproc
 118              		@ Volatile: function does not return.
 119              		@ args = 0, pretend = 0, frame = 8
 120              		@ frame_needed = 0, uses_anonymous_args = 0
 121 0000 00B5     		push	{lr}
 122              		.cfi_def_cfa_offset 4
 123              		.cfi_offset 14, -4
 124 0002 124B     		ldr	r3, .L12
 125 0004 83B0     		sub	sp, sp, #12
 126              		.cfi_def_cfa_offset 16
 127              		.loc 1 41 0
 128 0006 1B68     		ldr	r3, [r3]
 129 0008 0193     		str	r3, [sp, #4]
 130              		.loc 1 43 0
 131 000a FFF7FEFF 		bl	halInit
 132              	.LVL8:
 133              		.loc 1 44 0
 134 000e FFF7FEFF 		bl	chSysInit
 135              	.LVL9:
 136              		.loc 1 45 0
 137 0012 FFF7FEFF 		bl	mpu_init
 138              	.LVL10:
 139              	.LBB4:
 140              	.LBB5:
 141              		.loc 1 37 0
 142 0016 0E49     		ldr	r1, .L12+4
 143 0018 0E48     		ldr	r0, .L12+8
 144 001a FFF7FEFF 		bl	sdStart
 145              	.LVL11:
 146              	.LBE5:
 147              	.LBE4:
 148              		.loc 1 49 0
 149 001e FFF7FEFF 		bl	usb_start
 150              	.LVL12:
 151              		.loc 1 50 0
 152 0022 FFF7FEFF 		bl	spi_comm_start
 153              	.LVL13:
 154              		.loc 1 52 0
 155 0026 FFF7FEFF 		bl	dcmi_start
 156              	.LVL14:
 157              		.loc 1 53 0
 158 002a FFF7FEFF 		bl	po8030_start
 159              	.LVL15:
 160              		.loc 1 55 0
 161 002e FFF7FEFF 		bl	motors_init
 162              	.LVL16:
 163              		.loc 1 56 0
 164 0032 FFF7FEFF 		bl	init_sensors
 165              	.LVL17:
 166              		.loc 1 57 0
 167 0036 FFF7FEFF 		bl	detect_and_explore_start
 168              	.LVL18:
 169              		.loc 1 58 0
 170 003a FFF7FEFF 		bl	process_image_start
 171              	.LVL19:
ARM GAS  C:\Users\shadi\AppData\Local\Temp\ccRz0M59.s 			page 4


 172              		.loc 1 59 0
 173 003e FFF7FEFF 		bl	dac_start
 174              	.LVL20:
 175              	.L9:
 176              		.loc 1 62 0 discriminator 1
 177 0042 4FF47A70 		mov	r0, #1000
 178 0046 FFF7FEFF 		bl	chThdSleep
 179              	.LVL21:
 180 004a FAE7     		b	.L9
 181              	.L13:
 182              		.align	2
 183              	.L12:
 184 004c 00000000 		.word	__stack_chk_guard
 185 0050 00000000 		.word	.LANCHOR0
 186 0054 00000000 		.word	SD3
 187              		.cfi_endproc
 188              	.LFE262:
 189              		.size	main, .-main
 190              		.section	.text.__stack_chk_fail,"ax",%progbits
 191              		.align	1
 192              		.p2align 4,,15
 193              		.global	__stack_chk_fail
 194              		.syntax unified
 195              		.thumb
 196              		.thumb_func
 197              		.fpu fpv4-sp-d16
 198              		.type	__stack_chk_fail, %function
 199              	__stack_chk_fail:
 200              	.LFB263:
 201              		.loc 1 70 0
 202              		.cfi_startproc
 203              		@ args = 0, pretend = 0, frame = 8
 204              		@ frame_needed = 0, uses_anonymous_args = 0
 205 0000 00B5     		push	{lr}
 206              		.cfi_def_cfa_offset 4
 207              		.cfi_offset 14, -4
 208 0002 084B     		ldr	r3, .L19
 209 0004 83B0     		sub	sp, sp, #12
 210              		.cfi_def_cfa_offset 16
 211              		.loc 1 70 0
 212 0006 1A68     		ldr	r2, [r3]
 213 0008 0192     		str	r2, [sp, #4]
 214              		.loc 1 71 0
 215 000a 019A     		ldr	r2, [sp, #4]
 216 000c 1B68     		ldr	r3, [r3]
 217 000e 9A42     		cmp	r2, r3
 218 0010 05D1     		bne	.L18
 219 0012 0548     		ldr	r0, .L19+4
 220              		.loc 1 72 0
 221 0014 03B0     		add	sp, sp, #12
 222              		.cfi_remember_state
 223              		.cfi_def_cfa_offset 4
 224              		@ sp needed
 225 0016 5DF804EB 		ldr	lr, [sp], #4
 226              		.cfi_restore 14
 227              		.cfi_def_cfa_offset 0
 228              		.loc 1 71 0
ARM GAS  C:\Users\shadi\AppData\Local\Temp\ccRz0M59.s 			page 5


 229 001a FFF7FEBF 		b	chSysHalt
 230              	.LVL22:
 231              	.L18:
 232              		.cfi_restore_state
 233 001e FFF7FEFF 		bl	__stack_chk_fail
 234              	.LVL23:
 235              	.L20:
 236 0022 00BF     		.align	2
 237              	.L19:
 238 0024 00000000 		.word	__stack_chk_guard
 239 0028 00000000 		.word	.LC1
 240              		.cfi_endproc
 241              	.LFE263:
 242              		.size	__stack_chk_fail, .-__stack_chk_fail
 243              		.global	__stack_chk_guard
 244              		.section	.data.__stack_chk_guard,"aw",%progbits
 245              		.align	2
 246              		.type	__stack_chk_guard, %object
 247              		.size	__stack_chk_guard, 4
 248              	__stack_chk_guard:
 249 0000 96E3DEE2 		.word	-488709226
 250              		.section	.data.ser_cfg.12897,"aw",%progbits
 251              		.align	2
 252              		.set	.LANCHOR0,. + 0
 253              		.type	ser_cfg.12897, %object
 254              		.size	ser_cfg.12897, 12
 255              	ser_cfg.12897:
 256 0000 00C20100 		.word	115200
 257 0004 0000     		.short	0
 258 0006 0000     		.short	0
 259 0008 0000     		.short	0
 260 000a 0000     		.space	2
 261              		.section	.rodata.SendUint8ToComputer.str1.4,"aMS",%progbits,1
 262              		.align	2
 263              	.LC0:
 264 0000 53544152 		.ascii	"START\000"
 264      5400
 265              		.section	.rodata.__stack_chk_fail.str1.4,"aMS",%progbits,1
 266              		.align	2
 267              	.LC1:
 268 0000 53746163 		.ascii	"Stack smashing detected\000"
 268      6B20736D 
 268      61736869 
 268      6E672064 
 268      65746563 
 269              		.text
 270              	.Letext0:
 271              		.file 2 "c:\\users\\shadi\\downloads\\eclipse_e-puck2\\tools\\gcc-arm-none-eabi-7-2017-q4-major-wi
 272              		.file 3 "c:\\users\\shadi\\downloads\\eclipse_e-puck2\\tools\\gcc-arm-none-eabi-7-2017-q4-major-wi
 273              		.file 4 "c:\\users\\shadi\\downloads\\eclipse_e-puck2\\tools\\gcc-arm-none-eabi-7-2017-q4-major-wi
 274              		.file 5 "c:\\users\\shadi\\downloads\\eclipse_e-puck2\\tools\\gcc-arm-none-eabi-7-2017-q4-major-wi
 275              		.file 6 "c:\\users\\shadi\\downloads\\eclipse_e-puck2\\tools\\gcc-arm-none-eabi-7-2017-q4-major-wi
 276              		.file 7 "c:\\users\\shadi\\downloads\\eclipse_e-puck2\\tools\\gcc-arm-none-eabi-7-2017-q4-major-wi
 277              		.file 8 "c:\\users\\shadi\\downloads\\eclipse_e-puck2\\tools\\gcc-arm-none-eabi-7-2017-q4-major-wi
 278              		.file 9 "c:\\users\\shadi\\downloads\\eclipse_e-puck2\\tools\\gcc-arm-none-eabi-7-2017-q4-major-wi
 279              		.file 10 "../../lib/e-puck2_main-processor/ChibiOS//os/rt/ports/ARMCMx/compilers/GCC/chtypes.h"
 280              		.file 11 "../../lib/e-puck2_main-processor/ChibiOS//os/rt/include/chsystypes.h"
ARM GAS  C:\Users\shadi\AppData\Local\Temp\ccRz0M59.s 			page 6


 281              		.file 12 "../../lib/e-puck2_main-processor/ChibiOS//os/rt/include/chschd.h"
 282              		.file 13 "../../lib/e-puck2_main-processor/ChibiOS//os/ext/CMSIS/include/core_cm4.h"
 283              		.file 14 "../../lib/e-puck2_main-processor/ChibiOS//os/ext/CMSIS/ST/system_stm32f4xx.h"
 284              		.file 15 "../../lib/e-puck2_main-processor/ChibiOS//os/ext/CMSIS/ST/stm32f407xx.h"
 285              		.file 16 "../../lib/e-puck2_main-processor/ChibiOS//os/rt/ports/ARMCMx/chcore.h"
 286              		.file 17 "../../lib/e-puck2_main-processor/ChibiOS//os/rt/ports/ARMCMx/chcore_v7m.h"
 287              		.file 18 "../../lib/e-puck2_main-processor/ChibiOS//os/rt/include/chdebug.h"
 288              		.file 19 "../../lib/e-puck2_main-processor/ChibiOS//os/rt/include/chtm.h"
 289              		.file 20 "../../lib/e-puck2_main-processor/ChibiOS//os/rt/include/chstats.h"
 290              		.file 21 "../../lib/e-puck2_main-processor/ChibiOS//os/rt/include/chsem.h"
 291              		.file 22 "../../lib/e-puck2_main-processor/ChibiOS//os/rt/include/chmtx.h"
 292              		.file 23 "../../lib/e-puck2_main-processor/ChibiOS//os/rt/include/chregistry.h"
 293              		.file 24 "../../lib/e-puck2_main-processor/ChibiOS//os/rt/include/chevents.h"
 294              		.file 25 "../../lib/e-puck2_main-processor/ChibiOS//os/rt/include/chqueues.h"
 295              		.file 26 "../../lib/e-puck2_main-processor/ChibiOS//os/rt/include/chstreams.h"
 296              		.file 27 "../../lib/e-puck2_main-processor/ChibiOS//os/hal/ports/STM32/STM32F4xx/stm32_dma.h"
 297              		.file 28 "../../lib/e-puck2_main-processor/ChibiOS//os/hal/include/hal_ioblock.h"
 298              		.file 29 "../../lib/e-puck2_main-processor/ChibiOS//os/hal/ports/STM32/LLD/GPIOv2/pal_lld.h"
 299              		.file 30 "../../lib/e-puck2_main-processor/ChibiOS//os/hal/include/adc.h"
 300              		.file 31 "../../lib/e-puck2_main-processor/ChibiOS//os/hal/ports/STM32/STM32F4xx/adc_lld.h"
 301              		.file 32 "../../lib/e-puck2_main-processor/ChibiOS//os/hal/include/can.h"
 302              		.file 33 "../../lib/e-puck2_main-processor/ChibiOS//os/hal/ports/STM32/LLD/can_lld.h"
 303              		.file 34 "../../lib/e-puck2_main-processor/ChibiOS//os/hal/include/dac.h"
 304              		.file 35 "../../lib/e-puck2_main-processor/ChibiOS//os/hal/ports/STM32/LLD/DACv1/dac_lld.h"
 305              		.file 36 "../../lib/e-puck2_main-processor/ChibiOS//os/hal/include/ext.h"
 306              		.file 37 "../../lib/e-puck2_main-processor/ChibiOS//os/hal/ports/STM32/LLD/ext_lld.h"
 307              		.file 38 "../../lib/e-puck2_main-processor/ChibiOS//os/hal/include/gpt.h"
 308              		.file 39 "../../lib/e-puck2_main-processor/ChibiOS//os/hal/ports/STM32/LLD/TIMv1/gpt_lld.h"
 309              		.file 40 "../../lib/e-puck2_main-processor/ChibiOS//os/hal/ports/STM32/LLD/TIMv1/stm32_tim.h"
 310              		.file 41 "../../lib/e-puck2_main-processor/ChibiOS//os/hal/include/i2c.h"
 311              		.file 42 "../../lib/e-puck2_main-processor/ChibiOS//os/hal/ports/STM32/LLD/I2Cv1/i2c_lld.h"
 312              		.file 43 "../../lib/e-puck2_main-processor/ChibiOS//os/hal/include/i2s.h"
 313              		.file 44 "../../lib/e-puck2_main-processor/ChibiOS//os/hal/ports/STM32/LLD/SPIv1/i2s_lld.h"
 314              		.file 45 "../../lib/e-puck2_main-processor/ChibiOS//os/hal/include/pwm.h"
 315              		.file 46 "../../lib/e-puck2_main-processor/ChibiOS//os/hal/ports/STM32/LLD/TIMv1/pwm_lld.h"
 316              		.file 47 "../../lib/e-puck2_main-processor/ChibiOS//os/hal/include/serial.h"
 317              		.file 48 "../../lib/e-puck2_main-processor/ChibiOS//os/hal/ports/STM32/LLD/USARTv1/serial_lld.h"
 318              		.file 49 "../../lib/e-puck2_main-processor/ChibiOS//os/hal/include/sdc.h"
 319              		.file 50 "../../lib/e-puck2_main-processor/ChibiOS//os/hal/ports/STM32/LLD/sdc_lld.h"
 320              		.file 51 "../../lib/e-puck2_main-processor/ChibiOS//os/hal/include/spi.h"
 321              		.file 52 "../../lib/e-puck2_main-processor/ChibiOS//os/hal/ports/STM32/LLD/SPIv1/spi_lld.h"
 322              		.file 53 "../../lib/e-puck2_main-processor/ChibiOS//os/hal/include/usb.h"
 323              		.file 54 "../../lib/e-puck2_main-processor/ChibiOS//os/hal/ports/STM32/LLD/OTGv1/usb_lld.h"
 324              		.file 55 "../../lib/e-puck2_main-processor/ChibiOS//os/hal/ports/STM32/LLD/OTGv1/stm32_otg.h"
 325              		.file 56 "../../lib/e-puck2_main-processor/ChibiOS//os/hal/include/serial_usb.h"
 326              		.file 57 "../../lib/e-puck2_main-processor/src/usbcfg.h"
 327              		.file 58 "../../lib/e-puck2_main-processor/ChibiOS_ext/os/hal/include/../ports/STM32/STM32F4xx/dcm
 328              		.file 59 "c:\\users\\shadi\\downloads\\eclipse_e-puck2\\tools\\gcc-arm-none-eabi-7-2017-q4-major-w
 329              		.file 60 "../../lib/e-puck2_main-processor/src/msgbus/messagebus.h"
 330              		.file 61 "../../lib/e-puck2_main-processor/src/parameter/parameter.h"
 331              		.file 62 "./main.h"
 332              		.file 63 "../../lib/e-puck2_main-processor/ChibiOS//os/rt/include/chsys.h"
 333              		.file 64 "../../lib/e-puck2_main-processor/ChibiOS//os/hal/include/hal.h"
 334              		.file 65 "../../lib/e-puck2_main-processor/src/memory_protection.h"
 335              		.file 66 "../../lib/e-puck2_main-processor/src/spi_comm.h"
 336              		.file 67 "../../lib/e-puck2_main-processor/src/camera/dcmi_camera.h"
 337              		.file 68 "../../lib/e-puck2_main-processor/src/camera/po8030.h"
ARM GAS  C:\Users\shadi\AppData\Local\Temp\ccRz0M59.s 			page 7


 338              		.file 69 "../../lib/e-puck2_main-processor/src/motors.h"
 339              		.file 70 "./detection.h"
 340              		.file 71 "./process_image.h"
 341              		.file 72 "../../lib/e-puck2_main-processor/src/audio/audio_thread.h"
 342              		.file 73 "../../lib/e-puck2_main-processor/ChibiOS//os/rt/include/chthreads.h"