ARM GAS  C:\Users\shadi\AppData\Local\Temp\cc3pWnZ6.s 			page 1


   1              		.cpu cortex-m4
   2              		.eabi_attribute 27, 1
   3              		.eabi_attribute 28, 1
   4              		.eabi_attribute 20, 1
   5              		.eabi_attribute 21, 1
   6              		.eabi_attribute 23, 3
   7              		.eabi_attribute 24, 1
   8              		.eabi_attribute 25, 1
   9              		.eabi_attribute 26, 1
  10              		.eabi_attribute 30, 2
  11              		.eabi_attribute 34, 1
  12              		.eabi_attribute 18, 4
  13              		.file	"motors.c"
  14              		.text
  15              	.Ltext0:
  16              		.cfi_sections	.debug_frame
  17              		.section	.text.right_motor_update,"ax",%progbits
  18              		.align	1
  19              		.p2align 4,,15
  20              		.syntax unified
  21              		.thumb
  22              		.thumb_func
  23              		.fpu fpv4-sp-d16
  24              		.type	right_motor_update, %function
  25              	right_motor_update:
  26              	.LFB256:
  27              		.file 1 "../../lib/e-puck2_main-processor/src/motors.c"
  28              		.loc 1 50 0
  29              		.cfi_startproc
  30              		@ args = 0, pretend = 0, frame = 8
  31              		@ frame_needed = 0, uses_anonymous_args = 0
  32              	.LVL0:
  33 0000 00B5     		push	{lr}
  34              		.cfi_def_cfa_offset 4
  35              		.cfi_offset 14, -4
  36 0002 1F4B     		ldr	r3, .L17
  37              		.loc 1 52 0
  38 0004 0278     		ldrb	r2, [r0]	@ zero_extendqisi2
  39              		.loc 1 50 0
  40 0006 1968     		ldr	r1, [r3]
  41 0008 83B0     		sub	sp, sp, #12
  42              		.cfi_def_cfa_offset 16
  43              		.loc 1 50 0
  44 000a 0191     		str	r1, [sp, #4]
  45              		.loc 1 52 0
  46 000c E2B1     		cbz	r2, .L2
  47              		.loc 1 52 0 is_stmt 0 discriminator 1
  48 000e 1D4A     		ldr	r2, .L17+4
  49 0010 4FF40051 		mov	r1, #8192
  50 0014 1183     		strh	r1, [r2, #24]	@ movhi
  51              		.loc 1 53 0 is_stmt 1 discriminator 1
  52 0016 4278     		ldrb	r2, [r0, #1]	@ zero_extendqisi2
  53 0018 EAB1     		cbz	r2, .L4
  54              	.L15:
  55 001a 1A4A     		ldr	r2, .L17+4
  56 001c 4FF48051 		mov	r1, #4096
  57 0020 1183     		strh	r1, [r2, #24]	@ movhi
ARM GAS  C:\Users\shadi\AppData\Local\Temp\cc3pWnZ6.s 			page 2


  58              		.loc 1 54 0 discriminator 1
  59 0022 8278     		ldrb	r2, [r0, #2]	@ zero_extendqisi2
  60 0024 F2B1     		cbz	r2, .L6
  61              	.L16:
  62 0026 174A     		ldr	r2, .L17+4
  63 0028 4FF48041 		mov	r1, #16384
  64 002c 1183     		strh	r1, [r2, #24]	@ movhi
  65              		.loc 1 55 0 discriminator 1
  66 002e C278     		ldrb	r2, [r0, #3]	@ zero_extendqisi2
  67 0030 FAB9     		cbnz	r2, .L13
  68              	.L8:
  69              		.loc 1 55 0 is_stmt 0 discriminator 2
  70 0032 144A     		ldr	r2, .L17+4
  71 0034 4FF40041 		mov	r1, #32768
  72 0038 5183     		strh	r1, [r2, #26]	@ movhi
  73              	.L1:
  74              		.loc 1 56 0 is_stmt 1
  75 003a 019A     		ldr	r2, [sp, #4]
  76 003c 1B68     		ldr	r3, [r3]
  77 003e 9A42     		cmp	r2, r3
  78 0040 1CD1     		bne	.L14
  79 0042 03B0     		add	sp, sp, #12
  80              		.cfi_remember_state
  81              		.cfi_def_cfa_offset 4
  82              		@ sp needed
  83 0044 5DF804FB 		ldr	pc, [sp], #4
  84              	.L2:
  85              		.cfi_restore_state
  86              		.loc 1 52 0 discriminator 2
  87 0048 0E4A     		ldr	r2, .L17+4
  88 004a 4FF40051 		mov	r1, #8192
  89 004e 5183     		strh	r1, [r2, #26]	@ movhi
  90              		.loc 1 53 0 discriminator 2
  91 0050 4278     		ldrb	r2, [r0, #1]	@ zero_extendqisi2
  92 0052 002A     		cmp	r2, #0
  93 0054 E1D1     		bne	.L15
  94              	.L4:
  95 0056 0B4A     		ldr	r2, .L17+4
  96 0058 4FF48051 		mov	r1, #4096
  97 005c 5183     		strh	r1, [r2, #26]	@ movhi
  98              		.loc 1 54 0 discriminator 2
  99 005e 8278     		ldrb	r2, [r0, #2]	@ zero_extendqisi2
 100 0060 002A     		cmp	r2, #0
 101 0062 E0D1     		bne	.L16
 102              	.L6:
 103 0064 074A     		ldr	r2, .L17+4
 104 0066 4FF48041 		mov	r1, #16384
 105 006a 5183     		strh	r1, [r2, #26]	@ movhi
 106              		.loc 1 55 0 discriminator 2
 107 006c C278     		ldrb	r2, [r0, #3]	@ zero_extendqisi2
 108 006e 002A     		cmp	r2, #0
 109 0070 DFD0     		beq	.L8
 110              	.L13:
 111              		.loc 1 55 0 is_stmt 0 discriminator 1
 112 0072 044A     		ldr	r2, .L17+4
 113 0074 4FF40041 		mov	r1, #32768
 114 0078 1183     		strh	r1, [r2, #24]	@ movhi
ARM GAS  C:\Users\shadi\AppData\Local\Temp\cc3pWnZ6.s 			page 3


 115 007a DEE7     		b	.L1
 116              	.L14:
 117              		.loc 1 56 0 is_stmt 1
 118 007c FFF7FEFF 		bl	__stack_chk_fail
 119              	.LVL1:
 120              	.L18:
 121              		.align	2
 122              	.L17:
 123 0080 00000000 		.word	__stack_chk_guard
 124 0084 00100240 		.word	1073876992
 125              		.cfi_endproc
 126              	.LFE256:
 127              		.size	right_motor_update, .-right_motor_update
 128              		.section	.text.left_motor_update,"ax",%progbits
 129              		.align	1
 130              		.p2align 4,,15
 131              		.syntax unified
 132              		.thumb
 133              		.thumb_func
 134              		.fpu fpv4-sp-d16
 135              		.type	left_motor_update, %function
 136              	left_motor_update:
 137              	.LFB257:
 138              		.loc 1 65 0
 139              		.cfi_startproc
 140              		@ args = 0, pretend = 0, frame = 8
 141              		@ frame_needed = 0, uses_anonymous_args = 0
 142              	.LVL2:
 143 0000 00B5     		push	{lr}
 144              		.cfi_def_cfa_offset 4
 145              		.cfi_offset 14, -4
 146 0002 1F4B     		ldr	r3, .L34
 147              		.loc 1 67 0
 148 0004 0278     		ldrb	r2, [r0]	@ zero_extendqisi2
 149              		.loc 1 65 0
 150 0006 1968     		ldr	r1, [r3]
 151 0008 83B0     		sub	sp, sp, #12
 152              		.cfi_def_cfa_offset 16
 153              		.loc 1 65 0
 154 000a 0191     		str	r1, [sp, #4]
 155              		.loc 1 67 0
 156 000c E2B1     		cbz	r2, .L20
 157              		.loc 1 67 0 is_stmt 0 discriminator 1
 158 000e 1D4A     		ldr	r2, .L34+4
 159 0010 4FF40071 		mov	r1, #512
 160 0014 1183     		strh	r1, [r2, #24]	@ movhi
 161              		.loc 1 68 0 is_stmt 1 discriminator 1
 162 0016 4278     		ldrb	r2, [r0, #1]	@ zero_extendqisi2
 163 0018 EAB1     		cbz	r2, .L22
 164              	.L32:
 165 001a 1A4A     		ldr	r2, .L34+4
 166 001c 4FF48071 		mov	r1, #256
 167 0020 1183     		strh	r1, [r2, #24]	@ movhi
 168              		.loc 1 69 0 discriminator 1
 169 0022 8278     		ldrb	r2, [r0, #2]	@ zero_extendqisi2
 170 0024 F2B1     		cbz	r2, .L24
 171              	.L33:
ARM GAS  C:\Users\shadi\AppData\Local\Temp\cc3pWnZ6.s 			page 4


 172 0026 174A     		ldr	r2, .L34+4
 173 0028 4FF40061 		mov	r1, #2048
 174 002c 1183     		strh	r1, [r2, #24]	@ movhi
 175              		.loc 1 70 0 discriminator 1
 176 002e C278     		ldrb	r2, [r0, #3]	@ zero_extendqisi2
 177 0030 FAB9     		cbnz	r2, .L30
 178              	.L26:
 179              		.loc 1 70 0 is_stmt 0 discriminator 2
 180 0032 144A     		ldr	r2, .L34+4
 181 0034 4FF48061 		mov	r1, #1024
 182 0038 5183     		strh	r1, [r2, #26]	@ movhi
 183              	.L19:
 184              		.loc 1 71 0 is_stmt 1
 185 003a 019A     		ldr	r2, [sp, #4]
 186 003c 1B68     		ldr	r3, [r3]
 187 003e 9A42     		cmp	r2, r3
 188 0040 1CD1     		bne	.L31
 189 0042 03B0     		add	sp, sp, #12
 190              		.cfi_remember_state
 191              		.cfi_def_cfa_offset 4
 192              		@ sp needed
 193 0044 5DF804FB 		ldr	pc, [sp], #4
 194              	.L20:
 195              		.cfi_restore_state
 196              		.loc 1 67 0 discriminator 2
 197 0048 0E4A     		ldr	r2, .L34+4
 198 004a 4FF40071 		mov	r1, #512
 199 004e 5183     		strh	r1, [r2, #26]	@ movhi
 200              		.loc 1 68 0 discriminator 2
 201 0050 4278     		ldrb	r2, [r0, #1]	@ zero_extendqisi2
 202 0052 002A     		cmp	r2, #0
 203 0054 E1D1     		bne	.L32
 204              	.L22:
 205 0056 0B4A     		ldr	r2, .L34+4
 206 0058 4FF48071 		mov	r1, #256
 207 005c 5183     		strh	r1, [r2, #26]	@ movhi
 208              		.loc 1 69 0 discriminator 2
 209 005e 8278     		ldrb	r2, [r0, #2]	@ zero_extendqisi2
 210 0060 002A     		cmp	r2, #0
 211 0062 E0D1     		bne	.L33
 212              	.L24:
 213 0064 074A     		ldr	r2, .L34+4
 214 0066 4FF40061 		mov	r1, #2048
 215 006a 5183     		strh	r1, [r2, #26]	@ movhi
 216              		.loc 1 70 0 discriminator 2
 217 006c C278     		ldrb	r2, [r0, #3]	@ zero_extendqisi2
 218 006e 002A     		cmp	r2, #0
 219 0070 DFD0     		beq	.L26
 220              	.L30:
 221              		.loc 1 70 0 is_stmt 0 discriminator 1
 222 0072 044A     		ldr	r2, .L34+4
 223 0074 4FF48061 		mov	r1, #1024
 224 0078 1183     		strh	r1, [r2, #24]	@ movhi
 225 007a DEE7     		b	.L19
 226              	.L31:
 227              		.loc 1 71 0 is_stmt 1
 228 007c FFF7FEFF 		bl	__stack_chk_fail
ARM GAS  C:\Users\shadi\AppData\Local\Temp\cc3pWnZ6.s 			page 5


 229              	.LVL3:
 230              	.L35:
 231              		.align	2
 232              	.L34:
 233 0080 00000000 		.word	__stack_chk_guard
 234 0084 00100240 		.word	1073876992
 235              		.cfi_endproc
 236              	.LFE257:
 237              		.size	left_motor_update, .-left_motor_update
 238              		.section	.text.right_motor_pwm_ch1_cb,"ax",%progbits
 239              		.align	1
 240              		.p2align 4,,15
 241              		.syntax unified
 242              		.thumb
 243              		.thumb_func
 244              		.fpu fpv4-sp-d16
 245              		.type	right_motor_pwm_ch1_cb, %function
 246              	right_motor_pwm_ch1_cb:
 247              	.LFB260:
 248              		.loc 1 130 0
 249              		.cfi_startproc
 250              		@ args = 0, pretend = 0, frame = 8
 251              		@ frame_needed = 0, uses_anonymous_args = 0
 252              	.LVL4:
 253 0000 30B5     		push	{r4, r5, lr}
 254              		.cfi_def_cfa_offset 12
 255              		.cfi_offset 4, -12
 256              		.cfi_offset 5, -8
 257              		.cfi_offset 14, -4
 258 0002 0C4A     		ldr	r2, .L40
 259              		.loc 1 132 0
 260 0004 0C4B     		ldr	r3, .L40+4
 261              		.loc 1 130 0
 262 0006 1168     		ldr	r1, [r2]
 263 0008 83B0     		sub	sp, sp, #12
 264              		.cfi_def_cfa_offset 24
 265              		.loc 1 132 0
 266 000a 4FF40055 		mov	r5, #8192
 267              		.loc 1 130 0
 268 000e 0191     		str	r1, [sp, #4]
 269              		.loc 1 133 0
 270 0010 4FF48054 		mov	r4, #4096
 271              		.loc 1 135 0
 272 0014 4FF40041 		mov	r1, #32768
 273              		.loc 1 134 0
 274 0018 4FF48040 		mov	r0, #16384
 275              	.LVL5:
 276              		.loc 1 132 0
 277 001c 5D83     		strh	r5, [r3, #26]	@ movhi
 278              		.loc 1 133 0
 279 001e 5C83     		strh	r4, [r3, #26]	@ movhi
 280              		.loc 1 134 0
 281 0020 5883     		strh	r0, [r3, #26]	@ movhi
 282              		.loc 1 135 0
 283 0022 5983     		strh	r1, [r3, #26]	@ movhi
 284              		.loc 1 136 0
 285 0024 0199     		ldr	r1, [sp, #4]
ARM GAS  C:\Users\shadi\AppData\Local\Temp\cc3pWnZ6.s 			page 6


 286 0026 1368     		ldr	r3, [r2]
 287 0028 9942     		cmp	r1, r3
 288 002a 01D1     		bne	.L39
 289 002c 03B0     		add	sp, sp, #12
 290              		.cfi_remember_state
 291              		.cfi_def_cfa_offset 12
 292              		@ sp needed
 293 002e 30BD     		pop	{r4, r5, pc}
 294              	.L39:
 295              		.cfi_restore_state
 296 0030 FFF7FEFF 		bl	__stack_chk_fail
 297              	.LVL6:
 298              	.L41:
 299              		.align	2
 300              	.L40:
 301 0034 00000000 		.word	__stack_chk_guard
 302 0038 00100240 		.word	1073876992
 303              		.cfi_endproc
 304              	.LFE260:
 305              		.size	right_motor_pwm_ch1_cb, .-right_motor_pwm_ch1_cb
 306              		.section	.text.left_motor_pwm_ch1_cb,"ax",%progbits
 307              		.align	1
 308              		.p2align 4,,15
 309              		.syntax unified
 310              		.thumb
 311              		.thumb_func
 312              		.fpu fpv4-sp-d16
 313              		.type	left_motor_pwm_ch1_cb, %function
 314              	left_motor_pwm_ch1_cb:
 315              	.LFB261:
 316              		.loc 1 145 0
 317              		.cfi_startproc
 318              		@ args = 0, pretend = 0, frame = 8
 319              		@ frame_needed = 0, uses_anonymous_args = 0
 320              	.LVL7:
 321 0000 30B5     		push	{r4, r5, lr}
 322              		.cfi_def_cfa_offset 12
 323              		.cfi_offset 4, -12
 324              		.cfi_offset 5, -8
 325              		.cfi_offset 14, -4
 326 0002 0C4A     		ldr	r2, .L46
 327              		.loc 1 147 0
 328 0004 0C4B     		ldr	r3, .L46+4
 329              		.loc 1 145 0
 330 0006 1168     		ldr	r1, [r2]
 331 0008 83B0     		sub	sp, sp, #12
 332              		.cfi_def_cfa_offset 24
 333              		.loc 1 147 0
 334 000a 4FF40075 		mov	r5, #512
 335              		.loc 1 145 0
 336 000e 0191     		str	r1, [sp, #4]
 337              		.loc 1 148 0
 338 0010 4FF48074 		mov	r4, #256
 339              		.loc 1 150 0
 340 0014 4FF48061 		mov	r1, #1024
 341              		.loc 1 149 0
 342 0018 4FF40060 		mov	r0, #2048
ARM GAS  C:\Users\shadi\AppData\Local\Temp\cc3pWnZ6.s 			page 7


 343              	.LVL8:
 344              		.loc 1 147 0
 345 001c 5D83     		strh	r5, [r3, #26]	@ movhi
 346              		.loc 1 148 0
 347 001e 5C83     		strh	r4, [r3, #26]	@ movhi
 348              		.loc 1 149 0
 349 0020 5883     		strh	r0, [r3, #26]	@ movhi
 350              		.loc 1 150 0
 351 0022 5983     		strh	r1, [r3, #26]	@ movhi
 352              		.loc 1 151 0
 353 0024 0199     		ldr	r1, [sp, #4]
 354 0026 1368     		ldr	r3, [r2]
 355 0028 9942     		cmp	r1, r3
 356 002a 01D1     		bne	.L45
 357 002c 03B0     		add	sp, sp, #12
 358              		.cfi_remember_state
 359              		.cfi_def_cfa_offset 12
 360              		@ sp needed
 361 002e 30BD     		pop	{r4, r5, pc}
 362              	.L45:
 363              		.cfi_restore_state
 364 0030 FFF7FEFF 		bl	__stack_chk_fail
 365              	.LVL9:
 366              	.L47:
 367              		.align	2
 368              	.L46:
 369 0034 00000000 		.word	__stack_chk_guard
 370 0038 00100240 		.word	1073876992
 371              		.cfi_endproc
 372              	.LFE261:
 373              		.size	left_motor_pwm_ch1_cb, .-left_motor_pwm_ch1_cb
 374              		.section	.text.right_motor_enable_power_save,"ax",%progbits
 375              		.align	1
 376              		.p2align 4,,15
 377              		.global	right_motor_enable_power_save
 378              		.syntax unified
 379              		.thumb
 380              		.thumb_func
 381              		.fpu fpv4-sp-d16
 382              		.type	right_motor_enable_power_save, %function
 383              	right_motor_enable_power_save:
 384              	.LFB262:
 385              		.loc 1 156 0
 386              		.cfi_startproc
 387              		@ args = 0, pretend = 0, frame = 8
 388              		@ frame_needed = 0, uses_anonymous_args = 0
 389 0000 10B5     		push	{r4, lr}
 390              		.cfi_def_cfa_offset 8
 391              		.cfi_offset 4, -8
 392              		.cfi_offset 14, -4
 393 0002 0B4C     		ldr	r4, .L53
 394              		.loc 1 158 0
 395 0004 0B48     		ldr	r0, .L53+4
 396              		.loc 1 156 0
 397 0006 2368     		ldr	r3, [r4]
 398 0008 82B0     		sub	sp, sp, #8
 399              		.cfi_def_cfa_offset 16
ARM GAS  C:\Users\shadi\AppData\Local\Temp\cc3pWnZ6.s 			page 8


 400              		.loc 1 158 0
 401 000a 9922     		movs	r2, #153
 402 000c 0021     		movs	r1, #0
 403              		.loc 1 156 0
 404 000e 0193     		str	r3, [sp, #4]
 405              		.loc 1 158 0
 406 0010 FFF7FEFF 		bl	pwmEnableChannel
 407              	.LVL10:
 408              		.loc 1 160 0
 409 0014 019A     		ldr	r2, [sp, #4]
 410 0016 2368     		ldr	r3, [r4]
 411 0018 9A42     		cmp	r2, r3
 412 001a 06D1     		bne	.L52
 413 001c 0548     		ldr	r0, .L53+4
 414 001e 0021     		movs	r1, #0
 415              		.loc 1 161 0
 416 0020 02B0     		add	sp, sp, #8
 417              		.cfi_remember_state
 418              		.cfi_def_cfa_offset 8
 419              		@ sp needed
 420 0022 BDE81040 		pop	{r4, lr}
 421              		.cfi_restore 14
 422              		.cfi_restore 4
 423              		.cfi_def_cfa_offset 0
 424              		.loc 1 160 0
 425 0026 FFF7FEBF 		b	pwmEnableChannelNotification
 426              	.LVL11:
 427              	.L52:
 428              		.cfi_restore_state
 429 002a FFF7FEFF 		bl	__stack_chk_fail
 430              	.LVL12:
 431              	.L54:
 432 002e 00BF     		.align	2
 433              	.L53:
 434 0030 00000000 		.word	__stack_chk_guard
 435 0034 00000000 		.word	PWMD3
 436              		.cfi_endproc
 437              	.LFE262:
 438              		.size	right_motor_enable_power_save, .-right_motor_enable_power_save
 439              		.section	.text.left_motor_enable_power_save,"ax",%progbits
 440              		.align	1
 441              		.p2align 4,,15
 442              		.global	left_motor_enable_power_save
 443              		.syntax unified
 444              		.thumb
 445              		.thumb_func
 446              		.fpu fpv4-sp-d16
 447              		.type	left_motor_enable_power_save, %function
 448              	left_motor_enable_power_save:
 449              	.LFB263:
 450              		.loc 1 166 0
 451              		.cfi_startproc
 452              		@ args = 0, pretend = 0, frame = 8
 453              		@ frame_needed = 0, uses_anonymous_args = 0
 454 0000 10B5     		push	{r4, lr}
 455              		.cfi_def_cfa_offset 8
 456              		.cfi_offset 4, -8
ARM GAS  C:\Users\shadi\AppData\Local\Temp\cc3pWnZ6.s 			page 9


 457              		.cfi_offset 14, -4
 458 0002 0B4C     		ldr	r4, .L60
 459              		.loc 1 168 0
 460 0004 0B48     		ldr	r0, .L60+4
 461              		.loc 1 166 0
 462 0006 2368     		ldr	r3, [r4]
 463 0008 82B0     		sub	sp, sp, #8
 464              		.cfi_def_cfa_offset 16
 465              		.loc 1 168 0
 466 000a 9922     		movs	r2, #153
 467 000c 0021     		movs	r1, #0
 468              		.loc 1 166 0
 469 000e 0193     		str	r3, [sp, #4]
 470              		.loc 1 168 0
 471 0010 FFF7FEFF 		bl	pwmEnableChannel
 472              	.LVL13:
 473              		.loc 1 170 0
 474 0014 019A     		ldr	r2, [sp, #4]
 475 0016 2368     		ldr	r3, [r4]
 476 0018 9A42     		cmp	r2, r3
 477 001a 06D1     		bne	.L59
 478 001c 0548     		ldr	r0, .L60+4
 479 001e 0021     		movs	r1, #0
 480              		.loc 1 171 0
 481 0020 02B0     		add	sp, sp, #8
 482              		.cfi_remember_state
 483              		.cfi_def_cfa_offset 8
 484              		@ sp needed
 485 0022 BDE81040 		pop	{r4, lr}
 486              		.cfi_restore 14
 487              		.cfi_restore 4
 488              		.cfi_def_cfa_offset 0
 489              		.loc 1 170 0
 490 0026 FFF7FEBF 		b	pwmEnableChannelNotification
 491              	.LVL14:
 492              	.L59:
 493              		.cfi_restore_state
 494 002a FFF7FEFF 		bl	__stack_chk_fail
 495              	.LVL15:
 496              	.L61:
 497 002e 00BF     		.align	2
 498              	.L60:
 499 0030 00000000 		.word	__stack_chk_guard
 500 0034 00000000 		.word	PWMD4
 501              		.cfi_endproc
 502              	.LFE263:
 503              		.size	left_motor_enable_power_save, .-left_motor_enable_power_save
 504              		.section	.text.right_motor_disable_power_save,"ax",%progbits
 505              		.align	1
 506              		.p2align 4,,15
 507              		.global	right_motor_disable_power_save
 508              		.syntax unified
 509              		.thumb
 510              		.thumb_func
 511              		.fpu fpv4-sp-d16
 512              		.type	right_motor_disable_power_save, %function
 513              	right_motor_disable_power_save:
ARM GAS  C:\Users\shadi\AppData\Local\Temp\cc3pWnZ6.s 			page 10


 514              	.LFB264:
 515              		.loc 1 176 0
 516              		.cfi_startproc
 517              		@ args = 0, pretend = 0, frame = 8
 518              		@ frame_needed = 0, uses_anonymous_args = 0
 519 0000 00B5     		push	{lr}
 520              		.cfi_def_cfa_offset 4
 521              		.cfi_offset 14, -4
 522 0002 084B     		ldr	r3, .L67
 523 0004 83B0     		sub	sp, sp, #12
 524              		.cfi_def_cfa_offset 16
 525              		.loc 1 176 0
 526 0006 1A68     		ldr	r2, [r3]
 527 0008 0192     		str	r2, [sp, #4]
 528              		.loc 1 177 0
 529 000a 019A     		ldr	r2, [sp, #4]
 530 000c 1B68     		ldr	r3, [r3]
 531 000e 9A42     		cmp	r2, r3
 532 0010 06D1     		bne	.L66
 533 0012 0548     		ldr	r0, .L67+4
 534 0014 0021     		movs	r1, #0
 535              		.loc 1 178 0
 536 0016 03B0     		add	sp, sp, #12
 537              		.cfi_remember_state
 538              		.cfi_def_cfa_offset 4
 539              		@ sp needed
 540 0018 5DF804EB 		ldr	lr, [sp], #4
 541              		.cfi_restore 14
 542              		.cfi_def_cfa_offset 0
 543              		.loc 1 177 0
 544 001c FFF7FEBF 		b	pwmDisableChannel
 545              	.LVL16:
 546              	.L66:
 547              		.cfi_restore_state
 548 0020 FFF7FEFF 		bl	__stack_chk_fail
 549              	.LVL17:
 550              	.L68:
 551              		.align	2
 552              	.L67:
 553 0024 00000000 		.word	__stack_chk_guard
 554 0028 00000000 		.word	PWMD3
 555              		.cfi_endproc
 556              	.LFE264:
 557              		.size	right_motor_disable_power_save, .-right_motor_disable_power_save
 558              		.section	.text.left_motor_disable_power_save,"ax",%progbits
 559              		.align	1
 560              		.p2align 4,,15
 561              		.global	left_motor_disable_power_save
 562              		.syntax unified
 563              		.thumb
 564              		.thumb_func
 565              		.fpu fpv4-sp-d16
 566              		.type	left_motor_disable_power_save, %function
 567              	left_motor_disable_power_save:
 568              	.LFB265:
 569              		.loc 1 183 0
 570              		.cfi_startproc
ARM GAS  C:\Users\shadi\AppData\Local\Temp\cc3pWnZ6.s 			page 11


 571              		@ args = 0, pretend = 0, frame = 8
 572              		@ frame_needed = 0, uses_anonymous_args = 0
 573 0000 00B5     		push	{lr}
 574              		.cfi_def_cfa_offset 4
 575              		.cfi_offset 14, -4
 576 0002 084B     		ldr	r3, .L74
 577 0004 83B0     		sub	sp, sp, #12
 578              		.cfi_def_cfa_offset 16
 579              		.loc 1 183 0
 580 0006 1A68     		ldr	r2, [r3]
 581 0008 0192     		str	r2, [sp, #4]
 582              		.loc 1 184 0
 583 000a 019A     		ldr	r2, [sp, #4]
 584 000c 1B68     		ldr	r3, [r3]
 585 000e 9A42     		cmp	r2, r3
 586 0010 06D1     		bne	.L73
 587 0012 0548     		ldr	r0, .L74+4
 588 0014 0021     		movs	r1, #0
 589              		.loc 1 185 0
 590 0016 03B0     		add	sp, sp, #12
 591              		.cfi_remember_state
 592              		.cfi_def_cfa_offset 4
 593              		@ sp needed
 594 0018 5DF804EB 		ldr	lr, [sp], #4
 595              		.cfi_restore 14
 596              		.cfi_def_cfa_offset 0
 597              		.loc 1 184 0
 598 001c FFF7FEBF 		b	pwmDisableChannel
 599              	.LVL18:
 600              	.L73:
 601              		.cfi_restore_state
 602 0020 FFF7FEFF 		bl	__stack_chk_fail
 603              	.LVL19:
 604              	.L75:
 605              		.align	2
 606              	.L74:
 607 0024 00000000 		.word	__stack_chk_guard
 608 0028 00000000 		.word	PWMD4
 609              		.cfi_endproc
 610              	.LFE265:
 611              		.size	left_motor_disable_power_save, .-left_motor_disable_power_save
 612              		.section	.text.right_motor_timer_callback,"ax",%progbits
 613              		.align	1
 614              		.p2align 4,,15
 615              		.syntax unified
 616              		.thumb
 617              		.thumb_func
 618              		.fpu fpv4-sp-d16
 619              		.type	right_motor_timer_callback, %function
 620              	right_motor_timer_callback:
 621              	.LFB258:
 622              		.loc 1 80 0
 623              		.cfi_startproc
 624              		@ args = 0, pretend = 0, frame = 8
 625              		@ frame_needed = 0, uses_anonymous_args = 0
 626              	.LVL20:
 627 0000 70B5     		push	{r4, r5, r6, lr}
ARM GAS  C:\Users\shadi\AppData\Local\Temp\cc3pWnZ6.s 			page 12


 628              		.cfi_def_cfa_offset 16
 629              		.cfi_offset 4, -16
 630              		.cfi_offset 5, -12
 631              		.cfi_offset 6, -8
 632              		.cfi_offset 14, -4
 633              		.loc 1 83 0
 634 0002 1A4C     		ldr	r4, .L85
 635              		.loc 1 80 0
 636 0004 1A4E     		ldr	r6, .L85+4
 637              		.loc 1 83 0
 638 0006 2378     		ldrb	r3, [r4]	@ zero_extendqisi2
 639              		.loc 1 80 0
 640 0008 3268     		ldr	r2, [r6]
 641 000a 82B0     		sub	sp, sp, #8
 642              		.cfi_def_cfa_offset 24
 643              		.loc 1 83 0
 644 000c 022B     		cmp	r3, #2
 645              		.loc 1 80 0
 646 000e 0192     		str	r2, [sp, #4]
 647 0010 A268     		ldr	r2, [r4, #8]
 648              		.loc 1 83 0
 649 0012 11D1     		bne	.L77
 650              		.loc 1 84 0
 651 0014 6578     		ldrb	r5, [r4, #1]	@ zero_extendqisi2
 652              		.loc 1 85 0
 653 0016 1748     		ldr	r0, .L85+8
 654              	.LVL21:
 655              		.loc 1 84 0
 656 0018 0135     		adds	r5, r5, #1
 657 001a 05F00705 		and	r5, r5, #7
 658              	.LVL22:
 659              		.loc 1 85 0
 660 001e 00EB8500 		add	r0, r0, r5, lsl #2
 661 0022 9047     		blx	r2
 662              	.LVL23:
 663              		.loc 1 86 0
 664 0024 6368     		ldr	r3, [r4, #4]
 665              		.loc 1 87 0
 666 0026 6570     		strb	r5, [r4, #1]
 667              		.loc 1 86 0
 668 0028 013B     		subs	r3, r3, #1
 669 002a 6360     		str	r3, [r4, #4]
 670              	.LVL24:
 671              	.L76:
 672              		.loc 1 96 0
 673 002c 019A     		ldr	r2, [sp, #4]
 674 002e 3368     		ldr	r3, [r6]
 675 0030 9A42     		cmp	r2, r3
 676 0032 19D1     		bne	.L83
 677 0034 02B0     		add	sp, sp, #8
 678              		.cfi_remember_state
 679              		.cfi_def_cfa_offset 16
 680              		@ sp needed
 681 0036 70BD     		pop	{r4, r5, r6, pc}
 682              	.LVL25:
 683              	.L77:
 684              		.cfi_restore_state
ARM GAS  C:\Users\shadi\AppData\Local\Temp\cc3pWnZ6.s 			page 13


 685              		.loc 1 88 0
 686 0038 012B     		cmp	r3, #1
 687 003a 08D0     		beq	.L84
 688              		.loc 1 94 0
 689 003c 0199     		ldr	r1, [sp, #4]
 690 003e 3368     		ldr	r3, [r6]
 691 0040 9942     		cmp	r1, r3
 692 0042 11D1     		bne	.L83
 693 0044 0C48     		ldr	r0, .L85+12
 694              	.LVL26:
 695              		.loc 1 96 0
 696 0046 02B0     		add	sp, sp, #8
 697              		.cfi_remember_state
 698              		.cfi_def_cfa_offset 16
 699              		@ sp needed
 700 0048 BDE87040 		pop	{r4, r5, r6, lr}
 701              		.cfi_restore 14
 702              		.cfi_restore 6
 703              		.cfi_restore 5
 704              		.cfi_restore 4
 705              		.cfi_def_cfa_offset 0
 706              		.loc 1 94 0
 707 004c 1047     		bx	r2	@ indirect register sibling call
 708              	.LVL27:
 709              	.L84:
 710              		.cfi_restore_state
 711              	.LBB4:
 712              	.LBB5:
 713              		.loc 1 89 0
 714 004e 6578     		ldrb	r5, [r4, #1]	@ zero_extendqisi2
 715              		.loc 1 90 0
 716 0050 0848     		ldr	r0, .L85+8
 717              	.LVL28:
 718              		.loc 1 89 0
 719 0052 013D     		subs	r5, r5, #1
 720 0054 05F00705 		and	r5, r5, #7
 721              	.LVL29:
 722              		.loc 1 90 0
 723 0058 00EB8500 		add	r0, r0, r5, lsl #2
 724 005c 9047     		blx	r2
 725              	.LVL30:
 726              		.loc 1 91 0
 727 005e 6368     		ldr	r3, [r4, #4]
 728              		.loc 1 92 0
 729 0060 6570     		strb	r5, [r4, #1]
 730              		.loc 1 91 0
 731 0062 0133     		adds	r3, r3, #1
 732 0064 6360     		str	r3, [r4, #4]
 733 0066 E1E7     		b	.L76
 734              	.LVL31:
 735              	.L83:
 736              	.LBE5:
 737              	.LBE4:
 738              		.loc 1 96 0
 739 0068 FFF7FEFF 		bl	__stack_chk_fail
 740              	.LVL32:
 741              	.L86:
ARM GAS  C:\Users\shadi\AppData\Local\Temp\cc3pWnZ6.s 			page 14


 742              		.align	2
 743              	.L85:
 744 006c 00000000 		.word	.LANCHOR0
 745 0070 00000000 		.word	__stack_chk_guard
 746 0074 00000000 		.word	.LANCHOR1
 747 0078 00000000 		.word	.LANCHOR2
 748              		.cfi_endproc
 749              	.LFE258:
 750              		.size	right_motor_timer_callback, .-right_motor_timer_callback
 751              		.section	.text.left_motor_timer_callback,"ax",%progbits
 752              		.align	1
 753              		.p2align 4,,15
 754              		.syntax unified
 755              		.thumb
 756              		.thumb_func
 757              		.fpu fpv4-sp-d16
 758              		.type	left_motor_timer_callback, %function
 759              	left_motor_timer_callback:
 760              	.LFB259:
 761              		.loc 1 105 0
 762              		.cfi_startproc
 763              		@ args = 0, pretend = 0, frame = 8
 764              		@ frame_needed = 0, uses_anonymous_args = 0
 765              	.LVL33:
 766 0000 70B5     		push	{r4, r5, r6, lr}
 767              		.cfi_def_cfa_offset 16
 768              		.cfi_offset 4, -16
 769              		.cfi_offset 5, -12
 770              		.cfi_offset 6, -8
 771              		.cfi_offset 14, -4
 772              		.loc 1 108 0
 773 0002 1A4C     		ldr	r4, .L96
 774              		.loc 1 105 0
 775 0004 1A4E     		ldr	r6, .L96+4
 776              		.loc 1 108 0
 777 0006 2378     		ldrb	r3, [r4]	@ zero_extendqisi2
 778              		.loc 1 105 0
 779 0008 3268     		ldr	r2, [r6]
 780 000a 82B0     		sub	sp, sp, #8
 781              		.cfi_def_cfa_offset 24
 782              		.loc 1 108 0
 783 000c 012B     		cmp	r3, #1
 784              		.loc 1 105 0
 785 000e 0192     		str	r2, [sp, #4]
 786 0010 A268     		ldr	r2, [r4, #8]
 787              		.loc 1 108 0
 788 0012 11D1     		bne	.L88
 789              		.loc 1 109 0
 790 0014 6578     		ldrb	r5, [r4, #1]	@ zero_extendqisi2
 791              		.loc 1 110 0
 792 0016 1748     		ldr	r0, .L96+8
 793              	.LVL34:
 794              		.loc 1 109 0
 795 0018 0135     		adds	r5, r5, #1
 796 001a 05F00705 		and	r5, r5, #7
 797              	.LVL35:
 798              		.loc 1 110 0
ARM GAS  C:\Users\shadi\AppData\Local\Temp\cc3pWnZ6.s 			page 15


 799 001e 00EB8500 		add	r0, r0, r5, lsl #2
 800 0022 9047     		blx	r2
 801              	.LVL36:
 802              		.loc 1 111 0
 803 0024 6368     		ldr	r3, [r4, #4]
 804              		.loc 1 112 0
 805 0026 6570     		strb	r5, [r4, #1]
 806              		.loc 1 111 0
 807 0028 0133     		adds	r3, r3, #1
 808 002a 6360     		str	r3, [r4, #4]
 809              	.LVL37:
 810              	.L87:
 811              		.loc 1 121 0
 812 002c 019A     		ldr	r2, [sp, #4]
 813 002e 3368     		ldr	r3, [r6]
 814 0030 9A42     		cmp	r2, r3
 815 0032 19D1     		bne	.L94
 816 0034 02B0     		add	sp, sp, #8
 817              		.cfi_remember_state
 818              		.cfi_def_cfa_offset 16
 819              		@ sp needed
 820 0036 70BD     		pop	{r4, r5, r6, pc}
 821              	.LVL38:
 822              	.L88:
 823              		.cfi_restore_state
 824              		.loc 1 113 0
 825 0038 022B     		cmp	r3, #2
 826 003a 08D0     		beq	.L95
 827              		.loc 1 119 0
 828 003c 0199     		ldr	r1, [sp, #4]
 829 003e 3368     		ldr	r3, [r6]
 830 0040 9942     		cmp	r1, r3
 831 0042 11D1     		bne	.L94
 832 0044 0C48     		ldr	r0, .L96+12
 833              	.LVL39:
 834              		.loc 1 121 0
 835 0046 02B0     		add	sp, sp, #8
 836              		.cfi_remember_state
 837              		.cfi_def_cfa_offset 16
 838              		@ sp needed
 839 0048 BDE87040 		pop	{r4, r5, r6, lr}
 840              		.cfi_restore 14
 841              		.cfi_restore 6
 842              		.cfi_restore 5
 843              		.cfi_restore 4
 844              		.cfi_def_cfa_offset 0
 845              		.loc 1 119 0
 846 004c 1047     		bx	r2	@ indirect register sibling call
 847              	.LVL40:
 848              	.L95:
 849              		.cfi_restore_state
 850              	.LBB8:
 851              	.LBB9:
 852              		.loc 1 114 0
 853 004e 6578     		ldrb	r5, [r4, #1]	@ zero_extendqisi2
 854              		.loc 1 115 0
 855 0050 0848     		ldr	r0, .L96+8
ARM GAS  C:\Users\shadi\AppData\Local\Temp\cc3pWnZ6.s 			page 16


 856              	.LVL41:
 857              		.loc 1 114 0
 858 0052 013D     		subs	r5, r5, #1
 859 0054 05F00705 		and	r5, r5, #7
 860              	.LVL42:
 861              		.loc 1 115 0
 862 0058 00EB8500 		add	r0, r0, r5, lsl #2
 863 005c 9047     		blx	r2
 864              	.LVL43:
 865              		.loc 1 116 0
 866 005e 6368     		ldr	r3, [r4, #4]
 867              		.loc 1 117 0
 868 0060 6570     		strb	r5, [r4, #1]
 869              		.loc 1 116 0
 870 0062 013B     		subs	r3, r3, #1
 871 0064 6360     		str	r3, [r4, #4]
 872 0066 E1E7     		b	.L87
 873              	.LVL44:
 874              	.L94:
 875              	.LBE9:
 876              	.LBE8:
 877              		.loc 1 121 0
 878 0068 FFF7FEFF 		bl	__stack_chk_fail
 879              	.LVL45:
 880              	.L97:
 881              		.align	2
 882              	.L96:
 883 006c 00000000 		.word	.LANCHOR3
 884 0070 00000000 		.word	__stack_chk_guard
 885 0074 00000000 		.word	.LANCHOR1
 886 0078 00000000 		.word	.LANCHOR2
 887              		.cfi_endproc
 888              	.LFE259:
 889              		.size	left_motor_timer_callback, .-left_motor_timer_callback
 890              		.section	.text.motor_set_speed,"ax",%progbits
 891              		.align	1
 892              		.p2align 4,,15
 893              		.global	motor_set_speed
 894              		.syntax unified
 895              		.thumb
 896              		.thumb_func
 897              		.fpu fpv4-sp-d16
 898              		.type	motor_set_speed, %function
 899              	motor_set_speed:
 900              	.LFB266:
 901              		.loc 1 194 0
 902              		.cfi_startproc
 903              		@ args = 0, pretend = 0, frame = 16
 904              		@ frame_needed = 0, uses_anonymous_args = 0
 905              	.LVL46:
 906 0000 30B5     		push	{r4, r5, lr}
 907              		.cfi_def_cfa_offset 12
 908              		.cfi_offset 4, -12
 909              		.cfi_offset 5, -8
 910              		.cfi_offset 14, -4
 911 0002 1F4D     		ldr	r5, .L110
 912 0004 85B0     		sub	sp, sp, #20
ARM GAS  C:\Users\shadi\AppData\Local\Temp\cc3pWnZ6.s 			page 17


 913              		.cfi_def_cfa_offset 32
 914              		.loc 1 194 0
 915 0006 2B68     		ldr	r3, [r5]
 916 0008 0393     		str	r3, [sp, #12]
 917              		.loc 1 196 0
 918 000a 40F24C43 		movw	r3, #1100
 919 000e 9942     		cmp	r1, r3
 920              		.loc 1 194 0
 921 0010 0446     		mov	r4, r0
 922              		.loc 1 196 0
 923 0012 26DC     		bgt	.L99
 924              		.loc 1 198 0
 925 0014 A3F69803 		subw	r3, r3, #2200
 926 0018 9942     		cmp	r1, r3
 927 001a 11DB     		blt	.L107
 928              		.loc 1 203 0
 929 001c 4B00     		lsls	r3, r1, #1
 930              	.LVL47:
 931              		.loc 1 206 0
 932 001e 002B     		cmp	r3, #0
 933 0020 29D1     		bne	.L101
 934              		.loc 1 207 0
 935 0022 0370     		strb	r3, [r0]
 936              	.LVL48:
 937              		.loc 1 210 0
 938 0024 0369     		ldr	r3, [r0, #16]
 939              	.LVL49:
 940 0026 9847     		blx	r3
 941              	.LVL50:
 942 0028 4FF47A71 		mov	r1, #1000
 943              	.LVL51:
 944              	.L102:
 945              		.loc 1 228 0
 946 002c 039A     		ldr	r2, [sp, #12]
 947 002e 2B68     		ldr	r3, [r5]
 948 0030 9A42     		cmp	r2, r3
 949 0032 1ED1     		bne	.L109
 950 0034 6069     		ldr	r0, [r4, #20]
 951              		.loc 1 229 0
 952 0036 05B0     		add	sp, sp, #20
 953              		.cfi_remember_state
 954              		.cfi_def_cfa_offset 12
 955              		@ sp needed
 956 0038 BDE83040 		pop	{r4, r5, lr}
 957              		.cfi_restore 14
 958              		.cfi_restore 5
 959              		.cfi_restore 4
 960              		.cfi_def_cfa_offset 0
 961              	.LVL52:
 962              		.loc 1 228 0
 963 003c FFF7FEBF 		b	pwmChangePeriod
 964              	.LVL53:
 965              	.L107:
 966              		.cfi_restore_state
 967 0040 104B     		ldr	r3, .L110+4
 968              	.LVL54:
 969              	.L100:
ARM GAS  C:\Users\shadi\AppData\Local\Temp\cc3pWnZ6.s 			page 18


 970              		.loc 1 215 0
 971 0042 0222     		movs	r2, #2
 972              		.loc 1 216 0
 973 0044 5B42     		negs	r3, r3
 974              	.LVL55:
 975              		.loc 1 215 0
 976 0046 2270     		strb	r2, [r4]
 977              	.L103:
 978              	.LVL56:
 979              		.loc 1 220 0
 980 0048 40F28922 		movw	r2, #649
 981 004c 9342     		cmp	r3, r2
 982              		.loc 1 218 0
 983 004e 0E49     		ldr	r1, .L110+8
 984 0050 91FBF3F1 		sdiv	r1, r1, r3
 985 0054 89B2     		uxth	r1, r1
 986              		.loc 1 220 0
 987 0056 07DC     		bgt	.L104
 988 0058 0191     		str	r1, [sp, #4]
 989              		.loc 1 221 0
 990 005a E368     		ldr	r3, [r4, #12]
 991              	.LVL57:
 992 005c 9847     		blx	r3
 993              	.LVL58:
 994 005e 0199     		ldr	r1, [sp, #4]
 995 0060 E4E7     		b	.L102
 996              	.LVL59:
 997              	.L99:
 998              		.loc 1 213 0
 999 0062 0123     		movs	r3, #1
 1000 0064 0370     		strb	r3, [r0]
 1001              	.LVL60:
 1002 0066 2D21     		movs	r1, #45
 1003              	.LVL61:
 1004              	.L104:
 1005 0068 0191     		str	r1, [sp, #4]
 1006              		.loc 1 223 0
 1007 006a 2369     		ldr	r3, [r4, #16]
 1008 006c 9847     		blx	r3
 1009              	.LVL62:
 1010 006e 0199     		ldr	r1, [sp, #4]
 1011 0070 DCE7     		b	.L102
 1012              	.L109:
 1013              		.loc 1 228 0
 1014 0072 FFF7FEFF 		bl	__stack_chk_fail
 1015              	.LVL63:
 1016              	.L101:
 1017              		.loc 1 212 0
 1018 0076 E4DD     		ble	.L100
 1019              		.loc 1 213 0
 1020 0078 0122     		movs	r2, #1
 1021 007a 0270     		strb	r2, [r0]
 1022 007c E4E7     		b	.L103
 1023              	.L111:
 1024 007e 00BF     		.align	2
 1025              	.L110:
 1026 0080 00000000 		.word	__stack_chk_guard
ARM GAS  C:\Users\shadi\AppData\Local\Temp\cc3pWnZ6.s 			page 19


 1027 0084 68F7FFFF 		.word	-2200
 1028 0088 A0860100 		.word	100000
 1029              		.cfi_endproc
 1030              	.LFE266:
 1031              		.size	motor_set_speed, .-motor_set_speed
 1032              		.section	.text.left_motor_set_speed,"ax",%progbits
 1033              		.align	1
 1034              		.p2align 4,,15
 1035              		.global	left_motor_set_speed
 1036              		.syntax unified
 1037              		.thumb
 1038              		.thumb_func
 1039              		.fpu fpv4-sp-d16
 1040              		.type	left_motor_set_speed, %function
 1041              	left_motor_set_speed:
 1042              	.LFB267:
 1043              		.loc 1 236 0
 1044              		.cfi_startproc
 1045              		@ args = 0, pretend = 0, frame = 8
 1046              		@ frame_needed = 0, uses_anonymous_args = 0
 1047              	.LVL64:
 1048 0000 00B5     		push	{lr}
 1049              		.cfi_def_cfa_offset 4
 1050              		.cfi_offset 14, -4
 1051 0002 084B     		ldr	r3, .L117
 1052 0004 83B0     		sub	sp, sp, #12
 1053              		.cfi_def_cfa_offset 16
 1054              		.loc 1 236 0
 1055 0006 1A68     		ldr	r2, [r3]
 1056 0008 0192     		str	r2, [sp, #4]
 1057              		.loc 1 237 0
 1058 000a 019A     		ldr	r2, [sp, #4]
 1059 000c 1B68     		ldr	r3, [r3]
 1060 000e 9A42     		cmp	r2, r3
 1061 0010 06D1     		bne	.L116
 1062 0012 0146     		mov	r1, r0
 1063 0014 0448     		ldr	r0, .L117+4
 1064              	.LVL65:
 1065              		.loc 1 238 0
 1066 0016 03B0     		add	sp, sp, #12
 1067              		.cfi_remember_state
 1068              		.cfi_def_cfa_offset 4
 1069              		@ sp needed
 1070 0018 5DF804EB 		ldr	lr, [sp], #4
 1071              		.cfi_restore 14
 1072              		.cfi_def_cfa_offset 0
 1073              		.loc 1 237 0
 1074 001c FFF7FEBF 		b	motor_set_speed
 1075              	.LVL66:
 1076              	.L116:
 1077              		.cfi_restore_state
 1078 0020 FFF7FEFF 		bl	__stack_chk_fail
 1079              	.LVL67:
 1080              	.L118:
 1081              		.align	2
 1082              	.L117:
 1083 0024 00000000 		.word	__stack_chk_guard
ARM GAS  C:\Users\shadi\AppData\Local\Temp\cc3pWnZ6.s 			page 20


 1084 0028 00000000 		.word	.LANCHOR3
 1085              		.cfi_endproc
 1086              	.LFE267:
 1087              		.size	left_motor_set_speed, .-left_motor_set_speed
 1088              		.section	.text.right_motor_set_speed,"ax",%progbits
 1089              		.align	1
 1090              		.p2align 4,,15
 1091              		.global	right_motor_set_speed
 1092              		.syntax unified
 1093              		.thumb
 1094              		.thumb_func
 1095              		.fpu fpv4-sp-d16
 1096              		.type	right_motor_set_speed, %function
 1097              	right_motor_set_speed:
 1098              	.LFB268:
 1099              		.loc 1 240 0
 1100              		.cfi_startproc
 1101              		@ args = 0, pretend = 0, frame = 8
 1102              		@ frame_needed = 0, uses_anonymous_args = 0
 1103              	.LVL68:
 1104 0000 00B5     		push	{lr}
 1105              		.cfi_def_cfa_offset 4
 1106              		.cfi_offset 14, -4
 1107 0002 084B     		ldr	r3, .L124
 1108 0004 83B0     		sub	sp, sp, #12
 1109              		.cfi_def_cfa_offset 16
 1110              		.loc 1 240 0
 1111 0006 1A68     		ldr	r2, [r3]
 1112 0008 0192     		str	r2, [sp, #4]
 1113              		.loc 1 241 0
 1114 000a 019A     		ldr	r2, [sp, #4]
 1115 000c 1B68     		ldr	r3, [r3]
 1116 000e 9A42     		cmp	r2, r3
 1117 0010 06D1     		bne	.L123
 1118 0012 0146     		mov	r1, r0
 1119 0014 0448     		ldr	r0, .L124+4
 1120              	.LVL69:
 1121              		.loc 1 242 0
 1122 0016 03B0     		add	sp, sp, #12
 1123              		.cfi_remember_state
 1124              		.cfi_def_cfa_offset 4
 1125              		@ sp needed
 1126 0018 5DF804EB 		ldr	lr, [sp], #4
 1127              		.cfi_restore 14
 1128              		.cfi_def_cfa_offset 0
 1129              		.loc 1 241 0
 1130 001c FFF7FEBF 		b	motor_set_speed
 1131              	.LVL70:
 1132              	.L123:
 1133              		.cfi_restore_state
 1134 0020 FFF7FEFF 		bl	__stack_chk_fail
 1135              	.LVL71:
 1136              	.L125:
 1137              		.align	2
 1138              	.L124:
 1139 0024 00000000 		.word	__stack_chk_guard
 1140 0028 00000000 		.word	.LANCHOR0
ARM GAS  C:\Users\shadi\AppData\Local\Temp\cc3pWnZ6.s 			page 21


 1141              		.cfi_endproc
 1142              	.LFE268:
 1143              		.size	right_motor_set_speed, .-right_motor_set_speed
 1144              		.section	.text.left_motor_get_pos,"ax",%progbits
 1145              		.align	1
 1146              		.p2align 4,,15
 1147              		.global	left_motor_get_pos
 1148              		.syntax unified
 1149              		.thumb
 1150              		.thumb_func
 1151              		.fpu fpv4-sp-d16
 1152              		.type	left_motor_get_pos, %function
 1153              	left_motor_get_pos:
 1154              	.LFB269:
 1155              		.loc 1 244 0
 1156              		.cfi_startproc
 1157              		@ args = 0, pretend = 0, frame = 8
 1158              		@ frame_needed = 0, uses_anonymous_args = 0
 1159 0000 00B5     		push	{lr}
 1160              		.cfi_def_cfa_offset 4
 1161              		.cfi_offset 14, -4
 1162 0002 094B     		ldr	r3, .L130
 1163              		.loc 1 245 0
 1164 0004 094A     		ldr	r2, .L130+4
 1165              		.loc 1 244 0
 1166 0006 1968     		ldr	r1, [r3]
 1167              		.loc 1 245 0
 1168 0008 5068     		ldr	r0, [r2, #4]
 1169              		.loc 1 244 0
 1170 000a 83B0     		sub	sp, sp, #12
 1171              		.cfi_def_cfa_offset 16
 1172              		.loc 1 245 0
 1173 000c 00EBD070 		add	r0, r0, r0, lsr #31
 1174              		.loc 1 244 0
 1175 0010 0191     		str	r1, [sp, #4]
 1176              		.loc 1 246 0
 1177 0012 019A     		ldr	r2, [sp, #4]
 1178 0014 1B68     		ldr	r3, [r3]
 1179 0016 9A42     		cmp	r2, r3
 1180 0018 03D1     		bne	.L129
 1181 001a 4010     		asrs	r0, r0, #1
 1182 001c 03B0     		add	sp, sp, #12
 1183              		.cfi_remember_state
 1184              		.cfi_def_cfa_offset 4
 1185              		@ sp needed
 1186 001e 5DF804FB 		ldr	pc, [sp], #4
 1187              	.L129:
 1188              		.cfi_restore_state
 1189 0022 FFF7FEFF 		bl	__stack_chk_fail
 1190              	.LVL72:
 1191              	.L131:
 1192 0026 00BF     		.align	2
 1193              	.L130:
 1194 0028 00000000 		.word	__stack_chk_guard
 1195 002c 00000000 		.word	.LANCHOR3
 1196              		.cfi_endproc
 1197              	.LFE269:
ARM GAS  C:\Users\shadi\AppData\Local\Temp\cc3pWnZ6.s 			page 22


 1198              		.size	left_motor_get_pos, .-left_motor_get_pos
 1199              		.section	.text.right_motor_get_pos,"ax",%progbits
 1200              		.align	1
 1201              		.p2align 4,,15
 1202              		.global	right_motor_get_pos
 1203              		.syntax unified
 1204              		.thumb
 1205              		.thumb_func
 1206              		.fpu fpv4-sp-d16
 1207              		.type	right_motor_get_pos, %function
 1208              	right_motor_get_pos:
 1209              	.LFB270:
 1210              		.loc 1 248 0
 1211              		.cfi_startproc
 1212              		@ args = 0, pretend = 0, frame = 8
 1213              		@ frame_needed = 0, uses_anonymous_args = 0
 1214 0000 00B5     		push	{lr}
 1215              		.cfi_def_cfa_offset 4
 1216              		.cfi_offset 14, -4
 1217 0002 094B     		ldr	r3, .L136
 1218              		.loc 1 249 0
 1219 0004 094A     		ldr	r2, .L136+4
 1220              		.loc 1 248 0
 1221 0006 1968     		ldr	r1, [r3]
 1222              		.loc 1 249 0
 1223 0008 5068     		ldr	r0, [r2, #4]
 1224              		.loc 1 248 0
 1225 000a 83B0     		sub	sp, sp, #12
 1226              		.cfi_def_cfa_offset 16
 1227              		.loc 1 249 0
 1228 000c 00EBD070 		add	r0, r0, r0, lsr #31
 1229              		.loc 1 248 0
 1230 0010 0191     		str	r1, [sp, #4]
 1231              		.loc 1 250 0
 1232 0012 019A     		ldr	r2, [sp, #4]
 1233 0014 1B68     		ldr	r3, [r3]
 1234 0016 9A42     		cmp	r2, r3
 1235 0018 03D1     		bne	.L135
 1236 001a 4010     		asrs	r0, r0, #1
 1237 001c 03B0     		add	sp, sp, #12
 1238              		.cfi_remember_state
 1239              		.cfi_def_cfa_offset 4
 1240              		@ sp needed
 1241 001e 5DF804FB 		ldr	pc, [sp], #4
 1242              	.L135:
 1243              		.cfi_restore_state
 1244 0022 FFF7FEFF 		bl	__stack_chk_fail
 1245              	.LVL73:
 1246              	.L137:
 1247 0026 00BF     		.align	2
 1248              	.L136:
 1249 0028 00000000 		.word	__stack_chk_guard
 1250 002c 00000000 		.word	.LANCHOR0
 1251              		.cfi_endproc
 1252              	.LFE270:
 1253              		.size	right_motor_get_pos, .-right_motor_get_pos
 1254              		.section	.text.left_motor_set_pos,"ax",%progbits
ARM GAS  C:\Users\shadi\AppData\Local\Temp\cc3pWnZ6.s 			page 23


 1255              		.align	1
 1256              		.p2align 4,,15
 1257              		.global	left_motor_set_pos
 1258              		.syntax unified
 1259              		.thumb
 1260              		.thumb_func
 1261              		.fpu fpv4-sp-d16
 1262              		.type	left_motor_set_pos, %function
 1263              	left_motor_set_pos:
 1264              	.LFB271:
 1265              		.loc 1 252 0
 1266              		.cfi_startproc
 1267              		@ args = 0, pretend = 0, frame = 8
 1268              		@ frame_needed = 0, uses_anonymous_args = 0
 1269              	.LVL74:
 1270 0000 00B5     		push	{lr}
 1271              		.cfi_def_cfa_offset 4
 1272              		.cfi_offset 14, -4
 1273 0002 084B     		ldr	r3, .L142
 1274              		.loc 1 253 0
 1275 0004 0849     		ldr	r1, .L142+4
 1276              		.loc 1 252 0
 1277 0006 1A68     		ldr	r2, [r3]
 1278 0008 83B0     		sub	sp, sp, #12
 1279              		.cfi_def_cfa_offset 16
 1280              		.loc 1 253 0
 1281 000a 4000     		lsls	r0, r0, #1
 1282              	.LVL75:
 1283              		.loc 1 252 0
 1284 000c 0192     		str	r2, [sp, #4]
 1285              		.loc 1 254 0
 1286 000e 019A     		ldr	r2, [sp, #4]
 1287 0010 1B68     		ldr	r3, [r3]
 1288              		.loc 1 253 0
 1289 0012 4860     		str	r0, [r1, #4]
 1290              		.loc 1 254 0
 1291 0014 9A42     		cmp	r2, r3
 1292 0016 02D1     		bne	.L141
 1293 0018 03B0     		add	sp, sp, #12
 1294              		.cfi_remember_state
 1295              		.cfi_def_cfa_offset 4
 1296              		@ sp needed
 1297 001a 5DF804FB 		ldr	pc, [sp], #4
 1298              	.L141:
 1299              		.cfi_restore_state
 1300 001e FFF7FEFF 		bl	__stack_chk_fail
 1301              	.LVL76:
 1302              	.L143:
 1303 0022 00BF     		.align	2
 1304              	.L142:
 1305 0024 00000000 		.word	__stack_chk_guard
 1306 0028 00000000 		.word	.LANCHOR3
 1307              		.cfi_endproc
 1308              	.LFE271:
 1309              		.size	left_motor_set_pos, .-left_motor_set_pos
 1310              		.section	.text.right_motor_set_pos,"ax",%progbits
 1311              		.align	1
ARM GAS  C:\Users\shadi\AppData\Local\Temp\cc3pWnZ6.s 			page 24


 1312              		.p2align 4,,15
 1313              		.global	right_motor_set_pos
 1314              		.syntax unified
 1315              		.thumb
 1316              		.thumb_func
 1317              		.fpu fpv4-sp-d16
 1318              		.type	right_motor_set_pos, %function
 1319              	right_motor_set_pos:
 1320              	.LFB272:
 1321              		.loc 1 256 0
 1322              		.cfi_startproc
 1323              		@ args = 0, pretend = 0, frame = 8
 1324              		@ frame_needed = 0, uses_anonymous_args = 0
 1325              	.LVL77:
 1326 0000 00B5     		push	{lr}
 1327              		.cfi_def_cfa_offset 4
 1328              		.cfi_offset 14, -4
 1329 0002 084B     		ldr	r3, .L148
 1330              		.loc 1 257 0
 1331 0004 0849     		ldr	r1, .L148+4
 1332              		.loc 1 256 0
 1333 0006 1A68     		ldr	r2, [r3]
 1334 0008 83B0     		sub	sp, sp, #12
 1335              		.cfi_def_cfa_offset 16
 1336              		.loc 1 257 0
 1337 000a 4000     		lsls	r0, r0, #1
 1338              	.LVL78:
 1339              		.loc 1 256 0
 1340 000c 0192     		str	r2, [sp, #4]
 1341              		.loc 1 258 0
 1342 000e 019A     		ldr	r2, [sp, #4]
 1343 0010 1B68     		ldr	r3, [r3]
 1344              		.loc 1 257 0
 1345 0012 4860     		str	r0, [r1, #4]
 1346              		.loc 1 258 0
 1347 0014 9A42     		cmp	r2, r3
 1348 0016 02D1     		bne	.L147
 1349 0018 03B0     		add	sp, sp, #12
 1350              		.cfi_remember_state
 1351              		.cfi_def_cfa_offset 4
 1352              		@ sp needed
 1353 001a 5DF804FB 		ldr	pc, [sp], #4
 1354              	.L147:
 1355              		.cfi_restore_state
 1356 001e FFF7FEFF 		bl	__stack_chk_fail
 1357              	.LVL79:
 1358              	.L149:
 1359 0022 00BF     		.align	2
 1360              	.L148:
 1361 0024 00000000 		.word	__stack_chk_guard
 1362 0028 00000000 		.word	.LANCHOR0
 1363              		.cfi_endproc
 1364              	.LFE272:
 1365              		.size	right_motor_set_pos, .-right_motor_set_pos
 1366              		.section	.text.motors_init,"ax",%progbits
 1367              		.align	1
 1368              		.p2align 4,,15
ARM GAS  C:\Users\shadi\AppData\Local\Temp\cc3pWnZ6.s 			page 25


 1369              		.global	motors_init
 1370              		.syntax unified
 1371              		.thumb
 1372              		.thumb_func
 1373              		.fpu fpv4-sp-d16
 1374              		.type	motors_init, %function
 1375              	motors_init:
 1376              	.LFB273:
 1377              		.loc 1 261 0
 1378              		.cfi_startproc
 1379              		@ args = 0, pretend = 0, frame = 8
 1380              		@ frame_needed = 0, uses_anonymous_args = 0
 1381 0000 70B5     		push	{r4, r5, r6, lr}
 1382              		.cfi_def_cfa_offset 16
 1383              		.cfi_offset 4, -16
 1384              		.cfi_offset 5, -12
 1385              		.cfi_offset 6, -8
 1386              		.cfi_offset 14, -4
 1387 0002 1D4E     		ldr	r6, .L155
 1388              		.loc 1 263 0
 1389 0004 1D4A     		ldr	r2, .L155+4
 1390              		.loc 1 271 0
 1391 0006 1E4B     		ldr	r3, .L155+8
 1392              		.loc 1 261 0
 1393 0008 3068     		ldr	r0, [r6]
 1394              		.loc 1 266 0
 1395 000a 1E49     		ldr	r1, .L155+12
 1396              		.loc 1 267 0
 1397 000c 1E4C     		ldr	r4, .L155+16
 1398              		.loc 1 266 0
 1399 000e 9160     		str	r1, [r2, #8]
 1400              		.loc 1 261 0
 1401 0010 82B0     		sub	sp, sp, #8
 1402              		.cfi_def_cfa_offset 24
 1403              		.loc 1 263 0
 1404 0012 0021     		movs	r1, #0
 1405              		.loc 1 267 0
 1406 0014 D460     		str	r4, [r2, #12]
 1407              		.loc 1 261 0
 1408 0016 0190     		str	r0, [sp, #4]
 1409              		.loc 1 269 0
 1410 0018 1C4C     		ldr	r4, .L155+20
 1411              		.loc 1 268 0
 1412 001a 1D48     		ldr	r0, .L155+24
 1413              		.loc 1 274 0
 1414 001c 1D4D     		ldr	r5, .L155+28
 1415 001e 9D60     		str	r5, [r3, #8]
 1416              		.loc 1 263 0
 1417 0020 1170     		strb	r1, [r2]
 1418              		.loc 1 264 0
 1419 0022 5170     		strb	r1, [r2, #1]
 1420              		.loc 1 265 0
 1421 0024 5160     		str	r1, [r2, #4]
 1422              		.loc 1 268 0
 1423 0026 1061     		str	r0, [r2, #16]
 1424              		.loc 1 269 0
 1425 0028 5461     		str	r4, [r2, #20]
ARM GAS  C:\Users\shadi\AppData\Local\Temp\cc3pWnZ6.s 			page 26


 1426              		.loc 1 275 0
 1427 002a 1B48     		ldr	r0, .L155+32
 1428              		.loc 1 276 0
 1429 002c 1B4A     		ldr	r2, .L155+36
 1430              		.loc 1 277 0
 1431 002e 1C4D     		ldr	r5, .L155+40
 1432              		.loc 1 275 0
 1433 0030 D860     		str	r0, [r3, #12]
 1434              		.loc 1 280 0
 1435 0032 1C48     		ldr	r0, .L155+44
 1436              		.loc 1 271 0
 1437 0034 1970     		strb	r1, [r3]
 1438              		.loc 1 272 0
 1439 0036 5970     		strb	r1, [r3, #1]
 1440              		.loc 1 273 0
 1441 0038 5960     		str	r1, [r3, #4]
 1442              		.loc 1 277 0
 1443 003a C3E90425 		strd	r2, r5, [r3, #16]
 1444              		.loc 1 280 0
 1445 003e FFF7FEFF 		bl	right_motor_update
 1446              	.LVL80:
 1447              		.loc 1 281 0
 1448 0042 1848     		ldr	r0, .L155+44
 1449 0044 FFF7FEFF 		bl	left_motor_update
 1450              	.LVL81:
 1451              		.loc 1 297 0
 1452 0048 1749     		ldr	r1, .L155+48
 1453 004a 2046     		mov	r0, r4
 1454 004c FFF7FEFF 		bl	pwmStart
 1455              	.LVL82:
 1456              		.loc 1 298 0
 1457 0050 2046     		mov	r0, r4
 1458 0052 FFF7FEFF 		bl	pwmEnablePeriodicNotification
 1459              	.LVL83:
 1460              		.loc 1 313 0
 1461 0056 2846     		mov	r0, r5
 1462 0058 1449     		ldr	r1, .L155+52
 1463 005a FFF7FEFF 		bl	pwmStart
 1464              	.LVL84:
 1465              		.loc 1 314 0
 1466 005e 019A     		ldr	r2, [sp, #4]
 1467 0060 3368     		ldr	r3, [r6]
 1468 0062 9A42     		cmp	r2, r3
 1469 0064 05D1     		bne	.L154
 1470 0066 2846     		mov	r0, r5
 1471              		.loc 1 316 0
 1472 0068 02B0     		add	sp, sp, #8
 1473              		.cfi_remember_state
 1474              		.cfi_def_cfa_offset 16
 1475              		@ sp needed
 1476 006a BDE87040 		pop	{r4, r5, r6, lr}
 1477              		.cfi_restore 14
 1478              		.cfi_restore 6
 1479              		.cfi_restore 5
 1480              		.cfi_restore 4
 1481              		.cfi_def_cfa_offset 0
 1482              		.loc 1 314 0
ARM GAS  C:\Users\shadi\AppData\Local\Temp\cc3pWnZ6.s 			page 27


 1483 006e FFF7FEBF 		b	pwmEnablePeriodicNotification
 1484              	.LVL85:
 1485              	.L154:
 1486              		.cfi_restore_state
 1487 0072 FFF7FEFF 		bl	__stack_chk_fail
 1488              	.LVL86:
 1489              	.L156:
 1490 0076 00BF     		.align	2
 1491              	.L155:
 1492 0078 00000000 		.word	__stack_chk_guard
 1493 007c 00000000 		.word	.LANCHOR0
 1494 0080 00000000 		.word	.LANCHOR3
 1495 0084 00000000 		.word	right_motor_update
 1496 0088 00000000 		.word	right_motor_enable_power_save
 1497 008c 00000000 		.word	PWMD3
 1498 0090 00000000 		.word	right_motor_disable_power_save
 1499 0094 00000000 		.word	left_motor_update
 1500 0098 00000000 		.word	left_motor_enable_power_save
 1501 009c 00000000 		.word	left_motor_disable_power_save
 1502 00a0 00000000 		.word	PWMD4
 1503 00a4 00000000 		.word	.LANCHOR2
 1504 00a8 00000000 		.word	.LANCHOR4
 1505 00ac 00000000 		.word	.LANCHOR5
 1506              		.cfi_endproc
 1507              	.LFE273:
 1508              		.size	motors_init, .-motors_init
 1509              		.global	left_motor
 1510              		.global	right_motor
 1511              		.section	.bss.left_motor,"aw",%nobits
 1512              		.align	2
 1513              		.set	.LANCHOR3,. + 0
 1514              		.type	left_motor, %object
 1515              		.size	left_motor, 24
 1516              	left_motor:
 1517 0000 00000000 		.space	24
 1517      00000000 
 1517      00000000 
 1517      00000000 
 1517      00000000 
 1518              		.section	.bss.right_motor,"aw",%nobits
 1519              		.align	2
 1520              		.set	.LANCHOR0,. + 0
 1521              		.type	right_motor, %object
 1522              		.size	right_motor, 24
 1523              	right_motor:
 1524 0000 00000000 		.space	24
 1524      00000000 
 1524      00000000 
 1524      00000000 
 1524      00000000 
 1525              		.section	.rodata.pwmcfg_left_motor.9970,"a",%progbits
 1526              		.align	2
 1527              		.set	.LANCHOR5,. + 0
 1528              		.type	pwmcfg_left_motor.9970, %object
 1529              		.size	pwmcfg_left_motor.9970, 52
 1530              	pwmcfg_left_motor.9970:
 1531 0000 A0860100 		.word	100000
ARM GAS  C:\Users\shadi\AppData\Local\Temp\cc3pWnZ6.s 			page 28


 1532 0004 FFFF0000 		.word	65535
 1533 0008 00000000 		.word	left_motor_timer_callback
 1534 000c 01000000 		.word	1
 1535 0010 00000000 		.word	left_motor_pwm_ch1_cb
 1536 0014 00000000 		.word	0
 1537 0018 00000000 		.word	0
 1538 001c 00000000 		.word	0
 1539 0020 00000000 		.word	0
 1540 0024 00000000 		.word	0
 1541 0028 00000000 		.word	0
 1542 002c 00000000 		.word	0
 1543 0030 00000000 		.space	4
 1544              		.section	.rodata.pwmcfg_right_motor.9969,"a",%progbits
 1545              		.align	2
 1546              		.set	.LANCHOR4,. + 0
 1547              		.type	pwmcfg_right_motor.9969, %object
 1548              		.size	pwmcfg_right_motor.9969, 52
 1549              	pwmcfg_right_motor.9969:
 1550 0000 A0860100 		.word	100000
 1551 0004 FFFF0000 		.word	65535
 1552 0008 00000000 		.word	right_motor_timer_callback
 1553 000c 01000000 		.word	1
 1554 0010 00000000 		.word	right_motor_pwm_ch1_cb
 1555 0014 00000000 		.word	0
 1556 0018 00000000 		.word	0
 1557 001c 00000000 		.word	0
 1558 0020 00000000 		.word	0
 1559 0024 00000000 		.word	0
 1560 0028 00000000 		.word	0
 1561 002c 00000000 		.word	0
 1562 0030 00000000 		.space	4
 1563              		.section	.rodata.step_halt,"a",%progbits
 1564              		.align	2
 1565              		.set	.LANCHOR2,. + 0
 1566              		.type	step_halt, %object
 1567              		.size	step_halt, 4
 1568              	step_halt:
 1569 0000 00000000 		.space	4
 1570              		.section	.rodata.step_table,"a",%progbits
 1571              		.align	2
 1572              		.set	.LANCHOR1,. + 0
 1573              		.type	step_table, %object
 1574              		.size	step_table, 32
 1575              	step_table:
 1576 0000 01       		.byte	1
 1577 0001 00       		.byte	0
 1578 0002 01       		.byte	1
 1579 0003 00       		.byte	0
 1580 0004 00       		.byte	0
 1581 0005 00       		.byte	0
 1582 0006 01       		.byte	1
 1583 0007 00       		.byte	0
 1584 0008 00       		.byte	0
 1585 0009 01       		.byte	1
 1586 000a 01       		.byte	1
 1587 000b 00       		.byte	0
 1588 000c 00       		.byte	0
ARM GAS  C:\Users\shadi\AppData\Local\Temp\cc3pWnZ6.s 			page 29


 1589 000d 01       		.byte	1
 1590 000e 00       		.byte	0
 1591 000f 00       		.byte	0
 1592 0010 00       		.byte	0
 1593 0011 01       		.byte	1
 1594 0012 00       		.byte	0
 1595 0013 01       		.byte	1
 1596 0014 00       		.byte	0
 1597 0015 00       		.byte	0
 1598 0016 00       		.byte	0
 1599 0017 01       		.byte	1
 1600 0018 01       		.byte	1
 1601 0019 00       		.byte	0
 1602 001a 00       		.byte	0
 1603 001b 01       		.byte	1
 1604 001c 01       		.byte	1
 1605 001d 00       		.byte	0
 1606 001e 00       		.byte	0
 1607 001f 00       		.byte	0
 1608              		.text
 1609              	.Letext0:
 1610              		.file 2 "c:\\users\\shadi\\downloads\\eclipse_e-puck2\\tools\\gcc-arm-none-eabi-7-2017-q4-major-wi
 1611              		.file 3 "c:\\users\\shadi\\downloads\\eclipse_e-puck2\\tools\\gcc-arm-none-eabi-7-2017-q4-major-wi
 1612              		.file 4 "c:\\users\\shadi\\downloads\\eclipse_e-puck2\\tools\\gcc-arm-none-eabi-7-2017-q4-major-wi
 1613              		.file 5 "../../lib/e-puck2_main-processor/ChibiOS//os/rt/ports/ARMCMx/compilers/GCC/chtypes.h"
 1614              		.file 6 "../../lib/e-puck2_main-processor/ChibiOS//os/rt/include/chsystypes.h"
 1615              		.file 7 "../../lib/e-puck2_main-processor/ChibiOS//os/rt/include/chschd.h"
 1616              		.file 8 "../../lib/e-puck2_main-processor/ChibiOS//os/ext/CMSIS/include/core_cm4.h"
 1617              		.file 9 "../../lib/e-puck2_main-processor/ChibiOS//os/ext/CMSIS/ST/system_stm32f4xx.h"
 1618              		.file 10 "../../lib/e-puck2_main-processor/ChibiOS//os/ext/CMSIS/ST/stm32f407xx.h"
 1619              		.file 11 "../../lib/e-puck2_main-processor/ChibiOS//os/rt/ports/ARMCMx/chcore.h"
 1620              		.file 12 "../../lib/e-puck2_main-processor/ChibiOS//os/rt/ports/ARMCMx/chcore_v7m.h"
 1621              		.file 13 "../../lib/e-puck2_main-processor/ChibiOS//os/rt/include/chdebug.h"
 1622              		.file 14 "../../lib/e-puck2_main-processor/ChibiOS//os/rt/include/chtm.h"
 1623              		.file 15 "../../lib/e-puck2_main-processor/ChibiOS//os/rt/include/chstats.h"
 1624              		.file 16 "../../lib/e-puck2_main-processor/ChibiOS//os/rt/include/chsem.h"
 1625              		.file 17 "../../lib/e-puck2_main-processor/ChibiOS//os/rt/include/chmtx.h"
 1626              		.file 18 "../../lib/e-puck2_main-processor/ChibiOS//os/rt/include/chregistry.h"
 1627              		.file 19 "../../lib/e-puck2_main-processor/ChibiOS//os/rt/include/chevents.h"
 1628              		.file 20 "../../lib/e-puck2_main-processor/ChibiOS//os/rt/include/chqueues.h"
 1629              		.file 21 "../../lib/e-puck2_main-processor/ChibiOS//os/hal/ports/STM32/STM32F4xx/stm32_dma.h"
 1630              		.file 22 "../../lib/e-puck2_main-processor/ChibiOS//os/hal/include/hal_ioblock.h"
 1631              		.file 23 "../../lib/e-puck2_main-processor/ChibiOS//os/hal/ports/STM32/LLD/GPIOv2/pal_lld.h"
 1632              		.file 24 "../../lib/e-puck2_main-processor/ChibiOS//os/hal/include/adc.h"
 1633              		.file 25 "../../lib/e-puck2_main-processor/ChibiOS//os/hal/ports/STM32/STM32F4xx/adc_lld.h"
 1634              		.file 26 "../../lib/e-puck2_main-processor/ChibiOS//os/hal/include/can.h"
 1635              		.file 27 "../../lib/e-puck2_main-processor/ChibiOS//os/hal/ports/STM32/LLD/can_lld.h"
 1636              		.file 28 "../../lib/e-puck2_main-processor/ChibiOS//os/hal/include/dac.h"
 1637              		.file 29 "../../lib/e-puck2_main-processor/ChibiOS//os/hal/ports/STM32/LLD/DACv1/dac_lld.h"
 1638              		.file 30 "../../lib/e-puck2_main-processor/ChibiOS//os/hal/include/ext.h"
 1639              		.file 31 "../../lib/e-puck2_main-processor/ChibiOS//os/hal/ports/STM32/LLD/ext_lld.h"
 1640              		.file 32 "../../lib/e-puck2_main-processor/ChibiOS//os/hal/include/gpt.h"
 1641              		.file 33 "../../lib/e-puck2_main-processor/ChibiOS//os/hal/ports/STM32/LLD/TIMv1/gpt_lld.h"
 1642              		.file 34 "../../lib/e-puck2_main-processor/ChibiOS//os/hal/ports/STM32/LLD/TIMv1/stm32_tim.h"
 1643              		.file 35 "../../lib/e-puck2_main-processor/ChibiOS//os/hal/include/i2c.h"
 1644              		.file 36 "../../lib/e-puck2_main-processor/ChibiOS//os/hal/ports/STM32/LLD/I2Cv1/i2c_lld.h"
 1645              		.file 37 "../../lib/e-puck2_main-processor/ChibiOS//os/hal/include/i2s.h"
ARM GAS  C:\Users\shadi\AppData\Local\Temp\cc3pWnZ6.s 			page 30


 1646              		.file 38 "../../lib/e-puck2_main-processor/ChibiOS//os/hal/ports/STM32/LLD/SPIv1/i2s_lld.h"
 1647              		.file 39 "../../lib/e-puck2_main-processor/ChibiOS//os/hal/include/pwm.h"
 1648              		.file 40 "../../lib/e-puck2_main-processor/ChibiOS//os/hal/ports/STM32/LLD/TIMv1/pwm_lld.h"
 1649              		.file 41 "../../lib/e-puck2_main-processor/ChibiOS//os/hal/include/serial.h"
 1650              		.file 42 "../../lib/e-puck2_main-processor/ChibiOS//os/hal/ports/STM32/LLD/USARTv1/serial_lld.h"
 1651              		.file 43 "../../lib/e-puck2_main-processor/ChibiOS//os/hal/include/sdc.h"
 1652              		.file 44 "../../lib/e-puck2_main-processor/ChibiOS//os/hal/ports/STM32/LLD/sdc_lld.h"
 1653              		.file 45 "../../lib/e-puck2_main-processor/ChibiOS//os/hal/include/spi.h"
 1654              		.file 46 "../../lib/e-puck2_main-processor/ChibiOS//os/hal/ports/STM32/LLD/SPIv1/spi_lld.h"
 1655              		.file 47 "../../lib/e-puck2_main-processor/ChibiOS//os/hal/include/usb.h"
 1656              		.file 48 "../../lib/e-puck2_main-processor/ChibiOS//os/hal/ports/STM32/LLD/OTGv1/usb_lld.h"
 1657              		.file 49 "../../lib/e-puck2_main-processor/ChibiOS//os/hal/ports/STM32/LLD/OTGv1/stm32_otg.h"