ARM GAS  C:\Users\shadi\AppData\Local\Temp\cchAJo7Z.s 			page 1


   1              		.cpu cortex-m4
   2              		.eabi_attribute 27, 1
   3              		.eabi_attribute 28, 1
   4              		.eabi_attribute 20, 1
   5              		.eabi_attribute 21, 1
   6              		.eabi_attribute 23, 3
   7              		.eabi_attribute 24, 1
   8              		.eabi_attribute 25, 1
   9              		.eabi_attribute 26, 1
  10              		.eabi_attribute 30, 2
  11              		.eabi_attribute 34, 1
  12              		.eabi_attribute 18, 4
  13              		.file	"newlib_syscalls.c"
  14              		.text
  15              	.Ltext0:
  16              		.cfi_sections	.debug_frame
  17              		.section	.text._read_r,"ax",%progbits
  18              		.align	1
  19              		.p2align 4,,15
  20              		.global	_read_r
  21              		.syntax unified
  22              		.thumb
  23              		.thumb_func
  24              		.fpu fpv4-sp-d16
  25              		.type	_read_r, %function
  26              	_read_r:
  27              	.LFB256:
  28              		.file 1 "../../lib/e-puck2_main-processor/src/chibios-syscalls/newlib_syscalls.c"
  29              		.loc 1 16 0
  30              		.cfi_startproc
  31              		@ args = 0, pretend = 0, frame = 8
  32              		@ frame_needed = 0, uses_anonymous_args = 0
  33              	.LVL0:
  34 0000 30B5     		push	{r4, r5, lr}
  35              		.cfi_def_cfa_offset 12
  36              		.cfi_offset 4, -12
  37              		.cfi_offset 5, -8
  38              		.cfi_offset 14, -4
  39 0002 104C     		ldr	r4, .L13
  40 0004 83B0     		sub	sp, sp, #12
  41              		.cfi_def_cfa_offset 24
  42              		.loc 1 16 0
  43 0006 2568     		ldr	r5, [r4]
  44 0008 0195     		str	r5, [sp, #4]
  45              		.loc 1 19 0
  46 000a 73B1     		cbz	r3, .L2
  47              		.loc 1 19 0 is_stmt 0 discriminator 1
  48 000c 69B9     		cbnz	r1, .L2
  49              		.loc 1 23 0 is_stmt 1
  50 000e 0199     		ldr	r1, [sp, #4]
  51              	.LVL1:
  52 0010 1546     		mov	r5, r2
  53 0012 2268     		ldr	r2, [r4]
  54              	.LVL2:
  55 0014 9142     		cmp	r1, r2
  56 0016 12D1     		bne	.L10
  57 0018 0B48     		ldr	r0, .L13+4
ARM GAS  C:\Users\shadi\AppData\Local\Temp\cchAJo7Z.s 			page 2


  58              	.LVL3:
  59 001a 0468     		ldr	r4, [r0]
  60 001c 1A46     		mov	r2, r3
  61 001e 6368     		ldr	r3, [r4, #4]
  62              	.LVL4:
  63 0020 2946     		mov	r1, r5
  64              		.loc 1 32 0
  65 0022 03B0     		add	sp, sp, #12
  66              		.cfi_remember_state
  67              		.cfi_def_cfa_offset 12
  68              		@ sp needed
  69 0024 BDE83040 		pop	{r4, r5, lr}
  70              		.cfi_restore 14
  71              		.cfi_restore 5
  72              		.cfi_restore 4
  73              		.cfi_def_cfa_offset 0
  74              	.LVL5:
  75              		.loc 1 23 0
  76 0028 1847     		bx	r3
  77              	.LVL6:
  78              	.L2:
  79              		.cfi_restore_state
  80              		.loc 1 20 0
  81 002a 1623     		movs	r3, #22
  82              	.LVL7:
  83 002c 0360     		str	r3, [r0]
  84              		.loc 1 32 0
  85 002e 019A     		ldr	r2, [sp, #4]
  86              	.LVL8:
  87 0030 2368     		ldr	r3, [r4]
  88 0032 9A42     		cmp	r2, r3
  89 0034 4FF0FF30 		mov	r0, #-1
  90              	.LVL9:
  91 0038 01D1     		bne	.L10
  92 003a 03B0     		add	sp, sp, #12
  93              		.cfi_remember_state
  94              		.cfi_def_cfa_offset 12
  95              		@ sp needed
  96 003c 30BD     		pop	{r4, r5, pc}
  97              	.LVL10:
  98              	.L10:
  99              		.cfi_restore_state
 100 003e FFF7FEFF 		bl	__stack_chk_fail
 101              	.LVL11:
 102              	.L14:
 103 0042 00BF     		.align	2
 104              	.L13:
 105 0044 00000000 		.word	__stack_chk_guard
 106 0048 00000000 		.word	SDU1
 107              		.cfi_endproc
 108              	.LFE256:
 109              		.size	_read_r, .-_read_r
 110              		.section	.text._lseek_r,"ax",%progbits
 111              		.align	1
 112              		.p2align 4,,15
 113              		.global	_lseek_r
 114              		.syntax unified
ARM GAS  C:\Users\shadi\AppData\Local\Temp\cchAJo7Z.s 			page 3


 115              		.thumb
 116              		.thumb_func
 117              		.fpu fpv4-sp-d16
 118              		.type	_lseek_r, %function
 119              	_lseek_r:
 120              	.LFB257:
 121              		.loc 1 35 0
 122              		.cfi_startproc
 123              		@ args = 0, pretend = 0, frame = 8
 124              		@ frame_needed = 0, uses_anonymous_args = 0
 125              	.LVL12:
 126 0000 00B5     		push	{lr}
 127              		.cfi_def_cfa_offset 4
 128              		.cfi_offset 14, -4
 129 0002 074B     		ldr	r3, .L19
 130              	.LVL13:
 131 0004 83B0     		sub	sp, sp, #12
 132              		.cfi_def_cfa_offset 16
 133              		.loc 1 35 0
 134 0006 1A68     		ldr	r2, [r3]
 135              	.LVL14:
 136 0008 0192     		str	r2, [sp, #4]
 137              		.loc 1 42 0
 138 000a 019A     		ldr	r2, [sp, #4]
 139 000c 1B68     		ldr	r3, [r3]
 140 000e 9A42     		cmp	r2, r3
 141 0010 03D1     		bne	.L18
 142 0012 0020     		movs	r0, #0
 143              	.LVL15:
 144 0014 03B0     		add	sp, sp, #12
 145              		.cfi_remember_state
 146              		.cfi_def_cfa_offset 4
 147              		@ sp needed
 148 0016 5DF804FB 		ldr	pc, [sp], #4
 149              	.LVL16:
 150              	.L18:
 151              		.cfi_restore_state
 152 001a FFF7FEFF 		bl	__stack_chk_fail
 153              	.LVL17:
 154              	.L20:
 155 001e 00BF     		.align	2
 156              	.L19:
 157 0020 00000000 		.word	__stack_chk_guard
 158              		.cfi_endproc
 159              	.LFE257:
 160              		.size	_lseek_r, .-_lseek_r
 161              		.section	.text._write_r,"ax",%progbits
 162              		.align	1
 163              		.p2align 4,,15
 164              		.global	_write_r
 165              		.syntax unified
 166              		.thumb
 167              		.thumb_func
 168              		.fpu fpv4-sp-d16
 169              		.type	_write_r, %function
 170              	_write_r:
 171              	.LFB258:
ARM GAS  C:\Users\shadi\AppData\Local\Temp\cchAJo7Z.s 			page 4


 172              		.loc 1 45 0
 173              		.cfi_startproc
 174              		@ args = 0, pretend = 0, frame = 8
 175              		@ frame_needed = 0, uses_anonymous_args = 0
 176              	.LVL18:
 177 0000 30B5     		push	{r4, r5, lr}
 178              		.cfi_def_cfa_offset 12
 179              		.cfi_offset 4, -12
 180              		.cfi_offset 5, -8
 181              		.cfi_offset 14, -4
 182 0002 0D4D     		ldr	r5, .L28
 183 0004 83B0     		sub	sp, sp, #12
 184              		.cfi_def_cfa_offset 24
 185              		.loc 1 45 0
 186 0006 2C68     		ldr	r4, [r5]
 187 0008 0194     		str	r4, [sp, #4]
 188              		.loc 1 50 0
 189 000a 0129     		cmp	r1, #1
 190 000c 0DD1     		bne	.L26
 191              		.loc 1 54 0
 192 000e 0B48     		ldr	r0, .L28+4
 193              	.LVL19:
 194 0010 1C46     		mov	r4, r3
 195 0012 0368     		ldr	r3, [r0]
 196              	.LVL20:
 197 0014 1146     		mov	r1, r2
 198              	.LVL21:
 199 0016 1B68     		ldr	r3, [r3]
 200 0018 2246     		mov	r2, r4
 201              	.LVL22:
 202 001a 9847     		blx	r3
 203              	.LVL23:
 204              		.loc 1 56 0
 205 001c 2046     		mov	r0, r4
 206              	.LVL24:
 207              	.L21:
 208              		.loc 1 57 0
 209 001e 019A     		ldr	r2, [sp, #4]
 210 0020 2B68     		ldr	r3, [r5]
 211 0022 9A42     		cmp	r2, r3
 212 0024 06D1     		bne	.L27
 213 0026 03B0     		add	sp, sp, #12
 214              		.cfi_remember_state
 215              		.cfi_def_cfa_offset 12
 216              		@ sp needed
 217 0028 30BD     		pop	{r4, r5, pc}
 218              	.LVL25:
 219              	.L26:
 220              		.cfi_restore_state
 221              		.loc 1 51 0
 222 002a 1623     		movs	r3, #22
 223              	.LVL26:
 224 002c 0360     		str	r3, [r0]
 225              		.loc 1 52 0
 226 002e 4FF0FF30 		mov	r0, #-1
 227              	.LVL27:
 228 0032 F4E7     		b	.L21
ARM GAS  C:\Users\shadi\AppData\Local\Temp\cchAJo7Z.s 			page 5


 229              	.LVL28:
 230              	.L27:
 231              		.loc 1 57 0
 232 0034 FFF7FEFF 		bl	__stack_chk_fail
 233              	.LVL29:
 234              	.L29:
 235              		.align	2
 236              	.L28:
 237 0038 00000000 		.word	__stack_chk_guard
 238 003c 00000000 		.word	SDU1
 239              		.cfi_endproc
 240              	.LFE258:
 241              		.size	_write_r, .-_write_r
 242              		.section	.text._close_r,"ax",%progbits
 243              		.align	1
 244              		.p2align 4,,15
 245              		.global	_close_r
 246              		.syntax unified
 247              		.thumb
 248              		.thumb_func
 249              		.fpu fpv4-sp-d16
 250              		.type	_close_r, %function
 251              	_close_r:
 252              	.LFB259:
 253              		.loc 1 60 0
 254              		.cfi_startproc
 255              		@ args = 0, pretend = 0, frame = 8
 256              		@ frame_needed = 0, uses_anonymous_args = 0
 257              	.LVL30:
 258 0000 00B5     		push	{lr}
 259              		.cfi_def_cfa_offset 4
 260              		.cfi_offset 14, -4
 261 0002 074B     		ldr	r3, .L34
 262 0004 83B0     		sub	sp, sp, #12
 263              		.cfi_def_cfa_offset 16
 264              		.loc 1 60 0
 265 0006 1A68     		ldr	r2, [r3]
 266 0008 0192     		str	r2, [sp, #4]
 267              		.loc 1 65 0
 268 000a 019A     		ldr	r2, [sp, #4]
 269 000c 1B68     		ldr	r3, [r3]
 270 000e 9A42     		cmp	r2, r3
 271 0010 03D1     		bne	.L33
 272 0012 0020     		movs	r0, #0
 273              	.LVL31:
 274 0014 03B0     		add	sp, sp, #12
 275              		.cfi_remember_state
 276              		.cfi_def_cfa_offset 4
 277              		@ sp needed
 278 0016 5DF804FB 		ldr	pc, [sp], #4
 279              	.LVL32:
 280              	.L33:
 281              		.cfi_restore_state
 282 001a FFF7FEFF 		bl	__stack_chk_fail
 283              	.LVL33:
 284              	.L35:
 285 001e 00BF     		.align	2
ARM GAS  C:\Users\shadi\AppData\Local\Temp\cchAJo7Z.s 			page 6


 286              	.L34:
 287 0020 00000000 		.word	__stack_chk_guard
 288              		.cfi_endproc
 289              	.LFE259:
 290              		.size	_close_r, .-_close_r
 291              		.section	.text._sbrk_r,"ax",%progbits
 292              		.align	1
 293              		.p2align 4,,15
 294              		.global	_sbrk_r
 295              		.syntax unified
 296              		.thumb
 297              		.thumb_func
 298              		.fpu fpv4-sp-d16
 299              		.type	_sbrk_r, %function
 300              	_sbrk_r:
 301              	.LFB260:
 302              		.loc 1 68 0
 303              		.cfi_startproc
 304              		@ args = 0, pretend = 0, frame = 8
 305              		@ frame_needed = 0, uses_anonymous_args = 0
 306              	.LVL34:
 307 0000 70B5     		push	{r4, r5, r6, lr}
 308              		.cfi_def_cfa_offset 16
 309              		.cfi_offset 4, -16
 310              		.cfi_offset 5, -12
 311              		.cfi_offset 6, -8
 312              		.cfi_offset 14, -4
 313 0002 0D4C     		ldr	r4, .L43
 314 0004 82B0     		sub	sp, sp, #8
 315              		.cfi_def_cfa_offset 24
 316              		.loc 1 68 0
 317 0006 2368     		ldr	r3, [r4]
 318 0008 0193     		str	r3, [sp, #4]
 319              		.loc 1 72 0
 320 000a 0D1E     		subs	r5, r1, #0
 321              		.loc 1 68 0
 322 000c 0646     		mov	r6, r0
 323              		.loc 1 72 0
 324 000e 0DDD     		ble	.L41
 325              	.LVL35:
 326              	.L37:
 327              		.loc 1 74 0
 328 0010 2846     		mov	r0, r5
 329 0012 FFF7FEFF 		bl	chCoreAlloc
 330              	.LVL36:
 331              		.loc 1 75 0
 332 0016 18B9     		cbnz	r0, .L36
 333              		.loc 1 76 0
 334 0018 0C23     		movs	r3, #12
 335 001a 3360     		str	r3, [r6]
 336              		.loc 1 77 0
 337 001c 4FF0FF30 		mov	r0, #-1
 338              	.LVL37:
 339              	.L36:
 340              		.loc 1 85 0
 341 0020 019A     		ldr	r2, [sp, #4]
 342 0022 2368     		ldr	r3, [r4]
ARM GAS  C:\Users\shadi\AppData\Local\Temp\cchAJo7Z.s 			page 7


 343 0024 9A42     		cmp	r2, r3
 344 0026 05D1     		bne	.L42
 345 0028 02B0     		add	sp, sp, #8
 346              		.cfi_remember_state
 347              		.cfi_def_cfa_offset 16
 348              		@ sp needed
 349 002a 70BD     		pop	{r4, r5, r6, pc}
 350              	.LVL38:
 351              	.L41:
 352              		.cfi_restore_state
 353              		.loc 1 72 0 discriminator 2
 354 002c 0348     		ldr	r0, .L43+4
 355              	.LVL39:
 356 002e FFF7FEFF 		bl	chSysHalt
 357              	.LVL40:
 358 0032 EDE7     		b	.L37
 359              	.L42:
 360              		.loc 1 85 0
 361 0034 FFF7FEFF 		bl	__stack_chk_fail
 362              	.LVL41:
 363              	.L44:
 364              		.align	2
 365              	.L43:
 366 0038 00000000 		.word	__stack_chk_guard
 367 003c 00000000 		.word	.LANCHOR0
 368              		.cfi_endproc
 369              	.LFE260:
 370              		.size	_sbrk_r, .-_sbrk_r
 371              		.section	.text._fstat_r,"ax",%progbits
 372              		.align	1
 373              		.p2align 4,,15
 374              		.global	_fstat_r
 375              		.syntax unified
 376              		.thumb
 377              		.thumb_func
 378              		.fpu fpv4-sp-d16
 379              		.type	_fstat_r, %function
 380              	_fstat_r:
 381              	.LFB261:
 382              		.loc 1 88 0
 383              		.cfi_startproc
 384              		@ args = 0, pretend = 0, frame = 8
 385              		@ frame_needed = 0, uses_anonymous_args = 0
 386              	.LVL42:
 387 0000 10B5     		push	{r4, lr}
 388              		.cfi_def_cfa_offset 8
 389              		.cfi_offset 4, -8
 390              		.cfi_offset 14, -4
 391 0002 0B4C     		ldr	r4, .L49
 392 0004 82B0     		sub	sp, sp, #8
 393              		.cfi_def_cfa_offset 16
 394              		.loc 1 88 0
 395 0006 1346     		mov	r3, r2
 396 0008 2268     		ldr	r2, [r4]
 397              	.LVL43:
 398 000a 0192     		str	r2, [sp, #4]
 399              		.loc 1 92 0
ARM GAS  C:\Users\shadi\AppData\Local\Temp\cchAJo7Z.s 			page 8


 400 000c 1846     		mov	r0, r3
 401              	.LVL44:
 402 000e 5822     		movs	r2, #88
 403 0010 0021     		movs	r1, #0
 404              	.LVL45:
 405 0012 FFF7FEFF 		bl	memset
 406              	.LVL46:
 407              		.loc 1 95 0
 408 0016 0199     		ldr	r1, [sp, #4]
 409 0018 2268     		ldr	r2, [r4]
 410              		.loc 1 92 0
 411 001a 0346     		mov	r3, r0
 412              		.loc 1 95 0
 413 001c 9142     		cmp	r1, r2
 414              		.loc 1 93 0
 415 001e 4FF40050 		mov	r0, #8192
 416 0022 5860     		str	r0, [r3, #4]
 417              		.loc 1 95 0
 418 0024 02D1     		bne	.L48
 419 0026 0020     		movs	r0, #0
 420 0028 02B0     		add	sp, sp, #8
 421              		.cfi_remember_state
 422              		.cfi_def_cfa_offset 8
 423              		@ sp needed
 424 002a 10BD     		pop	{r4, pc}
 425              	.L48:
 426              		.cfi_restore_state
 427 002c FFF7FEFF 		bl	__stack_chk_fail
 428              	.LVL47:
 429              	.L50:
 430              		.align	2
 431              	.L49:
 432 0030 00000000 		.word	__stack_chk_guard
 433              		.cfi_endproc
 434              	.LFE261:
 435              		.size	_fstat_r, .-_fstat_r
 436              		.section	.text._isatty_r,"ax",%progbits
 437              		.align	1
 438              		.p2align 4,,15
 439              		.global	_isatty_r
 440              		.syntax unified
 441              		.thumb
 442              		.thumb_func
 443              		.fpu fpv4-sp-d16
 444              		.type	_isatty_r, %function
 445              	_isatty_r:
 446              	.LFB262:
 447              		.loc 1 98 0
 448              		.cfi_startproc
 449              		@ args = 0, pretend = 0, frame = 8
 450              		@ frame_needed = 0, uses_anonymous_args = 0
 451              	.LVL48:
 452 0000 00B5     		push	{lr}
 453              		.cfi_def_cfa_offset 4
 454              		.cfi_offset 14, -4
 455 0002 074B     		ldr	r3, .L55
 456 0004 83B0     		sub	sp, sp, #12
ARM GAS  C:\Users\shadi\AppData\Local\Temp\cchAJo7Z.s 			page 9


 457              		.cfi_def_cfa_offset 16
 458              		.loc 1 98 0
 459 0006 1A68     		ldr	r2, [r3]
 460 0008 0192     		str	r2, [sp, #4]
 461              		.loc 1 103 0
 462 000a 019A     		ldr	r2, [sp, #4]
 463 000c 1B68     		ldr	r3, [r3]
 464 000e 9A42     		cmp	r2, r3
 465 0010 03D1     		bne	.L54
 466 0012 0120     		movs	r0, #1
 467              	.LVL49:
 468 0014 03B0     		add	sp, sp, #12
 469              		.cfi_remember_state
 470              		.cfi_def_cfa_offset 4
 471              		@ sp needed
 472 0016 5DF804FB 		ldr	pc, [sp], #4
 473              	.LVL50:
 474              	.L54:
 475              		.cfi_restore_state
 476 001a FFF7FEFF 		bl	__stack_chk_fail
 477              	.LVL51:
 478              	.L56:
 479 001e 00BF     		.align	2
 480              	.L55:
 481 0020 00000000 		.word	__stack_chk_guard
 482              		.cfi_endproc
 483              	.LFE262:
 484              		.size	_isatty_r, .-_isatty_r
 485              		.section	.text._fini,"ax",%progbits
 486              		.align	1
 487              		.p2align 4,,15
 488              		.global	_fini
 489              		.syntax unified
 490              		.thumb
 491              		.thumb_func
 492              		.fpu fpv4-sp-d16
 493              		.type	_fini, %function
 494              	_fini:
 495              	.LFB263:
 496              		.loc 1 107 0
 497              		.cfi_startproc
 498              		@ args = 0, pretend = 0, frame = 8
 499              		@ frame_needed = 0, uses_anonymous_args = 0
 500 0000 00B5     		push	{lr}
 501              		.cfi_def_cfa_offset 4
 502              		.cfi_offset 14, -4
 503 0002 064B     		ldr	r3, .L61
 504 0004 83B0     		sub	sp, sp, #12
 505              		.cfi_def_cfa_offset 16
 506              		.loc 1 107 0
 507 0006 1A68     		ldr	r2, [r3]
 508 0008 0192     		str	r2, [sp, #4]
 509              		.loc 1 109 0
 510 000a 019A     		ldr	r2, [sp, #4]
 511 000c 1B68     		ldr	r3, [r3]
 512 000e 9A42     		cmp	r2, r3
 513 0010 02D1     		bne	.L60
ARM GAS  C:\Users\shadi\AppData\Local\Temp\cchAJo7Z.s 			page 10


 514 0012 03B0     		add	sp, sp, #12
 515              		.cfi_remember_state
 516              		.cfi_def_cfa_offset 4
 517              		@ sp needed
 518 0014 5DF804FB 		ldr	pc, [sp], #4
 519              	.L60:
 520              		.cfi_restore_state
 521 0018 FFF7FEFF 		bl	__stack_chk_fail
 522              	.LVL52:
 523              	.L62:
 524              		.align	2
 525              	.L61:
 526 001c 00000000 		.word	__stack_chk_guard
 527              		.cfi_endproc
 528              	.LFE263:
 529              		.size	_fini, .-_fini
 530              		.section	.rodata.__func__.10923,"a",%progbits
 531              		.align	2
 532              		.set	.LANCHOR0,. + 0
 533              		.type	__func__.10923, %object
 534              		.size	__func__.10923, 8
 535              	__func__.10923:
 536 0000 5F736272 		.ascii	"_sbrk_r\000"
 536      6B5F7200 
 537              		.text
 538              	.Letext0:
 539              		.file 2 "c:\\users\\shadi\\downloads\\eclipse_e-puck2\\tools\\gcc-arm-none-eabi-7-2017-q4-major-wi
 540              		.file 3 "c:\\users\\shadi\\downloads\\eclipse_e-puck2\\tools\\gcc-arm-none-eabi-7-2017-q4-major-wi
 541              		.file 4 "c:\\users\\shadi\\downloads\\eclipse_e-puck2\\tools\\gcc-arm-none-eabi-7-2017-q4-major-wi
 542              		.file 5 "c:\\users\\shadi\\downloads\\eclipse_e-puck2\\tools\\gcc-arm-none-eabi-7-2017-q4-major-wi
 543              		.file 6 "c:\\users\\shadi\\downloads\\eclipse_e-puck2\\tools\\gcc-arm-none-eabi-7-2017-q4-major-wi
 544              		.file 7 "c:\\users\\shadi\\downloads\\eclipse_e-puck2\\tools\\gcc-arm-none-eabi-7-2017-q4-major-wi
 545              		.file 8 "c:\\users\\shadi\\downloads\\eclipse_e-puck2\\tools\\gcc-arm-none-eabi-7-2017-q4-major-wi
 546              		.file 9 "c:\\users\\shadi\\downloads\\eclipse_e-puck2\\tools\\gcc-arm-none-eabi-7-2017-q4-major-wi
 547              		.file 10 "c:\\users\\shadi\\downloads\\eclipse_e-puck2\\tools\\gcc-arm-none-eabi-7-2017-q4-major-w
 548              		.file 11 "c:\\users\\shadi\\downloads\\eclipse_e-puck2\\tools\\gcc-arm-none-eabi-7-2017-q4-major-w
 549              		.file 12 "c:\\users\\shadi\\downloads\\eclipse_e-puck2\\tools\\gcc-arm-none-eabi-7-2017-q4-major-w
 550              		.file 13 "c:\\users\\shadi\\downloads\\eclipse_e-puck2\\tools\\gcc-arm-none-eabi-7-2017-q4-major-w
 551              		.file 14 "../../lib/e-puck2_main-processor/ChibiOS//os/rt/ports/ARMCMx/compilers/GCC/chtypes.h"
 552              		.file 15 "../../lib/e-puck2_main-processor/ChibiOS//os/rt/include/chsystypes.h"
 553              		.file 16 "../../lib/e-puck2_main-processor/ChibiOS//os/rt/include/chschd.h"
 554              		.file 17 "../../lib/e-puck2_main-processor/ChibiOS//os/ext/CMSIS/include/core_cm4.h"
 555              		.file 18 "../../lib/e-puck2_main-processor/ChibiOS//os/ext/CMSIS/ST/system_stm32f4xx.h"
 556              		.file 19 "../../lib/e-puck2_main-processor/ChibiOS//os/ext/CMSIS/ST/stm32f407xx.h"
 557              		.file 20 "../../lib/e-puck2_main-processor/ChibiOS//os/rt/ports/ARMCMx/chcore.h"
 558              		.file 21 "../../lib/e-puck2_main-processor/ChibiOS//os/rt/ports/ARMCMx/chcore_v7m.h"
 559              		.file 22 "../../lib/e-puck2_main-processor/ChibiOS//os/rt/include/chdebug.h"
 560              		.file 23 "../../lib/e-puck2_main-processor/ChibiOS//os/rt/include/chtm.h"
 561              		.file 24 "../../lib/e-puck2_main-processor/ChibiOS//os/rt/include/chstats.h"
 562              		.file 25 "../../lib/e-puck2_main-processor/ChibiOS//os/rt/include/chsem.h"
 563              		.file 26 "../../lib/e-puck2_main-processor/ChibiOS//os/rt/include/chmtx.h"
 564              		.file 27 "../../lib/e-puck2_main-processor/ChibiOS//os/rt/include/chregistry.h"
 565              		.file 28 "../../lib/e-puck2_main-processor/ChibiOS//os/rt/include/chevents.h"
 566              		.file 29 "../../lib/e-puck2_main-processor/ChibiOS//os/rt/include/chqueues.h"
 567              		.file 30 "../../lib/e-puck2_main-processor/ChibiOS//os/rt/include/chstreams.h"
 568              		.file 31 "../../lib/e-puck2_main-processor/ChibiOS//os/hal/ports/STM32/STM32F4xx/stm32_dma.h"
 569              		.file 32 "../../lib/e-puck2_main-processor/ChibiOS//os/hal/include/hal_ioblock.h"
ARM GAS  C:\Users\shadi\AppData\Local\Temp\cchAJo7Z.s 			page 11


 570              		.file 33 "../../lib/e-puck2_main-processor/ChibiOS//os/hal/ports/STM32/LLD/GPIOv2/pal_lld.h"
 571              		.file 34 "../../lib/e-puck2_main-processor/ChibiOS//os/hal/include/adc.h"
 572              		.file 35 "../../lib/e-puck2_main-processor/ChibiOS//os/hal/ports/STM32/STM32F4xx/adc_lld.h"
 573              		.file 36 "../../lib/e-puck2_main-processor/ChibiOS//os/hal/include/can.h"
 574              		.file 37 "../../lib/e-puck2_main-processor/ChibiOS//os/hal/ports/STM32/LLD/can_lld.h"
 575              		.file 38 "../../lib/e-puck2_main-processor/ChibiOS//os/hal/include/dac.h"
 576              		.file 39 "../../lib/e-puck2_main-processor/ChibiOS//os/hal/ports/STM32/LLD/DACv1/dac_lld.h"
 577              		.file 40 "../../lib/e-puck2_main-processor/ChibiOS//os/hal/include/ext.h"
 578              		.file 41 "../../lib/e-puck2_main-processor/ChibiOS//os/hal/ports/STM32/LLD/ext_lld.h"
 579              		.file 42 "../../lib/e-puck2_main-processor/ChibiOS//os/hal/include/gpt.h"
 580              		.file 43 "../../lib/e-puck2_main-processor/ChibiOS//os/hal/ports/STM32/LLD/TIMv1/gpt_lld.h"
 581              		.file 44 "../../lib/e-puck2_main-processor/ChibiOS//os/hal/ports/STM32/LLD/TIMv1/stm32_tim.h"
 582              		.file 45 "../../lib/e-puck2_main-processor/ChibiOS//os/hal/include/i2c.h"
 583              		.file 46 "../../lib/e-puck2_main-processor/ChibiOS//os/hal/ports/STM32/LLD/I2Cv1/i2c_lld.h"
 584              		.file 47 "../../lib/e-puck2_main-processor/ChibiOS//os/hal/include/i2s.h"
 585              		.file 48 "../../lib/e-puck2_main-processor/ChibiOS//os/hal/ports/STM32/LLD/SPIv1/i2s_lld.h"
 586              		.file 49 "../../lib/e-puck2_main-processor/ChibiOS//os/hal/include/pwm.h"
 587              		.file 50 "../../lib/e-puck2_main-processor/ChibiOS//os/hal/ports/STM32/LLD/TIMv1/pwm_lld.h"
 588              		.file 51 "../../lib/e-puck2_main-processor/ChibiOS//os/hal/include/serial.h"
 589              		.file 52 "../../lib/e-puck2_main-processor/ChibiOS//os/hal/ports/STM32/LLD/USARTv1/serial_lld.h"
 590              		.file 53 "../../lib/e-puck2_main-processor/ChibiOS//os/hal/include/sdc.h"
 591              		.file 54 "../../lib/e-puck2_main-processor/ChibiOS//os/hal/ports/STM32/LLD/sdc_lld.h"
 592              		.file 55 "../../lib/e-puck2_main-processor/ChibiOS//os/hal/include/spi.h"
 593              		.file 56 "../../lib/e-puck2_main-processor/ChibiOS//os/hal/ports/STM32/LLD/SPIv1/spi_lld.h"
 594              		.file 57 "../../lib/e-puck2_main-processor/ChibiOS//os/hal/include/usb.h"
 595              		.file 58 "../../lib/e-puck2_main-processor/ChibiOS//os/hal/ports/STM32/LLD/OTGv1/usb_lld.h"
 596              		.file 59 "../../lib/e-puck2_main-processor/ChibiOS//os/hal/ports/STM32/LLD/OTGv1/stm32_otg.h"
 597              		.file 60 "../../lib/e-puck2_main-processor/ChibiOS//os/rt/include/chmemcore.h"
 598              		.file 61 "../../lib/e-puck2_main-processor/ChibiOS//os/rt/include/chsys.h"
 599              		.file 62 "<built-in>"