ARM GAS  C:\Users\shadi\AppData\Local\Temp\ccfnrSaH.s 			page 1


   1              		.cpu cortex-m4
   2              		.eabi_attribute 27, 1
   3              		.eabi_attribute 28, 1
   4              		.eabi_attribute 20, 1
   5              		.eabi_attribute 21, 1
   6              		.eabi_attribute 23, 3
   7              		.eabi_attribute 24, 1
   8              		.eabi_attribute 25, 1
   9              		.eabi_attribute 26, 1
  10              		.eabi_attribute 30, 2
  11              		.eabi_attribute 34, 1
  12              		.eabi_attribute 18, 4
  13              		.file	"play_sound_file.c"
  14              		.text
  15              	.Ltext0:
  16              		.cfi_sections	.debug_frame
  17              		.section	.text.end_cb,"ax",%progbits
  18              		.align	1
  19              		.p2align 4,,15
  20              		.syntax unified
  21              		.thumb
  22              		.thumb_func
  23              		.fpu fpv4-sp-d16
  24              		.type	end_cb, %function
  25              	end_cb:
  26              	.LFB257:
  27              		.file 1 "../../lib/e-puck2_main-processor/src/audio/play_sound_file.c"
  28              		.loc 1 54 0
  29              		.cfi_startproc
  30              		@ args = 0, pretend = 0, frame = 8
  31              		@ frame_needed = 0, uses_anonymous_args = 0
  32              	.LVL0:
  33 0000 70B5     		push	{r4, r5, r6, lr}
  34              		.cfi_def_cfa_offset 16
  35              		.cfi_offset 4, -16
  36              		.cfi_offset 5, -12
  37              		.cfi_offset 6, -8
  38              		.cfi_offset 14, -4
  39              		.loc 1 62 0
  40 0002 244B     		ldr	r3, .L19
  41              		.loc 1 54 0
  42 0004 244C     		ldr	r4, .L19+4
  43 0006 82B0     		sub	sp, sp, #8
  44              		.cfi_def_cfa_offset 24
  45              		.loc 1 54 0
  46 0008 2268     		ldr	r2, [r4]
  47              	.LVL1:
  48 000a 0192     		str	r2, [sp, #4]
  49              		.loc 1 62 0
  50 000c 9942     		cmp	r1, r3
  51 000e 2DD0     		beq	.L1
  52              		.loc 1 62 0 is_stmt 0 discriminator 1
  53 0010 224A     		ldr	r2, .L19+8
  54 0012 9142     		cmp	r1, r2
  55 0014 2AD0     		beq	.L1
  56              	.LVL2:
  57              	.LBB89:
ARM GAS  C:\Users\shadi\AppData\Local\Temp\ccfnrSaH.s 			page 2


  58              	.LBB90:
  59              		.loc 1 67 0 is_stmt 1
  60 0016 224D     		ldr	r5, .L19+12
  61 0018 2968     		ldr	r1, [r5]
  62              	.LVL3:
  63              		.loc 1 68 0
  64 001a 9942     		cmp	r1, r3
  65 001c 08BF     		it	eq
  66 001e 1346     		moveq	r3, r2
  67 0020 2B60     		str	r3, [r5]
  68              	.LVL4:
  69              	.LBB91:
  70              	.LBB92:
  71              	.LBB93:
  72              	.LBB94:
  73              	.LBB95:
  74              	.LBB96:
  75              		.file 2 "../../lib/e-puck2_main-processor/ChibiOS//os/ext/CMSIS/include/core_cmFunc.h"
  76              		.loc 2 546 0
  77 0022 2023     		movs	r3, #32
  78              		.syntax unified
  79              	@ 546 "../../lib/e-puck2_main-processor/ChibiOS//os/ext/CMSIS/include/core_cmFunc.h" 1
  80 0024 83F31188 		MSR basepri, r3
  81              	@ 0 "" 2
  82              	.LVL5:
  83              		.thumb
  84              		.syntax unified
  85              	.LBE96:
  86              	.LBE95:
  87              	.LBE94:
  88              	.LBE93:
  89              	.LBE92:
  90              	.LBE91:
  91              		.loc 1 75 0
  92 0028 1E4E     		ldr	r6, .L19+16
  93              	.LBB98:
  94              	.LBB97:
  95              		.file 3 "../../lib/e-puck2_main-processor/ChibiOS//os/rt/include/chsys.h"
  96              		.loc 3 389 0
  97 002a FFF7FEFF 		bl	_stats_start_measure_crit_isr
  98              	.LVL6:
  99              		.loc 3 390 0
 100 002e FFF7FEFF 		bl	_dbg_check_lock_from_isr
 101              	.LVL7:
 102              	.LBE97:
 103              	.LBE98:
 104              		.loc 1 75 0
 105 0032 3168     		ldr	r1, [r6]
 106 0034 01B3     		cbz	r1, .L5
 107              		.loc 1 78 0
 108 0036 0129     		cmp	r1, #1
 109 0038 24D9     		bls	.L10
 110 003a CB07     		lsls	r3, r1, #31
 111 003c 1FD4     		bmi	.L16
 112              	.L6:
 113              		.loc 1 81 0
 114 003e 2868     		ldr	r0, [r5]
ARM GAS  C:\Users\shadi\AppData\Local\Temp\ccfnrSaH.s 			page 3


 115 0040 4AF64442 		movw	r2, #44100
 116 0044 FFF7FEFF 		bl	dac_change_bufferI
 117              	.LVL8:
 118              		.loc 1 84 0
 119 0048 3368     		ldr	r3, [r6]
 120 004a FF2B     		cmp	r3, #255
 121              		.loc 1 85 0
 122 004c 9CBF     		itt	ls
 123 004e 0023     		movls	r3, #0
 124 0050 3360     		strls	r3, [r6]
 125              	.LVL9:
 126              	.LBB99:
 127              	.LBB100:
 128              		.file 4 "../../lib/e-puck2_main-processor/ChibiOS//os/rt/include/chbsem.h"
 129              		.loc 4 268 0
 130 0052 FFF7FEFF 		bl	chDbgCheckClassI
 131              	.LVL10:
 132              		.loc 4 270 0
 133 0056 1448     		ldr	r0, .L19+20
 134 0058 8368     		ldr	r3, [r0, #8]
 135 005a 002B     		cmp	r3, #0
 136 005c 14DD     		ble	.L17
 137              	.LVL11:
 138              	.L8:
 139              	.LBE100:
 140              	.LBE99:
 141              	.LBB102:
 142              	.LBB103:
 143              		.loc 3 408 0
 144 005e FFF7FEFF 		bl	_dbg_check_unlock_from_isr
 145              	.LVL12:
 146              		.loc 3 409 0
 147 0062 FFF7FEFF 		bl	_stats_stop_measure_crit_isr
 148              	.LVL13:
 149              	.LBB104:
 150              	.LBB105:
 151              	.LBB106:
 152              	.LBB107:
 153              		.loc 2 546 0
 154 0066 0023     		movs	r3, #0
 155              		.syntax unified
 156              	@ 546 "../../lib/e-puck2_main-processor/ChibiOS//os/ext/CMSIS/include/core_cmFunc.h" 1
 157 0068 83F31188 		MSR basepri, r3
 158              	@ 0 "" 2
 159              	.LVL14:
 160              		.thumb
 161              		.syntax unified
 162              	.L1:
 163              	.LBE107:
 164              	.LBE106:
 165              	.LBE105:
 166              	.LBE104:
 167              	.LBE103:
 168              	.LBE102:
 169              	.LBE90:
 170              	.LBE89:
 171              		.loc 1 93 0
ARM GAS  C:\Users\shadi\AppData\Local\Temp\ccfnrSaH.s 			page 4


 172 006c 019A     		ldr	r2, [sp, #4]
 173 006e 2368     		ldr	r3, [r4]
 174 0070 9A42     		cmp	r2, r3
 175 0072 0CD1     		bne	.L18
 176 0074 02B0     		add	sp, sp, #8
 177              		.cfi_remember_state
 178              		.cfi_def_cfa_offset 16
 179              		@ sp needed
 180 0076 70BD     		pop	{r4, r5, r6, pc}
 181              	.LVL15:
 182              	.L5:
 183              		.cfi_restore_state
 184              	.LBB110:
 185              	.LBB109:
 186              		.loc 1 90 0
 187 0078 FFF7FEFF 		bl	dac_stopI
 188              	.LVL16:
 189 007c EFE7     		b	.L8
 190              	.L16:
 191              		.loc 1 79 0
 192 007e 0139     		subs	r1, r1, #1
 193 0080 3160     		str	r1, [r6]
 194 0082 DCE7     		b	.L6
 195              	.L10:
 196              		.loc 1 78 0
 197 0084 0121     		movs	r1, #1
 198 0086 DAE7     		b	.L6
 199              	.LVL17:
 200              	.L17:
 201              	.LBB108:
 202              	.LBB101:
 203              		.loc 4 271 0
 204 0088 FFF7FEFF 		bl	chSemSignalI
 205              	.LVL18:
 206 008c E7E7     		b	.L8
 207              	.LVL19:
 208              	.L18:
 209              	.LBE101:
 210              	.LBE108:
 211              	.LBE109:
 212              	.LBE110:
 213              		.loc 1 93 0
 214 008e FFF7FEFF 		bl	__stack_chk_fail
 215              	.LVL20:
 216              	.L20:
 217 0092 00BF     		.align	2
 218              	.L19:
 219 0094 00000000 		.word	.LANCHOR0
 220 0098 00000000 		.word	__stack_chk_guard
 221 009c 00000000 		.word	.LANCHOR1
 222 00a0 00000000 		.word	.LANCHOR2
 223 00a4 00000000 		.word	.LANCHOR3
 224 00a8 00000000 		.word	.LANCHOR4
 225              		.cfi_endproc
 226              	.LFE257:
 227              		.size	end_cb, .-end_cb
 228              		.section	.text.waitSoundFileHasFinished.part.1,"ax",%progbits
ARM GAS  C:\Users\shadi\AppData\Local\Temp\ccfnrSaH.s 			page 5


 229              		.align	1
 230              		.p2align 4,,15
 231              		.syntax unified
 232              		.thumb
 233              		.thumb_func
 234              		.fpu fpv4-sp-d16
 235              		.type	waitSoundFileHasFinished.part.1, %function
 236              	waitSoundFileHasFinished.part.1:
 237              	.LFB266:
 238              		.loc 1 251 0
 239              		.cfi_startproc
 240              		@ args = 0, pretend = 0, frame = 8
 241              		@ frame_needed = 0, uses_anonymous_args = 0
 242 0000 10B5     		push	{r4, lr}
 243              		.cfi_def_cfa_offset 8
 244              		.cfi_offset 4, -8
 245              		.cfi_offset 14, -4
 246 0002 0B4C     		ldr	r4, .L26
 247              		.loc 1 255 0
 248 0004 0B48     		ldr	r0, .L26+4
 249              		.loc 1 251 0
 250 0006 2368     		ldr	r3, [r4]
 251 0008 82B0     		sub	sp, sp, #8
 252              		.cfi_def_cfa_offset 16
 253              		.loc 1 251 0
 254 000a 0193     		str	r3, [sp, #4]
 255              		.loc 1 255 0
 256 000c FFF7FEFF 		bl	chMtxLock
 257              	.LVL21:
 258              		.loc 1 256 0
 259 0010 0948     		ldr	r0, .L26+8
 260 0012 FFF7FEFF 		bl	chCondWait
 261              	.LVL22:
 262              		.loc 1 257 0
 263 0016 019A     		ldr	r2, [sp, #4]
 264 0018 2368     		ldr	r3, [r4]
 265 001a 9A42     		cmp	r2, r3
 266 001c 05D1     		bne	.L25
 267 001e 0548     		ldr	r0, .L26+4
 268              		.loc 1 259 0
 269 0020 02B0     		add	sp, sp, #8
 270              		.cfi_remember_state
 271              		.cfi_def_cfa_offset 8
 272              		@ sp needed
 273 0022 BDE81040 		pop	{r4, lr}
 274              		.cfi_restore 14
 275              		.cfi_restore 4
 276              		.cfi_def_cfa_offset 0
 277              		.loc 1 257 0
 278 0026 FFF7FEBF 		b	chMtxUnlock
 279              	.LVL23:
 280              	.L25:
 281              		.cfi_restore_state
 282 002a FFF7FEFF 		bl	__stack_chk_fail
 283              	.LVL24:
 284              	.L27:
 285 002e 00BF     		.align	2
ARM GAS  C:\Users\shadi\AppData\Local\Temp\ccfnrSaH.s 			page 6


 286              	.L26:
 287 0030 00000000 		.word	__stack_chk_guard
 288 0034 00000000 		.word	.LANCHOR5
 289 0038 00000000 		.word	.LANCHOR6
 290              		.cfi_endproc
 291              	.LFE266:
 292              		.size	waitSoundFileHasFinished.part.1, .-waitSoundFileHasFinished.part.1
 293              		.section	.text.playWAVFile,"ax",%progbits
 294              		.align	1
 295              		.p2align 4,,15
 296              		.global	playWAVFile
 297              		.syntax unified
 298              		.thumb
 299              		.thumb_func
 300              		.fpu fpv4-sp-d16
 301              		.type	playWAVFile, %function
 302              	playWAVFile:
 303              	.LFB258:
 304              		.loc 1 101 0
 305              		.cfi_startproc
 306              		@ args = 0, pretend = 0, frame = 560
 307              		@ frame_needed = 0, uses_anonymous_args = 0
 308              	.LVL25:
 309 0000 2DE9F04F 		push	{r4, r5, r6, r7, r8, r9, r10, fp, lr}
 310              		.cfi_def_cfa_offset 36
 311              		.cfi_offset 4, -36
 312              		.cfi_offset 5, -32
 313              		.cfi_offset 6, -28
 314              		.cfi_offset 7, -24
 315              		.cfi_offset 8, -20
 316              		.cfi_offset 9, -16
 317              		.cfi_offset 10, -12
 318              		.cfi_offset 11, -8
 319              		.cfi_offset 14, -4
 320 0004 3C4E     		ldr	r6, .L53
 321 0006 ADF50D7D 		sub	sp, sp, #564
 322              		.cfi_def_cfa_offset 600
 323              		.loc 1 101 0
 324 000a 3368     		ldr	r3, [r6]
 325 000c 8B93     		str	r3, [sp, #556]
 326              		.loc 1 105 0
 327 000e 0023     		movs	r3, #0
 328              		.loc 1 101 0
 329 0010 0446     		mov	r4, r0
 330              		.loc 1 105 0
 331 0012 0093     		str	r3, [sp]
 332              	.LVL26:
 333              		.loc 1 112 0
 334 0014 FFF7FEFF 		bl	mountSDCard
 335              	.LVL27:
 336 0018 40B9     		cbnz	r0, .L29
 337              	.LVL28:
 338              	.L50:
 339              		.loc 1 131 0
 340 001a 0120     		movs	r0, #1
 341              	.L30:
 342              		.loc 1 185 0
ARM GAS  C:\Users\shadi\AppData\Local\Temp\ccfnrSaH.s 			page 7


 343 001c 8B9A     		ldr	r2, [sp, #556]
 344 001e 3368     		ldr	r3, [r6]
 345 0020 9A42     		cmp	r2, r3
 346 0022 67D1     		bne	.L51
 347 0024 0DF50D7D 		add	sp, sp, #564
 348              		.cfi_remember_state
 349              		.cfi_def_cfa_offset 36
 350              		@ sp needed
 351 0028 BDE8F08F 		pop	{r4, r5, r6, r7, r8, r9, r10, fp, pc}
 352              	.LVL29:
 353              	.L29:
 354              		.cfi_restore_state
 355              		.loc 1 117 0
 356 002c 2146     		mov	r1, r4
 357 002e 01A8     		add	r0, sp, #4
 358 0030 0122     		movs	r2, #1
 359 0032 FFF7FEFF 		bl	f_open
 360              	.LVL30:
 361              		.loc 1 118 0
 362 0036 0028     		cmp	r0, #0
 363 0038 EFD1     		bne	.L50
 364              		.loc 1 123 0
 365 003a DFF8CC90 		ldr	r9, .L53+16
 366 003e 2F4C     		ldr	r4, .L53+4
 367              	.LVL31:
 368              		.loc 1 128 0
 369 0040 4946     		mov	r1, r9
 370 0042 6B46     		mov	r3, sp
 371 0044 2C22     		movs	r2, #44
 372 0046 01A8     		add	r0, sp, #4
 373              	.LVL32:
 374              		.loc 1 123 0
 375 0048 C4F80090 		str	r9, [r4]
 376              	.LVL33:
 377              		.loc 1 128 0
 378 004c FFF7FEFF 		bl	f_read
 379              	.LVL34:
 380              		.loc 1 129 0
 381 0050 0028     		cmp	r0, #0
 382 0052 48D1     		bne	.L35
 383 0054 DFF8BCA0 		ldr	r10, .L53+28
 384              		.loc 1 151 0
 385 0058 DFF8BC80 		ldr	r8, .L53+32
 386              		.loc 1 157 0
 387 005c DFF8BCB0 		ldr	fp, .L53+36
 388 0060 274D     		ldr	r5, .L53+8
 389              		.loc 1 124 0
 390 0062 4C46     		mov	r4, r9
 391              		.loc 1 106 0
 392 0064 0127     		movs	r7, #1
 393              	.LVL35:
 394              	.L32:
 395              		.loc 1 137 0
 396 0066 9AF80030 		ldrb	r3, [r10]	@ zero_extendqisi2
 397 006a 002B     		cmp	r3, #0
 398 006c 3FD0     		beq	.L52
 399              		.loc 1 144 0
ARM GAS  C:\Users\shadi\AppData\Local\Temp\ccfnrSaH.s 			page 8


 400 006e 6B46     		mov	r3, sp
 401 0070 4FF40072 		mov	r2, #512
 402 0074 2146     		mov	r1, r4
 403 0076 01A8     		add	r0, sp, #4
 404 0078 FFF7FEFF 		bl	f_read
 405              	.LVL36:
 406              		.loc 1 145 0
 407 007c 98BB     		cbnz	r0, .L35
 408              		.loc 1 151 0
 409 007e 0099     		ldr	r1, [sp]
 410 0080 4908     		lsrs	r1, r1, #1
 411 0082 C8F80010 		str	r1, [r8]
 412              	.LVL37:
 413              		.loc 1 155 0
 414 0086 99B1     		cbz	r1, .L36
 415              		.loc 1 157 0
 416 0088 9BF800C0 		ldrb	ip, [fp]	@ zero_extendqisi2
 417              		.loc 1 155 0
 418 008c 0246     		mov	r2, r0
 419              	.LVL38:
 420              	.L37:
 421              		.loc 1 156 0 discriminator 3
 422 008e 34F91230 		ldrsh	r3, [r4, r2, lsl #1]
 423 0092 03F50043 		add	r3, r3, #32768
 424 0096 1B11     		asrs	r3, r3, #4
 425              		.loc 1 157 0 discriminator 3
 426 0098 0CFB03F3 		mul	r3, ip, r3
 427              		.loc 1 155 0 discriminator 3
 428 009c 0130     		adds	r0, r0, #1
 429              	.LVL39:
 430 009e 80B2     		uxth	r0, r0
 431              	.LVL40:
 432              		.loc 1 157 0 discriminator 3
 433 00a0 A5FB03E3 		umull	lr, r3, r5, r3
 434 00a4 5B09     		lsrs	r3, r3, #5
 435              		.loc 1 155 0 discriminator 3
 436 00a6 8142     		cmp	r1, r0
 437              		.loc 1 157 0 discriminator 3
 438 00a8 24F81230 		strh	r3, [r4, r2, lsl #1]	@ movhi
 439              		.loc 1 155 0 discriminator 3
 440 00ac 0246     		mov	r2, r0
 441 00ae EED8     		bhi	.L37
 442              	.LVL41:
 443              	.L36:
 444              		.loc 1 163 0
 445 00b0 AFB1     		cbz	r7, .L38
 446              		.loc 1 164 0
 447 00b2 124A     		ldr	r2, .L53+4
 448 00b4 134B     		ldr	r3, .L53+12
 449 00b6 1068     		ldr	r0, [r2]
 450 00b8 4AF64442 		movw	r2, #44100
 451 00bc FFF7FEFF 		bl	dac_play_buffer
 452              	.LVL42:
 453              	.L39:
 454              		.loc 1 177 0
 455 00c0 D8F80030 		ldr	r3, [r8]
 456              		.loc 1 171 0
ARM GAS  C:\Users\shadi\AppData\Local\Temp\ccfnrSaH.s 			page 9


 457 00c4 4C45     		cmp	r4, r9
 458              		.loc 1 174 0
 459 00c6 14BF     		ite	ne
 460 00c8 0F4C     		ldrne	r4, .L53+16
 461              	.LVL43:
 462              		.loc 1 172 0
 463 00ca 104C     		ldreq	r4, .L53+20
 464              	.LVL44:
 465              		.loc 1 177 0
 466 00cc FF2B     		cmp	r3, #255
 467 00ce 4FF00007 		mov	r7, #0
 468 00d2 C8D8     		bhi	.L32
 469              	.LVL45:
 470              	.L34:
 471              		.loc 1 181 0
 472 00d4 01A8     		add	r0, sp, #4
 473 00d6 FFF7FEFF 		bl	f_close
 474              	.LVL46:
 475              		.loc 1 183 0
 476 00da 0020     		movs	r0, #0
 477 00dc 9EE7     		b	.L30
 478              	.LVL47:
 479              	.L38:
 480              	.LBB111:
 481              	.LBB112:
 482              		.loc 4 143 0
 483 00de 0C48     		ldr	r0, .L53+24
 484 00e0 FFF7FEFF 		bl	chSemWait
 485              	.LVL48:
 486 00e4 ECE7     		b	.L39
 487              	.LVL49:
 488              	.L35:
 489              	.LBE112:
 490              	.LBE111:
 491              		.loc 1 130 0
 492 00e6 01A8     		add	r0, sp, #4
 493              	.LVL50:
 494 00e8 FFF7FEFF 		bl	f_close
 495              	.LVL51:
 496 00ec 95E7     		b	.L50
 497              	.LVL52:
 498              	.L52:
 499              		.loc 1 139 0
 500 00ee FFF7FEFF 		bl	dac_stop
 501              	.LVL53:
 502              		.loc 1 140 0
 503 00f2 EFE7     		b	.L34
 504              	.LVL54:
 505              	.L51:
 506              		.loc 1 185 0
 507 00f4 FFF7FEFF 		bl	__stack_chk_fail
 508              	.LVL55:
 509              	.L54:
 510              		.align	2
 511              	.L53:
 512 00f8 00000000 		.word	__stack_chk_guard
 513 00fc 00000000 		.word	.LANCHOR2
ARM GAS  C:\Users\shadi\AppData\Local\Temp\ccfnrSaH.s 			page 10


 514 0100 1F85EB51 		.word	1374389535
 515 0104 00000000 		.word	end_cb
 516 0108 00000000 		.word	.LANCHOR0
 517 010c 00000000 		.word	.LANCHOR1
 518 0110 00000000 		.word	.LANCHOR4
 519 0114 00000000 		.word	.LANCHOR7
 520 0118 00000000 		.word	.LANCHOR3
 521 011c 00000000 		.word	.LANCHOR8
 522              		.cfi_endproc
 523              	.LFE258:
 524              		.size	playWAVFile, .-playWAVFile
 525              		.section	.text.PlaySoundFileThd,"ax",%progbits
 526              		.align	1
 527              		.p2align 4,,15
 528              		.syntax unified
 529              		.thumb
 530              		.thumb_func
 531              		.fpu fpv4-sp-d16
 532              		.type	PlaySoundFileThd, %function
 533              	PlaySoundFileThd:
 534              	.LFB259:
 535              		.loc 1 188 0
 536              		.cfi_startproc
 537              		@ args = 0, pretend = 0, frame = 8
 538              		@ frame_needed = 0, uses_anonymous_args = 0
 539              	.LVL56:
 540 0000 2DE9F047 		push	{r4, r5, r6, r7, r8, r9, r10, lr}
 541              		.cfi_def_cfa_offset 32
 542              		.cfi_offset 4, -32
 543              		.cfi_offset 5, -28
 544              		.cfi_offset 6, -24
 545              		.cfi_offset 7, -20
 546              		.cfi_offset 8, -16
 547              		.cfi_offset 9, -12
 548              		.cfi_offset 10, -8
 549              		.cfi_offset 14, -4
 550              	.LBB125:
 551              	.LBB126:
 552              		.file 5 "../../lib/e-puck2_main-processor/ChibiOS//os/rt/include/chregistry.h"
 553              		.loc 5 135 0
 554 0004 1C4D     		ldr	r5, .L60
 555              	.LBE126:
 556              	.LBE125:
 557              		.loc 1 188 0
 558 0006 1D4B     		ldr	r3, .L60+4
 559              	.LBB129:
 560              	.LBB127:
 561              		.loc 5 135 0
 562 0008 AA69     		ldr	r2, [r5, #24]
 563 000a 1D49     		ldr	r1, .L60+8
 564              	.LBE127:
 565              	.LBE129:
 566              		.loc 1 188 0
 567 000c 1B68     		ldr	r3, [r3]
 568 000e DFF87890 		ldr	r9, .L60+16
 569              		.loc 1 199 0
 570 0012 DFF87880 		ldr	r8, .L60+20
ARM GAS  C:\Users\shadi\AppData\Local\Temp\ccfnrSaH.s 			page 11


 571              	.LBB130:
 572              	.LBB131:
 573              		.loc 3 367 0
 574 0016 DFF878A0 		ldr	r10, .L60+24
 575              	.LBE131:
 576              	.LBE130:
 577              		.loc 1 207 0
 578 001a 1A4F     		ldr	r7, .L60+12
 579              	.LBB139:
 580              	.LBB128:
 581              		.loc 5 135 0
 582 001c 9161     		str	r1, [r2, #24]
 583              	.LBE128:
 584              	.LBE139:
 585              		.loc 1 188 0
 586 001e 82B0     		sub	sp, sp, #8
 587              		.cfi_def_cfa_offset 40
 588              		.loc 1 188 0
 589 0020 0193     		str	r3, [sp, #4]
 590              	.LVL57:
 591              	.L57:
 592              	.LBB140:
 593              	.LBB141:
 594              	.LBB142:
 595              	.LBB143:
 596              	.LBB144:
 597              		.loc 2 546 0 discriminator 1
 598 0022 2023     		movs	r3, #32
 599              		.syntax unified
 600              	@ 546 "../../lib/e-puck2_main-processor/ChibiOS//os/ext/CMSIS/include/core_cmFunc.h" 1
 601 0024 83F31188 		MSR basepri, r3
 602              	@ 0 "" 2
 603              	.LVL58:
 604              		.thumb
 605              		.syntax unified
 606              	.LBE144:
 607              	.LBE143:
 608              	.LBE142:
 609              		.loc 3 349 0 discriminator 1
 610 0028 FFF7FEFF 		bl	_stats_start_measure_crit_thd
 611              	.LVL59:
 612              		.loc 3 350 0 discriminator 1
 613 002c FFF7FEFF 		bl	_dbg_check_lock
 614              	.LVL60:
 615              	.LBE141:
 616              	.LBE140:
 617              		.loc 1 199 0 discriminator 1
 618 0030 4046     		mov	r0, r8
 619 0032 FFF7FEFF 		bl	chThdSuspendS
 620              	.LVL61:
 621 0036 0646     		mov	r6, r0
 622              	.LVL62:
 623              	.LBB145:
 624              	.LBB138:
 625              		.loc 3 360 0 discriminator 1
 626 0038 FFF7FEFF 		bl	_dbg_check_unlock
 627              	.LVL63:
ARM GAS  C:\Users\shadi\AppData\Local\Temp\ccfnrSaH.s 			page 12


 628              		.loc 3 361 0 discriminator 1
 629 003c FFF7FEFF 		bl	_stats_stop_measure_crit_thd
 630              	.LVL64:
 631              		.loc 3 367 0 discriminator 1
 632 0040 2B68     		ldr	r3, [r5]
 633 0042 AB42     		cmp	r3, r5
 634              	.LBB132:
 635              	.LBB133:
 636              	.LBB134:
 637              		.loc 2 546 0 discriminator 1
 638 0044 4FF00004 		mov	r4, #0
 639              	.LBE134:
 640              	.LBE133:
 641              	.LBE132:
 642              		.loc 3 367 0 discriminator 1
 643 0048 07D0     		beq	.L56
 644              		.loc 3 367 0 is_stmt 0
 645 004a AA69     		ldr	r2, [r5, #24]
 646 004c 9B68     		ldr	r3, [r3, #8]
 647 004e 9268     		ldr	r2, [r2, #8]
 648 0050 9A42     		cmp	r2, r3
 649 0052 02D2     		bcs	.L56
 650 0054 5046     		mov	r0, r10
 651 0056 FFF7FEFF 		bl	chSysHalt
 652              	.LVL65:
 653              	.L56:
 654              	.LBB137:
 655              	.LBB136:
 656              	.LBB135:
 657              		.loc 2 546 0 is_stmt 1
 658              		.syntax unified
 659              	@ 546 "../../lib/e-puck2_main-processor/ChibiOS//os/ext/CMSIS/include/core_cmFunc.h" 1
 660 005a 84F31188 		MSR basepri, r4
 661              	@ 0 "" 2
 662              	.LVL66:
 663              		.thumb
 664              		.syntax unified
 665              	.LBE135:
 666              	.LBE136:
 667              	.LBE137:
 668              	.LBE138:
 669              	.LBE145:
 670              		.loc 1 202 0
 671 005e 3046     		mov	r0, r6
 672 0060 FFF7FEFF 		bl	playWAVFile
 673              	.LVL67:
 674              		.loc 1 205 0
 675 0064 0A20     		movs	r0, #10
 676              		.loc 1 203 0
 677 0066 89F80040 		strb	r4, [r9]
 678              		.loc 1 205 0
 679 006a FFF7FEFF 		bl	chThdSleep
 680              	.LVL68:
 681              		.loc 1 207 0
 682 006e 3846     		mov	r0, r7
 683 0070 FFF7FEFF 		bl	chCondBroadcast
 684              	.LVL69:
ARM GAS  C:\Users\shadi\AppData\Local\Temp\ccfnrSaH.s 			page 13


 685 0074 D5E7     		b	.L57
 686              	.L61:
 687 0076 00BF     		.align	2
 688              	.L60:
 689 0078 00000000 		.word	ch
 690 007c 00000000 		.word	__stack_chk_guard
 691 0080 00000000 		.word	.LC0
 692 0084 00000000 		.word	.LANCHOR6
 693 0088 00000000 		.word	.LANCHOR7
 694 008c 00000000 		.word	.LANCHOR9
 695 0090 00000000 		.word	.LANCHOR10
 696              		.cfi_endproc
 697              	.LFE259:
 698              		.size	PlaySoundFileThd, .-PlaySoundFileThd
 699              		.section	.text.playSoundFileStart,"ax",%progbits
 700              		.align	1
 701              		.p2align 4,,15
 702              		.global	playSoundFileStart
 703              		.syntax unified
 704              		.thumb
 705              		.thumb_func
 706              		.fpu fpv4-sp-d16
 707              		.type	playSoundFileStart, %function
 708              	playSoundFileStart:
 709              	.LFB260:
 710              		.loc 1 214 0
 711              		.cfi_startproc
 712              		@ args = 0, pretend = 0, frame = 8
 713              		@ frame_needed = 0, uses_anonymous_args = 0
 714 0000 10B5     		push	{r4, lr}
 715              		.cfi_def_cfa_offset 8
 716              		.cfi_offset 4, -8
 717              		.cfi_offset 14, -4
 718 0002 0A4C     		ldr	r4, .L66
 719              		.loc 1 217 0
 720 0004 0A4B     		ldr	r3, .L66+4
 721              		.loc 1 214 0
 722 0006 2268     		ldr	r2, [r4]
 723              		.loc 1 217 0
 724 0008 0A48     		ldr	r0, .L66+8
 725              		.loc 1 214 0
 726 000a 84B0     		sub	sp, sp, #16
 727              		.cfi_def_cfa_offset 24
 728              		.loc 1 217 0
 729 000c 4FF4EF61 		mov	r1, #1912
 730              		.loc 1 214 0
 731 0010 0392     		str	r2, [sp, #12]
 732              		.loc 1 217 0
 733 0012 0022     		movs	r2, #0
 734 0014 0092     		str	r2, [sp]
 735 0016 4022     		movs	r2, #64
 736 0018 FFF7FEFF 		bl	chThdCreateStatic
 737              	.LVL70:
 738              		.loc 1 218 0
 739 001c 039A     		ldr	r2, [sp, #12]
 740 001e 2368     		ldr	r3, [r4]
 741 0020 9A42     		cmp	r2, r3
ARM GAS  C:\Users\shadi\AppData\Local\Temp\ccfnrSaH.s 			page 14


 742 0022 01D1     		bne	.L65
 743 0024 04B0     		add	sp, sp, #16
 744              		.cfi_remember_state
 745              		.cfi_def_cfa_offset 8
 746              		@ sp needed
 747 0026 10BD     		pop	{r4, pc}
 748              	.L65:
 749              		.cfi_restore_state
 750 0028 FFF7FEFF 		bl	__stack_chk_fail
 751              	.LVL71:
 752              	.L67:
 753              		.align	2
 754              	.L66:
 755 002c 00000000 		.word	__stack_chk_guard
 756 0030 00000000 		.word	PlaySoundFileThd
 757 0034 00000000 		.word	.LANCHOR11
 758              		.cfi_endproc
 759              	.LFE260:
 760              		.size	playSoundFileStart, .-playSoundFileStart
 761              		.section	.text.playSoundFile,"ax",%progbits
 762              		.align	1
 763              		.p2align 4,,15
 764              		.global	playSoundFile
 765              		.syntax unified
 766              		.thumb
 767              		.thumb_func
 768              		.fpu fpv4-sp-d16
 769              		.type	playSoundFile, %function
 770              	playSoundFile:
 771              	.LFB261:
 772              		.loc 1 220 0
 773              		.cfi_startproc
 774              		@ args = 0, pretend = 0, frame = 16
 775              		@ frame_needed = 0, uses_anonymous_args = 0
 776              	.LVL72:
 777 0000 30B5     		push	{r4, r5, lr}
 778              		.cfi_def_cfa_offset 12
 779              		.cfi_offset 4, -12
 780              		.cfi_offset 5, -8
 781              		.cfi_offset 14, -4
 782 0002 154C     		ldr	r4, .L87
 783 0004 85B0     		sub	sp, sp, #20
 784              		.cfi_def_cfa_offset 32
 785              		.loc 1 220 0
 786 0006 2368     		ldr	r3, [r4]
 787 0008 0393     		str	r3, [sp, #12]
 788              		.loc 1 222 0
 789 000a C0B1     		cbz	r0, .L68
 790 000c 134B     		ldr	r3, .L87+4
 791 000e 1B68     		ldr	r3, [r3]
 792              		.loc 1 227 0
 793 0010 91B1     		cbz	r1, .L85
 794              		.loc 1 237 0
 795 0012 0229     		cmp	r1, #2
 796              	.LBB146:
 797              	.LBB147:
 798              		.loc 1 248 0
ARM GAS  C:\Users\shadi\AppData\Local\Temp\ccfnrSaH.s 			page 15


 799 0014 124D     		ldr	r5, .L87+8
 800 0016 04BF     		itt	eq
 801 0018 0022     		moveq	r2, #0
 802 001a 2A70     		strbeq	r2, [r5]
 803              	.LBE147:
 804              	.LBE146:
 805              	.LBB148:
 806              	.LBB149:
 807              		.loc 1 253 0
 808 001c ABB1     		cbz	r3, .L86
 809              	.LVL73:
 810              	.L73:
 811              	.LBE149:
 812              	.LBE148:
 813              		.loc 1 233 0
 814 001e 039A     		ldr	r2, [sp, #12]
 815 0020 2368     		ldr	r3, [r4]
 816              		.loc 1 231 0
 817 0022 0121     		movs	r1, #1
 818              		.loc 1 233 0
 819 0024 9A42     		cmp	r2, r3
 820              		.loc 1 231 0
 821 0026 2970     		strb	r1, [r5]
 822              		.loc 1 233 0
 823 0028 14D1     		bne	.L84
 824 002a 0146     		mov	r1, r0
 825 002c 0B48     		ldr	r0, .L87+4
 826              		.loc 1 245 0
 827 002e 05B0     		add	sp, sp, #20
 828              		.cfi_remember_state
 829              		.cfi_def_cfa_offset 12
 830              		@ sp needed
 831 0030 BDE83040 		pop	{r4, r5, lr}
 832              		.cfi_restore 14
 833              		.cfi_restore 5
 834              		.cfi_restore 4
 835              		.cfi_def_cfa_offset 0
 836              		.loc 1 233 0
 837 0034 FFF7FEBF 		b	chThdResume
 838              	.LVL74:
 839              	.L85:
 840              		.cfi_restore_state
 841              		.loc 1 230 0
 842 0038 0BB1     		cbz	r3, .L68
 843 003a 094D     		ldr	r5, .L87+8
 844 003c EFE7     		b	.L73
 845              	.L68:
 846              		.loc 1 245 0
 847 003e 039A     		ldr	r2, [sp, #12]
 848 0040 2368     		ldr	r3, [r4]
 849 0042 9A42     		cmp	r2, r3
 850 0044 06D1     		bne	.L84
 851 0046 05B0     		add	sp, sp, #20
 852              		.cfi_remember_state
 853              		.cfi_def_cfa_offset 12
 854              		@ sp needed
 855 0048 30BD     		pop	{r4, r5, pc}
ARM GAS  C:\Users\shadi\AppData\Local\Temp\ccfnrSaH.s 			page 16


 856              	.L86:
 857              		.cfi_restore_state
 858 004a 0190     		str	r0, [sp, #4]
 859              	.LBB151:
 860              	.LBB150:
 861 004c FFF7FEFF 		bl	waitSoundFileHasFinished.part.1
 862              	.LVL75:
 863 0050 0198     		ldr	r0, [sp, #4]
 864 0052 E4E7     		b	.L73
 865              	.LVL76:
 866              	.L84:
 867              	.LBE150:
 868              	.LBE151:
 869 0054 FFF7FEFF 		bl	__stack_chk_fail
 870              	.LVL77:
 871              	.L88:
 872              		.align	2
 873              	.L87:
 874 0058 00000000 		.word	__stack_chk_guard
 875 005c 00000000 		.word	.LANCHOR9
 876 0060 00000000 		.word	.LANCHOR7
 877              		.cfi_endproc
 878              	.LFE261:
 879              		.size	playSoundFile, .-playSoundFile
 880              		.section	.text.stopCurrentSoundFile,"ax",%progbits
 881              		.align	1
 882              		.p2align 4,,15
 883              		.global	stopCurrentSoundFile
 884              		.syntax unified
 885              		.thumb
 886              		.thumb_func
 887              		.fpu fpv4-sp-d16
 888              		.type	stopCurrentSoundFile, %function
 889              	stopCurrentSoundFile:
 890              	.LFB262:
 891              		.loc 1 247 0
 892              		.cfi_startproc
 893              		@ args = 0, pretend = 0, frame = 8
 894              		@ frame_needed = 0, uses_anonymous_args = 0
 895 0000 00B5     		push	{lr}
 896              		.cfi_def_cfa_offset 4
 897              		.cfi_offset 14, -4
 898 0002 084B     		ldr	r3, .L93
 899              		.loc 1 248 0
 900 0004 0849     		ldr	r1, .L93+4
 901              		.loc 1 247 0
 902 0006 1A68     		ldr	r2, [r3]
 903 0008 83B0     		sub	sp, sp, #12
 904              		.cfi_def_cfa_offset 16
 905              		.loc 1 248 0
 906 000a 0020     		movs	r0, #0
 907              		.loc 1 247 0
 908 000c 0192     		str	r2, [sp, #4]
 909              		.loc 1 249 0
 910 000e 019A     		ldr	r2, [sp, #4]
 911 0010 1B68     		ldr	r3, [r3]
 912              		.loc 1 248 0
ARM GAS  C:\Users\shadi\AppData\Local\Temp\ccfnrSaH.s 			page 17


 913 0012 0870     		strb	r0, [r1]
 914              		.loc 1 249 0
 915 0014 9A42     		cmp	r2, r3
 916 0016 02D1     		bne	.L92
 917 0018 03B0     		add	sp, sp, #12
 918              		.cfi_remember_state
 919              		.cfi_def_cfa_offset 4
 920              		@ sp needed
 921 001a 5DF804FB 		ldr	pc, [sp], #4
 922              	.L92:
 923              		.cfi_restore_state
 924 001e FFF7FEFF 		bl	__stack_chk_fail
 925              	.LVL78:
 926              	.L94:
 927 0022 00BF     		.align	2
 928              	.L93:
 929 0024 00000000 		.word	__stack_chk_guard
 930 0028 00000000 		.word	.LANCHOR7
 931              		.cfi_endproc
 932              	.LFE262:
 933              		.size	stopCurrentSoundFile, .-stopCurrentSoundFile
 934              		.section	.text.waitSoundFileHasFinished,"ax",%progbits
 935              		.align	1
 936              		.p2align 4,,15
 937              		.global	waitSoundFileHasFinished
 938              		.syntax unified
 939              		.thumb
 940              		.thumb_func
 941              		.fpu fpv4-sp-d16
 942              		.type	waitSoundFileHasFinished, %function
 943              	waitSoundFileHasFinished:
 944              	.LFB263:
 945              		.loc 1 251 0
 946              		.cfi_startproc
 947              		@ args = 0, pretend = 0, frame = 8
 948              		@ frame_needed = 0, uses_anonymous_args = 0
 949 0000 00B5     		push	{lr}
 950              		.cfi_def_cfa_offset 4
 951              		.cfi_offset 14, -4
 952              		.loc 1 253 0
 953 0002 0C4A     		ldr	r2, .L102
 954              		.loc 1 251 0
 955 0004 0C4B     		ldr	r3, .L102+4
 956              		.loc 1 253 0
 957 0006 1268     		ldr	r2, [r2]
 958              		.loc 1 251 0
 959 0008 1968     		ldr	r1, [r3]
 960 000a 83B0     		sub	sp, sp, #12
 961              		.cfi_def_cfa_offset 16
 962              		.loc 1 251 0
 963 000c 0191     		str	r1, [sp, #4]
 964              		.loc 1 253 0
 965 000e 32B1     		cbz	r2, .L101
 966              		.loc 1 259 0
 967 0010 019A     		ldr	r2, [sp, #4]
 968 0012 1B68     		ldr	r3, [r3]
 969 0014 9A42     		cmp	r2, r3
ARM GAS  C:\Users\shadi\AppData\Local\Temp\ccfnrSaH.s 			page 18


 970 0016 0BD1     		bne	.L100
 971 0018 03B0     		add	sp, sp, #12
 972              		.cfi_remember_state
 973              		.cfi_def_cfa_offset 4
 974              		@ sp needed
 975 001a 5DF804FB 		ldr	pc, [sp], #4
 976              	.L101:
 977              		.cfi_restore_state
 978 001e 019A     		ldr	r2, [sp, #4]
 979 0020 1B68     		ldr	r3, [r3]
 980 0022 9A42     		cmp	r2, r3
 981 0024 04D1     		bne	.L100
 982 0026 03B0     		add	sp, sp, #12
 983              		.cfi_remember_state
 984              		.cfi_def_cfa_offset 4
 985              		@ sp needed
 986 0028 5DF804EB 		ldr	lr, [sp], #4
 987              		.cfi_restore 14
 988              		.cfi_def_cfa_offset 0
 989 002c FFF7FEBF 		b	waitSoundFileHasFinished.part.1
 990              	.LVL79:
 991              	.L100:
 992              		.cfi_restore_state
 993 0030 FFF7FEFF 		bl	__stack_chk_fail
 994              	.LVL80:
 995              	.L103:
 996              		.align	2
 997              	.L102:
 998 0034 00000000 		.word	.LANCHOR9
 999 0038 00000000 		.word	__stack_chk_guard
 1000              		.cfi_endproc
 1001              	.LFE263:
 1002              		.size	waitSoundFileHasFinished, .-waitSoundFileHasFinished
 1003              		.section	.text.setSoundFileVolume,"ax",%progbits
 1004              		.align	1
 1005              		.p2align 4,,15
 1006              		.global	setSoundFileVolume
 1007              		.syntax unified
 1008              		.thumb
 1009              		.thumb_func
 1010              		.fpu fpv4-sp-d16
 1011              		.type	setSoundFileVolume, %function
 1012              	setSoundFileVolume:
 1013              	.LFB264:
 1014              		.loc 1 261 0
 1015              		.cfi_startproc
 1016              		@ args = 0, pretend = 0, frame = 8
 1017              		@ frame_needed = 0, uses_anonymous_args = 0
 1018              	.LVL81:
 1019 0000 30B5     		push	{r4, r5, lr}
 1020              		.cfi_def_cfa_offset 12
 1021              		.cfi_offset 4, -12
 1022              		.cfi_offset 5, -8
 1023              		.cfi_offset 14, -4
 1024 0002 104D     		ldr	r5, .L115
 1025 0004 104B     		ldr	r3, .L115+4
 1026 0006 2A68     		ldr	r2, [r5]
ARM GAS  C:\Users\shadi\AppData\Local\Temp\ccfnrSaH.s 			page 19


 1027 0008 1B78     		ldrb	r3, [r3]	@ zero_extendqisi2
 1028 000a 83B0     		sub	sp, sp, #12
 1029              		.cfi_def_cfa_offset 24
 1030              		.loc 1 262 0
 1031 000c 3228     		cmp	r0, #50
 1032              		.loc 1 261 0
 1033 000e 0192     		str	r2, [sp, #4]
 1034              		.loc 1 262 0
 1035 0010 0CD9     		bls	.L105
 1036              	.LVL82:
 1037              		.loc 1 263 0
 1038 0012 3224     		movs	r4, #50
 1039              		.loc 1 268 0
 1040 0014 13B1     		cbz	r3, .L107
 1041              	.LVL83:
 1042              	.L106:
 1043              		.loc 1 272 0
 1044 0016 0120     		movs	r0, #1
 1045 0018 FFF7FEFF 		bl	dac_power_speaker
 1046              	.LVL84:
 1047              	.L107:
 1048              		.loc 1 277 0
 1049 001c 019A     		ldr	r2, [sp, #4]
 1050 001e 2B68     		ldr	r3, [r5]
 1051              		.loc 1 276 0
 1052 0020 0A49     		ldr	r1, .L115+8
 1053              		.loc 1 277 0
 1054 0022 9A42     		cmp	r2, r3
 1055              		.loc 1 276 0
 1056 0024 0C70     		strb	r4, [r1]
 1057              		.loc 1 277 0
 1058 0026 0AD1     		bne	.L114
 1059 0028 03B0     		add	sp, sp, #12
 1060              		.cfi_remember_state
 1061              		.cfi_def_cfa_offset 12
 1062              		@ sp needed
 1063 002a 30BD     		pop	{r4, r5, pc}
 1064              	.LVL85:
 1065              	.L105:
 1066              		.cfi_restore_state
 1067 002c 0446     		mov	r4, r0
 1068              		.loc 1 268 0
 1069 002e 002B     		cmp	r3, #0
 1070 0030 F4D0     		beq	.L107
 1071              		.loc 1 269 0
 1072 0032 0428     		cmp	r0, #4
 1073 0034 EFD8     		bhi	.L106
 1074              		.loc 1 270 0
 1075 0036 0020     		movs	r0, #0
 1076              	.LVL86:
 1077 0038 FFF7FEFF 		bl	dac_power_speaker
 1078              	.LVL87:
 1079 003c EEE7     		b	.L107
 1080              	.LVL88:
 1081              	.L114:
 1082              		.loc 1 277 0
 1083 003e FFF7FEFF 		bl	__stack_chk_fail
ARM GAS  C:\Users\shadi\AppData\Local\Temp\ccfnrSaH.s 			page 20


 1084              	.LVL89:
 1085              	.L116:
 1086 0042 00BF     		.align	2
 1087              	.L115:
 1088 0044 00000000 		.word	__stack_chk_guard
 1089 0048 00000000 		.word	.LANCHOR7
 1090 004c 00000000 		.word	.LANCHOR8
 1091              		.cfi_endproc
 1092              	.LFE264:
 1093              		.size	setSoundFileVolume, .-setSoundFileVolume
 1094              		.section	.bss.buffer_to_read,"aw",%nobits
 1095              		.align	2
 1096              		.set	.LANCHOR2,. + 0
 1097              		.type	buffer_to_read, %object
 1098              		.size	buffer_to_read, 4
 1099              	buffer_to_read:
 1100 0000 00000000 		.space	4
 1101              		.section	.bss.play,"aw",%nobits
 1102              		.set	.LANCHOR7,. + 0
 1103              		.type	play, %object
 1104              		.size	play, 1
 1105              	play:
 1106 0000 00       		.space	1
 1107              		.section	.bss.play_sound_file_ref,"aw",%nobits
 1108              		.align	2
 1109              		.set	.LANCHOR9,. + 0
 1110              		.type	play_sound_file_ref, %object
 1111              		.size	play_sound_file_ref, 4
 1112              	play_sound_file_ref:
 1113 0000 00000000 		.space	4
 1114              		.section	.bss.size_buffer_to_read,"aw",%nobits
 1115              		.align	2
 1116              		.set	.LANCHOR3,. + 0
 1117              		.type	size_buffer_to_read, %object
 1118              		.size	size_buffer_to_read, 4
 1119              	size_buffer_to_read:
 1120 0000 00000000 		.space	4
 1121              		.section	.bss.sound_buffer1,"aw",%nobits
 1122              		.align	2
 1123              		.set	.LANCHOR0,. + 0
 1124              		.type	sound_buffer1, %object
 1125              		.size	sound_buffer1, 512
 1126              	sound_buffer1:
 1127 0000 00000000 		.space	512
 1127      00000000 
 1127      00000000 
 1127      00000000 
 1127      00000000 
 1128              		.section	.bss.sound_buffer2,"aw",%nobits
 1129              		.align	2
 1130              		.set	.LANCHOR1,. + 0
 1131              		.type	sound_buffer2, %object
 1132              		.size	sound_buffer2, 512
 1133              	sound_buffer2:
 1134 0000 00000000 		.space	512
 1134      00000000 
 1134      00000000 
ARM GAS  C:\Users\shadi\AppData\Local\Temp\ccfnrSaH.s 			page 21


 1134      00000000 
 1134      00000000 
 1135              		.section	.bss.waPlaySoundFileThd,"aw",%nobits
 1136              		.align	3
 1137              		.set	.LANCHOR11,. + 0
 1138              		.type	waPlaySoundFileThd, %object
 1139              		.size	waPlaySoundFileThd, 1912
 1140              	waPlaySoundFileThd:
 1141 0000 00000000 		.space	1912
 1141      00000000 
 1141      00000000 
 1141      00000000 
 1141      00000000 
 1142              		.section	.data.change_buffer,"aw",%progbits
 1143              		.align	2
 1144              		.set	.LANCHOR4,. + 0
 1145              		.type	change_buffer, %object
 1146              		.size	change_buffer, 12
 1147              	change_buffer:
 1148 0000 00000000 		.word	change_buffer
 1149 0004 00000000 		.word	change_buffer
 1150 0008 00000000 		.word	0
 1151              		.section	.data.play_sound_file_condvar,"aw",%progbits
 1152              		.align	2
 1153              		.set	.LANCHOR6,. + 0
 1154              		.type	play_sound_file_condvar, %object
 1155              		.size	play_sound_file_condvar, 8
 1156              	play_sound_file_condvar:
 1157 0000 00000000 		.word	play_sound_file_condvar
 1158 0004 00000000 		.word	play_sound_file_condvar
 1159              		.section	.data.play_sound_file_lock,"aw",%progbits
 1160              		.align	2
 1161              		.set	.LANCHOR5,. + 0
 1162              		.type	play_sound_file_lock, %object
 1163              		.size	play_sound_file_lock, 20
 1164              	play_sound_file_lock:
 1165 0000 00000000 		.word	play_sound_file_lock
 1166 0004 00000000 		.word	play_sound_file_lock
 1167 0008 00000000 		.word	0
 1168 000c 00000000 		.word	0
 1169 0010 00000000 		.word	0
 1170              		.section	.data.sound_file_volume,"aw",%progbits
 1171              		.set	.LANCHOR8,. + 0
 1172              		.type	sound_file_volume, %object
 1173              		.size	sound_file_volume, 1
 1174              	sound_file_volume:
 1175 0000 0A       		.byte	10
 1176              		.section	.rodata.PlaySoundFileThd.str1.4,"aMS",%progbits,1
 1177              		.align	2
 1178              	.LC0:
 1179 0000 506C6179 		.ascii	"PlaySoundFile Thd\000"
 1179      536F756E 
 1179      6446696C 
 1179      65205468 
 1179      6400
 1180              		.section	.rodata.__func__.7153,"a",%progbits
 1181              		.align	2
ARM GAS  C:\Users\shadi\AppData\Local\Temp\ccfnrSaH.s 			page 22


 1182              		.set	.LANCHOR10,. + 0
 1183              		.type	__func__.7153, %object
 1184              		.size	__func__.7153, 12
 1185              	__func__.7153:
 1186 0000 63685379 		.ascii	"chSysUnlock\000"
 1186      73556E6C 
 1186      6F636B00 
 1187              		.text
 1188              	.Letext0:
 1189              		.file 6 "c:\\users\\shadi\\downloads\\eclipse_e-puck2\\tools\\gcc-arm-none-eabi-7-2017-q4-major-wi
 1190              		.file 7 "c:\\users\\shadi\\downloads\\eclipse_e-puck2\\tools\\gcc-arm-none-eabi-7-2017-q4-major-wi
 1191              		.file 8 "c:\\users\\shadi\\downloads\\eclipse_e-puck2\\tools\\gcc-arm-none-eabi-7-2017-q4-major-wi
 1192              		.file 9 "../../lib/e-puck2_main-processor/ChibiOS//os/rt/ports/ARMCMx/compilers/GCC/chtypes.h"
 1193              		.file 10 "../../lib/e-puck2_main-processor/ChibiOS//os/rt/include/chsystypes.h"
 1194              		.file 11 "../../lib/e-puck2_main-processor/ChibiOS//os/rt/include/chschd.h"
 1195              		.file 12 "../../lib/e-puck2_main-processor/ChibiOS//os/ext/CMSIS/include/core_cm4.h"
 1196              		.file 13 "../../lib/e-puck2_main-processor/ChibiOS//os/ext/CMSIS/ST/system_stm32f4xx.h"
 1197              		.file 14 "../../lib/e-puck2_main-processor/ChibiOS//os/ext/CMSIS/ST/stm32f407xx.h"
 1198              		.file 15 "../../lib/e-puck2_main-processor/ChibiOS//os/rt/ports/ARMCMx/chcore.h"
 1199              		.file 16 "../../lib/e-puck2_main-processor/ChibiOS//os/rt/ports/ARMCMx/chcore_v7m.h"
 1200              		.file 17 "../../lib/e-puck2_main-processor/ChibiOS//os/rt/include/chdebug.h"
 1201              		.file 18 "../../lib/e-puck2_main-processor/ChibiOS//os/rt/include/chtm.h"
 1202              		.file 19 "../../lib/e-puck2_main-processor/ChibiOS//os/rt/include/chstats.h"
 1203              		.file 20 "../../lib/e-puck2_main-processor/ChibiOS//os/rt/include/chsem.h"
 1204              		.file 21 "../../lib/e-puck2_main-processor/ChibiOS//os/rt/include/chmtx.h"
 1205              		.file 22 "../../lib/e-puck2_main-processor/ChibiOS//os/rt/include/chcond.h"
 1206              		.file 23 "../../lib/e-puck2_main-processor/ChibiOS//os/rt/include/chevents.h"
 1207              		.file 24 "../../lib/e-puck2_main-processor/ChibiOS//os/rt/include/chqueues.h"
 1208              		.file 25 "../../lib/e-puck2_main-processor/ChibiOS//os/hal/ports/STM32/STM32F4xx/stm32_dma.h"
 1209              		.file 26 "../../lib/e-puck2_main-processor/ChibiOS//os/hal/include/hal_ioblock.h"
 1210              		.file 27 "../../lib/e-puck2_main-processor/ChibiOS//os/hal/ports/STM32/LLD/GPIOv2/pal_lld.h"
 1211              		.file 28 "../../lib/e-puck2_main-processor/ChibiOS//os/hal/include/adc.h"
 1212              		.file 29 "../../lib/e-puck2_main-processor/ChibiOS//os/hal/ports/STM32/STM32F4xx/adc_lld.h"
 1213              		.file 30 "../../lib/e-puck2_main-processor/ChibiOS//os/hal/include/can.h"
 1214              		.file 31 "../../lib/e-puck2_main-processor/ChibiOS//os/hal/ports/STM32/LLD/can_lld.h"
 1215              		.file 32 "../../lib/e-puck2_main-processor/ChibiOS//os/hal/include/dac.h"
 1216              		.file 33 "../../lib/e-puck2_main-processor/ChibiOS//os/hal/ports/STM32/LLD/DACv1/dac_lld.h"
 1217              		.file 34 "../../lib/e-puck2_main-processor/ChibiOS//os/hal/include/ext.h"
 1218              		.file 35 "../../lib/e-puck2_main-processor/ChibiOS//os/hal/ports/STM32/LLD/ext_lld.h"
 1219              		.file 36 "../../lib/e-puck2_main-processor/ChibiOS//os/hal/include/gpt.h"
 1220              		.file 37 "../../lib/e-puck2_main-processor/ChibiOS//os/hal/ports/STM32/LLD/TIMv1/gpt_lld.h"
 1221              		.file 38 "../../lib/e-puck2_main-processor/ChibiOS//os/hal/ports/STM32/LLD/TIMv1/stm32_tim.h"
 1222              		.file 39 "../../lib/e-puck2_main-processor/ChibiOS//os/hal/include/i2c.h"
 1223              		.file 40 "../../lib/e-puck2_main-processor/ChibiOS//os/hal/ports/STM32/LLD/I2Cv1/i2c_lld.h"
 1224              		.file 41 "../../lib/e-puck2_main-processor/ChibiOS//os/hal/include/i2s.h"
 1225              		.file 42 "../../lib/e-puck2_main-processor/ChibiOS//os/hal/ports/STM32/LLD/SPIv1/i2s_lld.h"
 1226              		.file 43 "../../lib/e-puck2_main-processor/ChibiOS//os/hal/include/pwm.h"
 1227              		.file 44 "../../lib/e-puck2_main-processor/ChibiOS//os/hal/ports/STM32/LLD/TIMv1/pwm_lld.h"
 1228              		.file 45 "../../lib/e-puck2_main-processor/ChibiOS//os/hal/include/serial.h"
 1229              		.file 46 "../../lib/e-puck2_main-processor/ChibiOS//os/hal/ports/STM32/LLD/USARTv1/serial_lld.h"
 1230              		.file 47 "../../lib/e-puck2_main-processor/ChibiOS//os/hal/include/sdc.h"
 1231              		.file 48 "../../lib/e-puck2_main-processor/ChibiOS//os/hal/ports/STM32/LLD/sdc_lld.h"
 1232              		.file 49 "../../lib/e-puck2_main-processor/ChibiOS//os/hal/include/spi.h"
 1233              		.file 50 "../../lib/e-puck2_main-processor/ChibiOS//os/hal/ports/STM32/LLD/SPIv1/spi_lld.h"
 1234              		.file 51 "../../lib/e-puck2_main-processor/ChibiOS//os/hal/include/usb.h"
 1235              		.file 52 "../../lib/e-puck2_main-processor/ChibiOS//os/hal/ports/STM32/LLD/OTGv1/usb_lld.h"
 1236              		.file 53 "../../lib/e-puck2_main-processor/ChibiOS//os/hal/ports/STM32/LLD/OTGv1/stm32_otg.h"
ARM GAS  C:\Users\shadi\AppData\Local\Temp\ccfnrSaH.s 			page 23


 1237              		.file 54 "../../lib/e-puck2_main-processor/ChibiOS_ext//ext/fatfs/src/integer.h"
 1238              		.file 55 "../../lib/e-puck2_main-processor/ChibiOS_ext//ext/fatfs/src/ff.h"
 1239              		.file 56 "../../lib/e-puck2_main-processor/src/audio/play_sound_file.h"
 1240              		.file 57 "../../lib/e-puck2_main-processor/src/audio/audio_thread.h"
 1241              		.file 58 "../../lib/e-puck2_main-processor/ChibiOS//os/rt/include/chthreads.h"
 1242              		.file 59 "../../lib/e-puck2_main-processor/src/fat.h"