ARM GAS  C:\Users\shadi\AppData\Local\Temp\cc5W4KFY.s 			page 1


   1              		.cpu cortex-m4
   2              		.eabi_attribute 27, 1
   3              		.eabi_attribute 28, 1
   4              		.eabi_attribute 20, 1
   5              		.eabi_attribute 21, 1
   6              		.eabi_attribute 23, 3
   7              		.eabi_attribute 24, 1
   8              		.eabi_attribute 25, 1
   9              		.eabi_attribute 26, 1
  10              		.eabi_attribute 30, 2
  11              		.eabi_attribute 34, 1
  12              		.eabi_attribute 18, 4
  13              		.file	"process_image.c"
  14              		.text
  15              	.Ltext0:
  16              		.cfi_sections	.debug_frame
  17              		.section	.text.CaptureImage,"ax",%progbits
  18              		.align	1
  19              		.p2align 4,,15
  20              		.syntax unified
  21              		.thumb
  22              		.thumb_func
  23              		.fpu fpv4-sp-d16
  24              		.type	CaptureImage, %function
  25              	CaptureImage:
  26              	.LFB258:
  27              		.file 1 "process_image.c"
  28              		.loc 1 97 0
  29              		.cfi_startproc
  30              		@ Volatile: function does not return.
  31              		@ args = 0, pretend = 0, frame = 8
  32              		@ frame_needed = 0, uses_anonymous_args = 0
  33              	.LVL0:
  34 0000 80B5     		push	{r7, lr}
  35              		.cfi_def_cfa_offset 8
  36              		.cfi_offset 7, -8
  37              		.cfi_offset 14, -4
  38              	.LBB69:
  39              	.LBB70:
  40              		.file 2 "../../lib/e-puck2_main-processor/ChibiOS//os/rt/include/chregistry.h"
  41              		.loc 2 135 0
  42 0002 234C     		ldr	r4, .L8
  43              	.LBE70:
  44              	.LBE69:
  45              		.loc 1 97 0
  46 0004 234A     		ldr	r2, .L8+4
  47              	.LBB73:
  48              	.LBB71:
  49              		.loc 2 135 0
  50 0006 A369     		ldr	r3, [r4, #24]
  51 0008 2349     		ldr	r1, .L8+8
  52              	.LBE71:
  53              	.LBE73:
  54              		.loc 1 97 0
  55 000a 1668     		ldr	r6, [r2]
  56              	.LBB74:
  57              	.LBB72:
ARM GAS  C:\Users\shadi\AppData\Local\Temp\cc5W4KFY.s 			page 2


  58              		.loc 2 135 0
  59 000c 9961     		str	r1, [r3, #24]
  60              	.LBE72:
  61              	.LBE74:
  62              		.loc 1 97 0
  63 000e 86B0     		sub	sp, sp, #24
  64              		.cfi_def_cfa_offset 32
  65              		.loc 1 103 0
  66 0010 0223     		movs	r3, #2
  67 0012 2025     		movs	r5, #32
  68 0014 0A22     		movs	r2, #10
  69 0016 0021     		movs	r1, #0
  70 0018 0093     		str	r3, [sp]
  71              		.loc 1 97 0
  72 001a 0596     		str	r6, [sp, #20]
  73              		.loc 1 103 0
  74 001c 4FF42073 		mov	r3, #640
  75 0020 CDE90155 		strd	r5, r5, [sp, #4]
  76 0024 3020     		movs	r0, #48
  77              	.LVL1:
  78 0026 1D4E     		ldr	r6, .L8+12
  79              	.LBB75:
  80              	.LBB76:
  81              	.LBB77:
  82              	.LBB78:
  83              		.file 3 "../../lib/e-puck2_main-processor/ChibiOS//os/rt/include/chsys.h"
  84              		.loc 3 367 0
  85 0028 1D4F     		ldr	r7, .L8+16
  86              	.LBE78:
  87              	.LBE77:
  88              	.LBE76:
  89              	.LBE75:
  90              		.loc 1 103 0
  91 002a FFF7FEFF 		bl	po8030_advanced_config
  92              	.LVL2:
  93              		.loc 1 104 0
  94 002e FFF7FEFF 		bl	dcmi_enable_double_buffering
  95              	.LVL3:
  96              		.loc 1 105 0
  97 0032 0020     		movs	r0, #0
  98 0034 FFF7FEFF 		bl	dcmi_set_capture_mode
  99              	.LVL4:
 100              	.LBB96:
 101              	.LBB93:
 102              	.LBB83:
 103              	.LBB84:
 104              		.file 4 "../../lib/e-puck2_main-processor/ChibiOS//os/rt/include/chbsem.h"
 105              		.loc 4 271 0
 106 0038 B046     		mov	r8, r6
 107              	.LBE84:
 108              	.LBE83:
 109              	.LBE93:
 110              	.LBE96:
 111              		.loc 1 106 0
 112 003a FFF7FEFF 		bl	dcmi_prepare
 113              	.LVL5:
 114 003e 13E0     		b	.L4
ARM GAS  C:\Users\shadi\AppData\Local\Temp\cc5W4KFY.s 			page 3


 115              	.LVL6:
 116              	.L2:
 117              	.LBB97:
 118              	.LBB94:
 119              		.loc 4 286 0
 120 0040 FFF7FEFF 		bl	chSchRescheduleS
 121              	.LVL7:
 122              	.LBB86:
 123              	.LBB82:
 124              		.loc 3 360 0
 125 0044 FFF7FEFF 		bl	_dbg_check_unlock
 126              	.LVL8:
 127              		.loc 3 361 0
 128 0048 FFF7FEFF 		bl	_stats_stop_measure_crit_thd
 129              	.LVL9:
 130              		.loc 3 367 0
 131 004c 2368     		ldr	r3, [r4]
 132 004e A342     		cmp	r3, r4
 133 0050 07D0     		beq	.L3
 134 0052 A269     		ldr	r2, [r4, #24]
 135 0054 9B68     		ldr	r3, [r3, #8]
 136 0056 9268     		ldr	r2, [r2, #8]
 137 0058 9A42     		cmp	r2, r3
 138 005a 02D2     		bcs	.L3
 139 005c 3846     		mov	r0, r7
 140 005e FFF7FEFF 		bl	chSysHalt
 141              	.LVL10:
 142              	.L3:
 143              	.LBB79:
 144              	.LBB80:
 145              	.LBB81:
 146              		.file 5 "../../lib/e-puck2_main-processor/ChibiOS//os/ext/CMSIS/include/core_cmFunc.h"
 147              		.loc 5 546 0
 148 0062 0023     		movs	r3, #0
 149              		.syntax unified
 150              	@ 546 "../../lib/e-puck2_main-processor/ChibiOS//os/ext/CMSIS/include/core_cmFunc.h" 1
 151 0064 83F31188 		MSR basepri, r3
 152              	@ 0 "" 2
 153              	.LVL11:
 154              		.thumb
 155              		.syntax unified
 156              	.L4:
 157              	.LBE81:
 158              	.LBE80:
 159              	.LBE79:
 160              	.LBE82:
 161              	.LBE86:
 162              	.LBE94:
 163              	.LBE97:
 164              		.loc 1 110 0 discriminator 1
 165 0068 FFF7FEFF 		bl	dcmi_capture_start
 166              	.LVL12:
 167              		.loc 1 112 0 discriminator 1
 168 006c FFF7FEFF 		bl	wait_image_ready
 169              	.LVL13:
 170              	.LBB98:
 171              	.LBB95:
ARM GAS  C:\Users\shadi\AppData\Local\Temp\cc5W4KFY.s 			page 4


 172              	.LBB87:
 173              	.LBB88:
 174              	.LBB89:
 175              	.LBB90:
 176              	.LBB91:
 177              		.loc 5 546 0 discriminator 1
 178              		.syntax unified
 179              	@ 546 "../../lib/e-puck2_main-processor/ChibiOS//os/ext/CMSIS/include/core_cmFunc.h" 1
 180 0070 85F31188 		MSR basepri, r5
 181              	@ 0 "" 2
 182              	.LVL14:
 183              		.thumb
 184              		.syntax unified
 185              	.LBE91:
 186              	.LBE90:
 187              	.LBE89:
 188              		.loc 3 349 0 discriminator 1
 189 0074 FFF7FEFF 		bl	_stats_start_measure_crit_thd
 190              	.LVL15:
 191              		.loc 3 350 0 discriminator 1
 192 0078 FFF7FEFF 		bl	_dbg_check_lock
 193              	.LVL16:
 194              	.LBE88:
 195              	.LBE87:
 196              	.LBB92:
 197              	.LBB85:
 198              		.loc 4 268 0 discriminator 1
 199 007c FFF7FEFF 		bl	chDbgCheckClassI
 200              	.LVL17:
 201              		.loc 4 270 0 discriminator 1
 202 0080 B368     		ldr	r3, [r6, #8]
 203 0082 002B     		cmp	r3, #0
 204 0084 DCDC     		bgt	.L2
 205              		.loc 4 271 0
 206 0086 4046     		mov	r0, r8
 207 0088 FFF7FEFF 		bl	chSemSignalI
 208              	.LVL18:
 209 008c D8E7     		b	.L2
 210              	.L9:
 211 008e 00BF     		.align	2
 212              	.L8:
 213 0090 00000000 		.word	ch
 214 0094 00000000 		.word	__stack_chk_guard
 215 0098 00000000 		.word	.LANCHOR0
 216 009c 00000000 		.word	.LANCHOR1
 217 00a0 00000000 		.word	.LANCHOR2
 218              	.LBE85:
 219              	.LBE92:
 220              	.LBE95:
 221              	.LBE98:
 222              		.cfi_endproc
 223              	.LFE258:
 224              		.size	CaptureImage, .-CaptureImage
 225              		.section	.text.extract_line_width,"ax",%progbits
 226              		.align	1
 227              		.p2align 4,,15
 228              		.global	extract_line_width
ARM GAS  C:\Users\shadi\AppData\Local\Temp\cc5W4KFY.s 			page 5


 229              		.syntax unified
 230              		.thumb
 231              		.thumb_func
 232              		.fpu fpv4-sp-d16
 233              		.type	extract_line_width, %function
 234              	extract_line_width:
 235              	.LFB257:
 236              		.loc 1 29 0
 237              		.cfi_startproc
 238              		@ args = 0, pretend = 0, frame = 8
 239              		@ frame_needed = 0, uses_anonymous_args = 0
 240              	.LVL19:
 241 0000 2DE9F041 		push	{r4, r5, r6, r7, r8, lr}
 242              		.cfi_def_cfa_offset 24
 243              		.cfi_offset 4, -24
 244              		.cfi_offset 5, -20
 245              		.cfi_offset 6, -16
 246              		.cfi_offset 7, -12
 247              		.cfi_offset 8, -8
 248              		.cfi_offset 14, -4
 249 0004 344D     		ldr	r5, .L34
 250 0006 82B0     		sub	sp, sp, #8
 251              		.cfi_def_cfa_offset 32
 252              		.loc 1 29 0
 253 0008 2B68     		ldr	r3, [r5]
 254 000a 0193     		str	r3, [sp, #4]
 255              	.LVL20:
 256 000c 00F27F24 		addw	r4, r0, #639
 257 0010 431E     		subs	r3, r0, #1
 258              		.loc 1 34 0
 259 0012 0022     		movs	r2, #0
 260              	.LVL21:
 261              	.L11:
 262              	.LBB99:
 263              		.loc 1 38 0 discriminator 3
 264 0014 13F8011F 		ldrb	r1, [r3, #1]!	@ zero_extendqisi2
 265              		.loc 1 37 0 discriminator 3
 266 0018 9C42     		cmp	r4, r3
 267              		.loc 1 38 0 discriminator 3
 268 001a 0A44     		add	r2, r2, r1
 269              	.LVL22:
 270              		.loc 1 37 0 discriminator 3
 271 001c FAD1     		bne	.L11
 272              	.LVL23:
 273              	.LBE99:
 274              		.loc 1 40 0
 275 001e 2F4B     		ldr	r3, .L34+4
 276 0020 0178     		ldrb	r1, [r0]	@ zero_extendqisi2
 277 0022 A3FB0223 		umull	r2, r3, r3, r2
 278              	.LVL24:
 279              		.loc 1 41 0
 280 0026 C3F34F23 		ubfx	r3, r3, #9, #16
 281              	.LVL25:
 282              		.loc 1 42 0
 283 002a 03EB4307 		add	r7, r3, r3, lsl #1
 284 002e 03EB8707 		add	r7, r3, r7, lsl #2
 285              		.loc 1 41 0
ARM GAS  C:\Users\shadi\AppData\Local\Temp\cc5W4KFY.s 			page 6


 286 0032 C3EBC303 		rsb	r3, r3, r3, lsl #3
 287              	.LVL26:
 288              		.loc 1 42 0
 289 0036 BFB2     		uxth	r7, r7
 290              	.LVL27:
 291 0038 9BB2     		uxth	r3, r3
 292              		.loc 1 31 0
 293 003a 0026     		movs	r6, #0
 294              		.loc 1 47 0
 295 003c 40F2752C 		movw	ip, #629
 296              	.LVL28:
 297              	.L12:
 298              		.loc 1 50 0
 299 0040 01EB8101 		add	r1, r1, r1, lsl #2
 300 0044 721C     		adds	r2, r6, #1
 301 0046 B3EB410F 		cmp	r3, r1, lsl #1
 302 004a 92B2     		uxth	r2, r2
 303 004c 25DD     		ble	.L14
 304              		.loc 1 50 0 is_stmt 0 discriminator 1
 305 004e 8119     		adds	r1, r0, r6
 306 0050 897A     		ldrb	r1, [r1, #10]	@ zero_extendqisi2
 307 0052 01EB8101 		add	r1, r1, r1, lsl #2
 308 0056 B7EB410F 		cmp	r7, r1, lsl #1
 309 005a 1EDA     		bge	.L14
 310              	.LVL29:
 311              		.loc 1 57 0 is_stmt 1
 312 005c 6245     		cmp	r2, ip
 313 005e 28D8     		bhi	.L25
 314              		.loc 1 57 0 is_stmt 0 discriminator 1
 315 0060 AEB3     		cbz	r6, .L26
 316 0062 02F1FF3E 		add	lr, r2, #-1
 317 0066 8644     		add	lr, lr, r0
 318              	.LVL30:
 319              	.L22:
 320              		.loc 1 61 0 is_stmt 1
 321 0068 1EF8011F 		ldrb	r1, [lr, #1]!	@ zero_extendqisi2
 322 006c 01EB8108 		add	r8, r1, r1, lsl #2
 323 0070 B3EB480F 		cmp	r3, r8, lsl #1
 324 0074 94B2     		uxth	r4, r2
 325 0076 15DD     		ble	.L17
 326              		.loc 1 61 0 is_stmt 0 discriminator 1
 327 0078 1EF80A8C 		ldrb	r8, [lr, #-10]	@ zero_extendqisi2
 328 007c 08EB8808 		add	r8, r8, r8, lsl #2
 329 0080 B7EB480F 		cmp	r7, r8, lsl #1
 330 0084 0EDA     		bge	.L17
 331              	.LVL31:
 332              		.loc 1 77 0 is_stmt 1
 333 0086 A4EB060E 		sub	lr, r4, r6
 334 008a BEF1630F 		cmp	lr, #99
 335 008e 2246     		mov	r2, r4
 336 0090 17DC     		bgt	.L32
 337              	.LVL32:
 338              		.loc 1 47 0
 339 0092 6445     		cmp	r4, ip
 340 0094 0DD8     		bhi	.L25
 341 0096 2646     		mov	r6, r4
 342 0098 D2E7     		b	.L12
ARM GAS  C:\Users\shadi\AppData\Local\Temp\cc5W4KFY.s 			page 7


 343              	.LVL33:
 344              	.L14:
 345              		.loc 1 47 0 is_stmt 0 discriminator 1
 346 009a 6245     		cmp	r2, ip
 347 009c 09D8     		bhi	.L25
 348              	.LVL34:
 349              		.loc 1 47 0
 350 009e 1646     		mov	r6, r2
 351 00a0 815C     		ldrb	r1, [r0, r2]	@ zero_extendqisi2
 352 00a2 CDE7     		b	.L12
 353              	.LVL35:
 354              	.L17:
 355 00a4 0134     		adds	r4, r4, #1
 356 00a6 A4B2     		uxth	r4, r4
 357              	.LVL36:
 358              		.loc 1 60 0 is_stmt 1
 359 00a8 B4F5207F 		cmp	r4, #640
 360 00ac 02F10102 		add	r2, r2, #1
 361 00b0 DAD1     		bne	.L22
 362              	.LVL37:
 363              	.L25:
 364              		.loc 1 89 0
 365 00b2 0020     		movs	r0, #0
 366              	.LVL38:
 367              	.L13:
 368              		.loc 1 94 0
 369 00b4 019A     		ldr	r2, [sp, #4]
 370 00b6 2B68     		ldr	r3, [r5]
 371 00b8 9A42     		cmp	r2, r3
 372 00ba 0AD1     		bne	.L33
 373 00bc 02B0     		add	sp, sp, #8
 374              		.cfi_remember_state
 375              		.cfi_def_cfa_offset 24
 376              		@ sp needed
 377 00be BDE8F081 		pop	{r4, r5, r6, r7, r8, pc}
 378              	.LVL39:
 379              	.L32:
 380              		.cfi_restore_state
 381              		.loc 1 91 0
 382 00c2 3244     		add	r2, r2, r6
 383              	.LVL40:
 384 00c4 0649     		ldr	r1, .L34+8
 385 00c6 5310     		asrs	r3, r2, #1
 386 00c8 0B80     		strh	r3, [r1]	@ movhi
 387              		.loc 1 92 0
 388 00ca 0120     		movs	r0, #1
 389              	.LVL41:
 390 00cc F2E7     		b	.L13
 391              	.LVL42:
 392              	.L26:
 393              		.loc 1 89 0
 394 00ce 3046     		mov	r0, r6
 395              	.LVL43:
 396 00d0 F0E7     		b	.L13
 397              	.LVL44:
 398              	.L33:
 399              		.loc 1 94 0
ARM GAS  C:\Users\shadi\AppData\Local\Temp\cc5W4KFY.s 			page 8


 400 00d2 FFF7FEFF 		bl	__stack_chk_fail
 401              	.LVL45:
 402              	.L35:
 403 00d6 00BF     		.align	2
 404              	.L34:
 405 00d8 00000000 		.word	__stack_chk_guard
 406 00dc CDCCCCCC 		.word	-858993459
 407 00e0 00000000 		.word	.LANCHOR3
 408              		.cfi_endproc
 409              	.LFE257:
 410              		.size	extract_line_width, .-extract_line_width
 411              		.section	.text.ProcessImage,"ax",%progbits
 412              		.align	1
 413              		.p2align 4,,15
 414              		.syntax unified
 415              		.thumb
 416              		.thumb_func
 417              		.fpu fpv4-sp-d16
 418              		.type	ProcessImage, %function
 419              	ProcessImage:
 420              	.LFB259:
 421              		.loc 1 119 0
 422              		.cfi_startproc
 423              		@ args = 0, pretend = 0, frame = 656
 424              		@ frame_needed = 0, uses_anonymous_args = 0
 425              	.LVL46:
 426 0000 2DE9F04F 		push	{r4, r5, r6, r7, r8, r9, r10, fp, lr}
 427              		.cfi_def_cfa_offset 36
 428              		.cfi_offset 4, -36
 429              		.cfi_offset 5, -32
 430              		.cfi_offset 6, -28
 431              		.cfi_offset 7, -24
 432              		.cfi_offset 8, -20
 433              		.cfi_offset 9, -16
 434              		.cfi_offset 10, -12
 435              		.cfi_offset 11, -8
 436              		.cfi_offset 14, -4
 437              	.LBB121:
 438              	.LBB122:
 439              		.loc 2 135 0
 440 0004 6A4C     		ldr	r4, .L71
 441              	.LBE122:
 442              	.LBE121:
 443              		.loc 1 119 0
 444 0006 6B4B     		ldr	r3, .L71+4
 445              	.LBB124:
 446              	.LBB123:
 447              		.loc 2 135 0
 448 0008 A269     		ldr	r2, [r4, #24]
 449 000a 6B49     		ldr	r1, .L71+8
 450 000c 9161     		str	r1, [r2, #24]
 451              	.LBE123:
 452              	.LBE124:
 453              		.loc 1 119 0
 454 000e ADF5257D 		sub	sp, sp, #660
 455              		.cfi_def_cfa_offset 696
 456              		.loc 1 125 0
ARM GAS  C:\Users\shadi\AppData\Local\Temp\cc5W4KFY.s 			page 9


 457 0012 0DF10C09 		add	r9, sp, #12
 458              		.loc 1 119 0
 459 0016 1B68     		ldr	r3, [r3]
 460 0018 A393     		str	r3, [sp, #652]
 461              		.loc 1 128 0
 462 001a 0025     		movs	r5, #0
 463              		.loc 1 125 0
 464 001c 4846     		mov	r0, r9
 465              	.LVL47:
 466 001e 4FF42072 		mov	r2, #640
 467 0022 0021     		movs	r1, #0
 468 0024 FFF7FEFF 		bl	memset
 469              	.LVL48:
 470              		.loc 1 128 0
 471 0028 2F46     		mov	r7, r5
 472 002a 0195     		str	r5, [sp, #4]
 473              	.LVL49:
 474              	.L53:
 475              	.LBB125:
 476              	.LBB126:
 477              		.loc 4 143 0
 478 002c 6348     		ldr	r0, .L71+12
 479 002e FFF7FEFF 		bl	chSemWait
 480              	.LVL50:
 481              	.LBE126:
 482              	.LBE125:
 483              	.LBB127:
 484              	.LBB128:
 485              	.LBB129:
 486              	.LBB130:
 487              	.LBB131:
 488              	.LBB132:
 489              	.LBB133:
 490              		.loc 5 546 0
 491 0032 2023     		movs	r3, #32
 492              		.syntax unified
 493              	@ 546 "../../lib/e-puck2_main-processor/ChibiOS//os/ext/CMSIS/include/core_cmFunc.h" 1
 494 0034 83F31188 		MSR basepri, r3
 495              	@ 0 "" 2
 496              	.LVL51:
 497              		.thumb
 498              		.syntax unified
 499              	.LBE133:
 500              	.LBE132:
 501              	.LBE131:
 502              		.loc 3 349 0
 503 0038 FFF7FEFF 		bl	_stats_start_measure_crit_thd
 504              	.LVL52:
 505              		.loc 3 350 0
 506 003c FFF7FEFF 		bl	_dbg_check_lock
 507              	.LVL53:
 508              	.LBE130:
 509              	.LBE129:
 510              	.LBB134:
 511              	.LBB135:
 512              		.file 6 "../../lib/e-puck2_main-processor/ChibiOS//os/rt/include/chvt.h"
 513              		.loc 6 231 0
ARM GAS  C:\Users\shadi\AppData\Local\Temp\cc5W4KFY.s 			page 10


 514 0040 A66A     		ldr	r6, [r4, #40]
 515              	.LBE135:
 516              	.LBE134:
 517              	.LBB136:
 518              	.LBB137:
 519              		.loc 3 360 0
 520 0042 FFF7FEFF 		bl	_dbg_check_unlock
 521              	.LVL54:
 522              		.loc 3 361 0
 523 0046 FFF7FEFF 		bl	_stats_stop_measure_crit_thd
 524              	.LVL55:
 525              		.loc 3 367 0
 526 004a 2368     		ldr	r3, [r4]
 527 004c A342     		cmp	r3, r4
 528 004e 07D0     		beq	.L37
 529 0050 A269     		ldr	r2, [r4, #24]
 530 0052 9B68     		ldr	r3, [r3, #8]
 531 0054 9268     		ldr	r2, [r2, #8]
 532 0056 9A42     		cmp	r2, r3
 533 0058 02D2     		bcs	.L37
 534 005a 5948     		ldr	r0, .L71+16
 535 005c FFF7FEFF 		bl	chSysHalt
 536              	.LVL56:
 537              	.L37:
 538              	.LBB138:
 539              	.LBB139:
 540              	.LBB140:
 541              		.loc 5 546 0
 542 0060 4FF00008 		mov	r8, #0
 543              		.syntax unified
 544              	@ 546 "../../lib/e-puck2_main-processor/ChibiOS//os/ext/CMSIS/include/core_cmFunc.h" 1
 545 0064 88F31188 		MSR basepri, r8
 546              	@ 0 "" 2
 547              	.LVL57:
 548              		.thumb
 549              		.syntax unified
 550              	.LBE140:
 551              	.LBE139:
 552              	.LBE138:
 553              	.LBE137:
 554              	.LBE136:
 555              	.LBE128:
 556              	.LBE127:
 557              		.loc 1 138 0
 558 0068 FFF7FEFF 		bl	dcmi_get_last_image_ptr
 559              	.LVL58:
 560 006c 4346     		mov	r3, r8
 561 006e 8246     		mov	r10, r0
 562              	.LVL59:
 563              	.L38:
 564              	.LBB141:
 565              		.loc 1 144 0 discriminator 3
 566 0070 1AF80320 		ldrb	r2, [r10, r3]	@ zero_extendqisi2
 567 0074 C3F34E01 		ubfx	r1, r3, #1, #15
 568 0078 0233     		adds	r3, r3, #2
 569              	.LVL60:
 570 007a 22F00702 		bic	r2, r2, #7
ARM GAS  C:\Users\shadi\AppData\Local\Temp\cc5W4KFY.s 			page 11


 571              		.loc 1 141 0 discriminator 3
 572 007e B3F5A06F 		cmp	r3, #1280
 573              		.loc 1 144 0 discriminator 3
 574 0082 09F80120 		strb	r2, [r9, r1]
 575              		.loc 1 141 0 discriminator 3
 576 0086 F3D1     		bne	.L38
 577              	.LBE141:
 578              		.loc 1 146 0
 579 0088 4846     		mov	r0, r9
 580              	.LVL61:
 581 008a FFF7FEFF 		bl	extract_line_width
 582              	.LVL62:
 583 008e 0AF1FF3E 		add	lr, r10, #-1
 584 0092 8046     		mov	r8, r0
 585              	.LVL63:
 586 0094 0022     		movs	r2, #0
 587              	.LVL64:
 588              	.L41:
 589              	.LBB142:
 590              		.loc 1 156 0
 591 0096 501E     		subs	r0, r2, #1
 592 0098 1EF8011F 		ldrb	r1, [lr, #1]!	@ zero_extendqisi2
 593 009c 1FFA82FB 		uxth	fp, r2
 594              	.LVL65:
 595 00a0 4010     		asrs	r0, r0, #1
 596              		.loc 1 152 0
 597 00a2 1BF0010F 		tst	fp, #1
 598              		.loc 1 156 0
 599 00a6 4FEAE103 		asr	r3, r1, #3
 600              		.loc 1 154 0
 601 00aa 4FEA4111 		lsl	r1, r1, #5
 602              		.loc 1 156 0
 603 00ae 18BF     		it	ne
 604 00b0 19F80010 		ldrbne	r1, [r9, r0]	@ zero_extendqisi2
 605 00b4 03F01C03 		and	r3, r3, #28
 606              		.loc 1 153 0
 607 00b8 4FEA5B0C 		lsr	ip, fp, #1
 608              		.loc 1 156 0
 609 00bc 18BF     		it	ne
 610 00be 0B43     		orrne	r3, r3, r1
 611 00c0 02F10102 		add	r2, r2, #1
 612              		.loc 1 154 0
 613 00c4 0CBF     		ite	eq
 614 00c6 09F80C10 		strbeq	r1, [r9, ip]
 615              		.loc 1 156 0
 616 00ca 09F80030 		strbne	r3, [r9, r0]
 617              	.LVL66:
 618              		.loc 1 149 0
 619 00ce B2F5A06F 		cmp	r2, #1280
 620 00d2 E0D1     		bne	.L41
 621              	.LBE142:
 622              		.loc 1 159 0
 623 00d4 4846     		mov	r0, r9
 624 00d6 FFF7FEFF 		bl	extract_line_width
 625              	.LVL67:
 626 00da 0023     		movs	r3, #0
 627 00dc 8346     		mov	fp, r0
ARM GAS  C:\Users\shadi\AppData\Local\Temp\cc5W4KFY.s 			page 12


 628              	.LVL68:
 629              	.L42:
 630              	.LBB143:
 631              		.loc 1 164 0 discriminator 3
 632 00de 0AEB0302 		add	r2, r10, r3
 633 00e2 5910     		asrs	r1, r3, #1
 634 00e4 5278     		ldrb	r2, [r2, #1]	@ zero_extendqisi2
 635 00e6 0233     		adds	r3, r3, #2
 636              	.LVL69:
 637 00e8 D200     		lsls	r2, r2, #3
 638              		.loc 1 161 0 discriminator 3
 639 00ea B3F5A06F 		cmp	r3, #1280
 640              		.loc 1 164 0 discriminator 3
 641 00ee 09F80120 		strb	r2, [r9, r1]
 642              		.loc 1 161 0 discriminator 3
 643 00f2 F4D1     		bne	.L42
 644              	.LBE143:
 645              		.loc 1 166 0
 646 00f4 4846     		mov	r0, r9
 647 00f6 FFF7FEFF 		bl	extract_line_width
 648              	.LVL70:
 649              		.loc 1 168 0
 650 00fa 0028     		cmp	r0, #0
 651 00fc 3BD0     		beq	.L43
 652              		.loc 1 168 0 is_stmt 0 discriminator 1
 653 00fe B8F1000F 		cmp	r8, #0
 654 0102 41D0     		beq	.L44
 655              		.loc 1 168 0 discriminator 2
 656 0104 BBF1000F 		cmp	fp, #0
 657 0108 04D0     		beq	.L45
 658              		.loc 1 170 0 is_stmt 1
 659 010a 019B     		ldr	r3, [sp, #4]
 660 010c 2133     		adds	r3, r3, #33
 661              		.loc 1 169 0
 662 010e 2135     		adds	r5, r5, #33
 663              	.LVL71:
 664              		.loc 1 170 0
 665 0110 0193     		str	r3, [sp, #4]
 666              	.LVL72:
 667              		.loc 1 171 0
 668 0112 2137     		adds	r7, r7, #33
 669              	.LVL73:
 670              	.L45:
 671              		.loc 1 174 0
 672 0114 019B     		ldr	r3, [sp, #4]
 673 0116 3233     		adds	r3, r3, #50
 674 0118 0193     		str	r3, [sp, #4]
 675              	.LVL74:
 676              		.loc 1 175 0
 677 011a 3237     		adds	r7, r7, #50
 678              	.LVL75:
 679              		.loc 1 177 0
 680 011c BBF1000F 		cmp	fp, #0
 681 0120 08D0     		beq	.L55
 682              	.LVL76:
 683              	.L56:
 684              		.loc 1 178 0
ARM GAS  C:\Users\shadi\AppData\Local\Temp\cc5W4KFY.s 			page 13


 685 0122 019B     		ldr	r3, [sp, #4]
 686 0124 3233     		adds	r3, r3, #50
 687 0126 0193     		str	r3, [sp, #4]
 688              	.LVL77:
 689              		.loc 1 179 0
 690 0128 3235     		adds	r5, r5, #50
 691              	.LVL78:
 692              	.L54:
 693              		.loc 1 181 0 discriminator 1
 694 012a B8F1000F 		cmp	r8, #0
 695 012e 29D0     		beq	.L46
 696              	.LVL79:
 697              		.loc 1 183 0
 698 0130 3237     		adds	r7, r7, #50
 699              	.LVL80:
 700              		.loc 1 186 0
 701 0132 9635     		adds	r5, r5, #150
 702              	.LVL81:
 703              	.L55:
 704              		.loc 1 189 0
 705 0134 6437     		adds	r7, r7, #100
 706              	.LVL82:
 707              	.L58:
 708              		.loc 1 191 0
 709 0136 10B1     		cbz	r0, .L47
 710              	.L57:
 711              		.loc 1 192 0
 712 0138 019B     		ldr	r3, [sp, #4]
 713 013a 6433     		adds	r3, r3, #100
 714 013c 0193     		str	r3, [sp, #4]
 715              	.LVL83:
 716              	.L47:
 717              		.loc 1 194 0
 718 013e 214A     		ldr	r2, .L71+20
 719 0140 1378     		ldrb	r3, [r2]	@ zero_extendqisi2
 720 0142 0133     		adds	r3, r3, #1
 721 0144 DBB2     		uxtb	r3, r3
 722              		.loc 1 196 0
 723 0146 142B     		cmp	r3, #20
 724 0148 06D0     		beq	.L48
 725              	.LVL84:
 726              	.L70:
 727              		.loc 1 201 0 discriminator 1
 728 014a 1370     		strb	r3, [r2]
 729              	.L49:
 730              	.LVL85:
 731              		.loc 1 215 0
 732 014c 06F16401 		add	r1, r6, #100
 733 0150 3046     		mov	r0, r6
 734              	.LVL86:
 735 0152 FFF7FEFF 		bl	chThdSleepUntilWindowed
 736              	.LVL87:
 737              		.loc 1 135 0
 738 0156 69E7     		b	.L53
 739              	.LVL88:
 740              	.L48:
 741              		.loc 1 197 0
ARM GAS  C:\Users\shadi\AppData\Local\Temp\cc5W4KFY.s 			page 14


 742 0158 1A4A     		ldr	r2, .L71+20
 743 015a 0023     		movs	r3, #0
 744              		.loc 1 198 0
 745 015c AF42     		cmp	r7, r5
 746              		.loc 1 197 0
 747 015e 1370     		strb	r3, [r2]
 748              		.loc 1 199 0
 749 0160 019A     		ldr	r2, [sp, #4]
 750              		.loc 1 198 0
 751 0162 15D9     		bls	.L50
 752              		.loc 1 199 0
 753 0164 BA42     		cmp	r2, r7
 754 0166 1BD8     		bhi	.L52
 755              		.loc 1 200 0
 756 0168 174A     		ldr	r2, .L71+24
 757              		.loc 1 203 0
 758 016a 1D46     		mov	r5, r3
 759              	.LVL89:
 760              		.loc 1 200 0
 761 016c 0523     		movs	r3, #5
 762              		.loc 1 205 0
 763 016e 0195     		str	r5, [sp, #4]
 764              	.LVL90:
 765              		.loc 1 204 0
 766 0170 2F46     		mov	r7, r5
 767              	.LVL91:
 768              		.loc 1 200 0
 769 0172 1370     		strb	r3, [r2]
 770 0174 EAE7     		b	.L49
 771              	.LVL92:
 772              	.L43:
 773              		.loc 1 181 0
 774 0176 BBF1000F 		cmp	fp, #0
 775 017a D6D1     		bne	.L54
 776              		.loc 1 188 0
 777 017c B8F1000F 		cmp	r8, #0
 778 0180 D8D1     		bne	.L55
 779 0182 DCE7     		b	.L47
 780              	.L46:
 781              		.loc 1 186 0
 782 0184 6435     		adds	r5, r5, #100
 783              	.LVL93:
 784 0186 D6E7     		b	.L58
 785              	.L44:
 786              		.loc 1 177 0
 787 0188 BBF1000F 		cmp	fp, #0
 788 018c C9D1     		bne	.L56
 789 018e D3E7     		b	.L57
 790              	.L50:
 791              		.loc 1 201 0
 792 0190 AA42     		cmp	r2, r5
 793 0192 05D2     		bcs	.L52
 794              		.loc 1 203 0 discriminator 1
 795 0194 1D46     		mov	r5, r3
 796              	.LVL94:
 797              		.loc 1 205 0 discriminator 1
 798 0196 0195     		str	r5, [sp, #4]
ARM GAS  C:\Users\shadi\AppData\Local\Temp\cc5W4KFY.s 			page 15


 799              	.LVL95:
 800              		.loc 1 201 0 discriminator 1
 801 0198 0623     		movs	r3, #6
 802              		.loc 1 204 0 discriminator 1
 803 019a 2F46     		mov	r7, r5
 804              	.LVL96:
 805              		.loc 1 201 0 discriminator 1
 806 019c 0A4A     		ldr	r2, .L71+24
 807 019e D4E7     		b	.L70
 808              	.LVL97:
 809              	.L52:
 810              		.loc 1 199 0 discriminator 1
 811 01a0 094A     		ldr	r2, .L71+24
 812              		.loc 1 203 0 discriminator 1
 813 01a2 0025     		movs	r5, #0
 814              	.LVL98:
 815              		.loc 1 199 0 discriminator 1
 816 01a4 0423     		movs	r3, #4
 817 01a6 1370     		strb	r3, [r2]
 818              		.loc 1 205 0 discriminator 1
 819 01a8 0195     		str	r5, [sp, #4]
 820              	.LVL99:
 821              		.loc 1 204 0 discriminator 1
 822 01aa 2F46     		mov	r7, r5
 823              	.LVL100:
 824 01ac CEE7     		b	.L49
 825              	.L72:
 826 01ae 00BF     		.align	2
 827              	.L71:
 828 01b0 00000000 		.word	ch
 829 01b4 00000000 		.word	__stack_chk_guard
 830 01b8 00000000 		.word	.LANCHOR4
 831 01bc 00000000 		.word	.LANCHOR1
 832 01c0 00000000 		.word	.LANCHOR2
 833 01c4 00000000 		.word	.LANCHOR5
 834 01c8 00000000 		.word	.LANCHOR6
 835              		.cfi_endproc
 836              	.LFE259:
 837              		.size	ProcessImage, .-ProcessImage
 838              		.section	.text.get_distance_cm,"ax",%progbits
 839              		.align	1
 840              		.p2align 4,,15
 841              		.global	get_distance_cm
 842              		.syntax unified
 843              		.thumb
 844              		.thumb_func
 845              		.fpu fpv4-sp-d16
 846              		.type	get_distance_cm, %function
 847              	get_distance_cm:
 848              	.LFB260:
 849              		.loc 1 221 0
 850              		.cfi_startproc
 851              		@ args = 0, pretend = 0, frame = 8
 852              		@ frame_needed = 0, uses_anonymous_args = 0
 853 0000 00B5     		push	{lr}
 854              		.cfi_def_cfa_offset 4
 855              		.cfi_offset 14, -4
ARM GAS  C:\Users\shadi\AppData\Local\Temp\cc5W4KFY.s 			page 16


 856 0002 074B     		ldr	r3, .L77
 857 0004 83B0     		sub	sp, sp, #12
 858              		.cfi_def_cfa_offset 16
 859              		.loc 1 221 0
 860 0006 1A68     		ldr	r2, [r3]
 861 0008 0192     		str	r2, [sp, #4]
 862              		.loc 1 223 0
 863 000a 019A     		ldr	r2, [sp, #4]
 864 000c 1B68     		ldr	r3, [r3]
 865 000e 9A42     		cmp	r2, r3
 866 0010 04D1     		bne	.L76
 867 0012 9FED040A 		vldr.32	s0, .L77+4
 868 0016 03B0     		add	sp, sp, #12
 869              		.cfi_remember_state
 870              		.cfi_def_cfa_offset 4
 871              		@ sp needed
 872 0018 5DF804FB 		ldr	pc, [sp], #4
 873              	.L76:
 874              		.cfi_restore_state
 875 001c FFF7FEFF 		bl	__stack_chk_fail
 876              	.LVL101:
 877              	.L78:
 878              		.align	2
 879              	.L77:
 880 0020 00000000 		.word	__stack_chk_guard
 881 0024 00000000 		.word	0
 882              		.cfi_endproc
 883              	.LFE260:
 884              		.size	get_distance_cm, .-get_distance_cm
 885              		.section	.text.get_line_position,"ax",%progbits
 886              		.align	1
 887              		.p2align 4,,15
 888              		.global	get_line_position
 889              		.syntax unified
 890              		.thumb
 891              		.thumb_func
 892              		.fpu fpv4-sp-d16
 893              		.type	get_line_position, %function
 894              	get_line_position:
 895              	.LFB261:
 896              		.loc 1 225 0
 897              		.cfi_startproc
 898              		@ args = 0, pretend = 0, frame = 8
 899              		@ frame_needed = 0, uses_anonymous_args = 0
 900 0000 00B5     		push	{lr}
 901              		.cfi_def_cfa_offset 4
 902              		.cfi_offset 14, -4
 903 0002 074B     		ldr	r3, .L83
 904              		.loc 1 226 0
 905 0004 0749     		ldr	r1, .L83+4
 906              		.loc 1 225 0
 907 0006 1A68     		ldr	r2, [r3]
 908              		.loc 1 227 0
 909 0008 0888     		ldrh	r0, [r1]
 910              		.loc 1 225 0
 911 000a 83B0     		sub	sp, sp, #12
 912              		.cfi_def_cfa_offset 16
ARM GAS  C:\Users\shadi\AppData\Local\Temp\cc5W4KFY.s 			page 17


 913              		.loc 1 225 0
 914 000c 0192     		str	r2, [sp, #4]
 915              		.loc 1 227 0
 916 000e 019A     		ldr	r2, [sp, #4]
 917 0010 1B68     		ldr	r3, [r3]
 918 0012 9A42     		cmp	r2, r3
 919 0014 02D1     		bne	.L82
 920 0016 03B0     		add	sp, sp, #12
 921              		.cfi_remember_state
 922              		.cfi_def_cfa_offset 4
 923              		@ sp needed
 924 0018 5DF804FB 		ldr	pc, [sp], #4
 925              	.L82:
 926              		.cfi_restore_state
 927 001c FFF7FEFF 		bl	__stack_chk_fail
 928              	.LVL102:
 929              	.L84:
 930              		.align	2
 931              	.L83:
 932 0020 00000000 		.word	__stack_chk_guard
 933 0024 00000000 		.word	.LANCHOR3
 934              		.cfi_endproc
 935              	.LFE261:
 936              		.size	get_line_position, .-get_line_position
 937              		.section	.text.process_image_start,"ax",%progbits
 938              		.align	1
 939              		.p2align 4,,15
 940              		.global	process_image_start
 941              		.syntax unified
 942              		.thumb
 943              		.thumb_func
 944              		.fpu fpv4-sp-d16
 945              		.type	process_image_start, %function
 946              	process_image_start:
 947              	.LFB262:
 948              		.loc 1 229 0
 949              		.cfi_startproc
 950              		@ args = 0, pretend = 0, frame = 8
 951              		@ frame_needed = 0, uses_anonymous_args = 0
 952 0000 30B5     		push	{r4, r5, lr}
 953              		.cfi_def_cfa_offset 12
 954              		.cfi_offset 4, -12
 955              		.cfi_offset 5, -8
 956              		.cfi_offset 14, -4
 957 0002 0E4C     		ldr	r4, .L89
 958              		.loc 1 230 0
 959 0004 0E4B     		ldr	r3, .L89+4
 960              		.loc 1 229 0
 961 0006 2268     		ldr	r2, [r4]
 962              		.loc 1 230 0
 963 0008 0E48     		ldr	r0, .L89+8
 964              		.loc 1 229 0
 965 000a 85B0     		sub	sp, sp, #20
 966              		.cfi_def_cfa_offset 32
 967              		.loc 1 230 0
 968 000c 0025     		movs	r5, #0
 969              		.loc 1 229 0
ARM GAS  C:\Users\shadi\AppData\Local\Temp\cc5W4KFY.s 			page 18


 970 000e 0392     		str	r2, [sp, #12]
 971              		.loc 1 230 0
 972 0010 4FF4AF61 		mov	r1, #1400
 973 0014 4022     		movs	r2, #64
 974 0016 0095     		str	r5, [sp]
 975 0018 FFF7FEFF 		bl	chThdCreateStatic
 976              	.LVL103:
 977              		.loc 1 231 0
 978 001c 0A4B     		ldr	r3, .L89+12
 979 001e 0095     		str	r5, [sp]
 980 0020 4022     		movs	r2, #64
 981 0022 0A48     		ldr	r0, .L89+16
 982 0024 4FF41E71 		mov	r1, #632
 983 0028 FFF7FEFF 		bl	chThdCreateStatic
 984              	.LVL104:
 985              		.loc 1 232 0
 986 002c 039A     		ldr	r2, [sp, #12]
 987 002e 2368     		ldr	r3, [r4]
 988 0030 9A42     		cmp	r2, r3
 989 0032 01D1     		bne	.L88
 990 0034 05B0     		add	sp, sp, #20
 991              		.cfi_remember_state
 992              		.cfi_def_cfa_offset 12
 993              		@ sp needed
 994 0036 30BD     		pop	{r4, r5, pc}
 995              	.L88:
 996              		.cfi_restore_state
 997 0038 FFF7FEFF 		bl	__stack_chk_fail
 998              	.LVL105:
 999              	.L90:
 1000              		.align	2
 1001              	.L89:
 1002 003c 00000000 		.word	__stack_chk_guard
 1003 0040 00000000 		.word	ProcessImage
 1004 0044 00000000 		.word	.LANCHOR7
 1005 0048 00000000 		.word	CaptureImage
 1006 004c 00000000 		.word	.LANCHOR8
 1007              		.cfi_endproc
 1008              	.LFE262:
 1009              		.size	process_image_start, .-process_image_start
 1010              		.section	.text.color_seen,"ax",%progbits
 1011              		.align	1
 1012              		.p2align 4,,15
 1013              		.global	color_seen
 1014              		.syntax unified
 1015              		.thumb
 1016              		.thumb_func
 1017              		.fpu fpv4-sp-d16
 1018              		.type	color_seen, %function
 1019              	color_seen:
 1020              	.LFB263:
 1021              		.loc 1 234 0
 1022              		.cfi_startproc
 1023              		@ args = 0, pretend = 0, frame = 8
 1024              		@ frame_needed = 0, uses_anonymous_args = 0
 1025 0000 00B5     		push	{lr}
 1026              		.cfi_def_cfa_offset 4
ARM GAS  C:\Users\shadi\AppData\Local\Temp\cc5W4KFY.s 			page 19


 1027              		.cfi_offset 14, -4
 1028 0002 074B     		ldr	r3, .L95
 1029              		.loc 1 235 0
 1030 0004 0749     		ldr	r1, .L95+4
 1031              		.loc 1 234 0
 1032 0006 1A68     		ldr	r2, [r3]
 1033              		.loc 1 236 0
 1034 0008 0878     		ldrb	r0, [r1]	@ zero_extendqisi2
 1035              		.loc 1 234 0
 1036 000a 83B0     		sub	sp, sp, #12
 1037              		.cfi_def_cfa_offset 16
 1038              		.loc 1 234 0
 1039 000c 0192     		str	r2, [sp, #4]
 1040              		.loc 1 236 0
 1041 000e 019A     		ldr	r2, [sp, #4]
 1042 0010 1B68     		ldr	r3, [r3]
 1043 0012 9A42     		cmp	r2, r3
 1044 0014 02D1     		bne	.L94
 1045 0016 03B0     		add	sp, sp, #12
 1046              		.cfi_remember_state
 1047              		.cfi_def_cfa_offset 4
 1048              		@ sp needed
 1049 0018 5DF804FB 		ldr	pc, [sp], #4
 1050              	.L94:
 1051              		.cfi_restore_state
 1052 001c FFF7FEFF 		bl	__stack_chk_fail
 1053              	.LVL106:
 1054              	.L96:
 1055              		.align	2
 1056              	.L95:
 1057 0020 00000000 		.word	__stack_chk_guard
 1058 0024 00000000 		.word	.LANCHOR6
 1059              		.cfi_endproc
 1060              	.LFE263:
 1061              		.size	color_seen, .-color_seen
 1062              		.section	.bss.color,"aw",%nobits
 1063              		.set	.LANCHOR6,. + 0
 1064              		.type	color, %object
 1065              		.size	color, 1
 1066              	color:
 1067 0000 00       		.space	1
 1068              		.section	.bss.counter,"aw",%nobits
 1069              		.set	.LANCHOR5,. + 0
 1070              		.type	counter, %object
 1071              		.size	counter, 1
 1072              	counter:
 1073 0000 00       		.space	1
 1074              		.section	.bss.waCaptureImage,"aw",%nobits
 1075              		.align	3
 1076              		.set	.LANCHOR8,. + 0
 1077              		.type	waCaptureImage, %object
 1078              		.size	waCaptureImage, 632
 1079              	waCaptureImage:
 1080 0000 00000000 		.space	632
 1080      00000000 
 1080      00000000 
 1080      00000000 
ARM GAS  C:\Users\shadi\AppData\Local\Temp\cc5W4KFY.s 			page 20


 1080      00000000 
 1081              		.section	.bss.waProcessImage,"aw",%nobits
 1082              		.align	3
 1083              		.set	.LANCHOR7,. + 0
 1084              		.type	waProcessImage, %object
 1085              		.size	waProcessImage, 1400
 1086              	waProcessImage:
 1087 0000 00000000 		.space	1400
 1087      00000000 
 1087      00000000 
 1087      00000000 
 1087      00000000 
 1088              		.section	.data.image_ready_sem,"aw",%progbits
 1089              		.align	2
 1090              		.set	.LANCHOR1,. + 0
 1091              		.type	image_ready_sem, %object
 1092              		.size	image_ready_sem, 12
 1093              	image_ready_sem:
 1094 0000 00000000 		.word	image_ready_sem
 1095 0004 00000000 		.word	image_ready_sem
 1096 0008 00000000 		.word	0
 1097              		.section	.data.line_position,"aw",%progbits
 1098              		.align	1
 1099              		.set	.LANCHOR3,. + 0
 1100              		.type	line_position, %object
 1101              		.size	line_position, 2
 1102              	line_position:
 1103 0000 4001     		.short	320
 1104              		.section	.rodata.__FUNCTION__.11369,"a",%progbits
 1105              		.align	2
 1106              		.set	.LANCHOR0,. + 0
 1107              		.type	__FUNCTION__.11369, %object
 1108              		.size	__FUNCTION__.11369, 13
 1109              	__FUNCTION__.11369:
 1110 0000 43617074 		.ascii	"CaptureImage\000"
 1110      75726549 
 1110      6D616765 
 1110      00
 1111              		.section	.rodata.__FUNCTION__.11375,"a",%progbits
 1112              		.align	2
 1113              		.set	.LANCHOR4,. + 0
 1114              		.type	__FUNCTION__.11375, %object
 1115              		.size	__FUNCTION__.11375, 13
 1116              	__FUNCTION__.11375:
 1117 0000 50726F63 		.ascii	"ProcessImage\000"
 1117      65737349 
 1117      6D616765 
 1117      00
 1118              		.section	.rodata.__func__.7153,"a",%progbits
 1119              		.align	2
 1120              		.set	.LANCHOR2,. + 0
 1121              		.type	__func__.7153, %object
 1122              		.size	__func__.7153, 12
 1123              	__func__.7153:
 1124 0000 63685379 		.ascii	"chSysUnlock\000"
 1124      73556E6C 
 1124      6F636B00 
ARM GAS  C:\Users\shadi\AppData\Local\Temp\cc5W4KFY.s 			page 21


 1125              		.text
 1126              	.Letext0:
 1127              		.file 7 "c:\\users\\shadi\\downloads\\eclipse_e-puck2\\tools\\gcc-arm-none-eabi-7-2017-q4-major-wi
 1128              		.file 8 "c:\\users\\shadi\\downloads\\eclipse_e-puck2\\tools\\gcc-arm-none-eabi-7-2017-q4-major-wi
 1129              		.file 9 "c:\\users\\shadi\\downloads\\eclipse_e-puck2\\tools\\gcc-arm-none-eabi-7-2017-q4-major-wi
 1130              		.file 10 "../../lib/e-puck2_main-processor/ChibiOS//os/rt/ports/ARMCMx/compilers/GCC/chtypes.h"
 1131              		.file 11 "../../lib/e-puck2_main-processor/ChibiOS//os/rt/include/chsystypes.h"
 1132              		.file 12 "../../lib/e-puck2_main-processor/ChibiOS//os/rt/include/chschd.h"
 1133              		.file 13 "../../lib/e-puck2_main-processor/ChibiOS//os/ext/CMSIS/include/core_cm4.h"
 1134              		.file 14 "../../lib/e-puck2_main-processor/ChibiOS//os/ext/CMSIS/ST/system_stm32f4xx.h"
 1135              		.file 15 "../../lib/e-puck2_main-processor/ChibiOS//os/ext/CMSIS/ST/stm32f407xx.h"
 1136              		.file 16 "../../lib/e-puck2_main-processor/ChibiOS//os/rt/ports/ARMCMx/chcore.h"
 1137              		.file 17 "../../lib/e-puck2_main-processor/ChibiOS//os/rt/ports/ARMCMx/chcore_v7m.h"
 1138              		.file 18 "../../lib/e-puck2_main-processor/ChibiOS//os/rt/include/chdebug.h"
 1139              		.file 19 "../../lib/e-puck2_main-processor/ChibiOS//os/rt/include/chtm.h"
 1140              		.file 20 "../../lib/e-puck2_main-processor/ChibiOS//os/rt/include/chstats.h"
 1141              		.file 21 "../../lib/e-puck2_main-processor/ChibiOS//os/rt/include/chsem.h"
 1142              		.file 22 "../../lib/e-puck2_main-processor/ChibiOS//os/rt/include/chmtx.h"
 1143              		.file 23 "../../lib/e-puck2_main-processor/ChibiOS//os/rt/include/chevents.h"
 1144              		.file 24 "../../lib/e-puck2_main-processor/ChibiOS//os/rt/include/chqueues.h"
 1145              		.file 25 "../../lib/e-puck2_main-processor/ChibiOS//os/hal/ports/STM32/STM32F4xx/stm32_dma.h"
 1146              		.file 26 "../../lib/e-puck2_main-processor/ChibiOS//os/hal/include/hal_ioblock.h"
 1147              		.file 27 "../../lib/e-puck2_main-processor/ChibiOS//os/hal/ports/STM32/LLD/GPIOv2/pal_lld.h"
 1148              		.file 28 "../../lib/e-puck2_main-processor/ChibiOS//os/hal/include/adc.h"
 1149              		.file 29 "../../lib/e-puck2_main-processor/ChibiOS//os/hal/ports/STM32/STM32F4xx/adc_lld.h"
 1150              		.file 30 "../../lib/e-puck2_main-processor/ChibiOS//os/hal/include/can.h"
 1151              		.file 31 "../../lib/e-puck2_main-processor/ChibiOS//os/hal/ports/STM32/LLD/can_lld.h"
 1152              		.file 32 "../../lib/e-puck2_main-processor/ChibiOS//os/hal/include/dac.h"
 1153              		.file 33 "../../lib/e-puck2_main-processor/ChibiOS//os/hal/ports/STM32/LLD/DACv1/dac_lld.h"
 1154              		.file 34 "../../lib/e-puck2_main-processor/ChibiOS//os/hal/include/ext.h"
 1155              		.file 35 "../../lib/e-puck2_main-processor/ChibiOS//os/hal/ports/STM32/LLD/ext_lld.h"
 1156              		.file 36 "../../lib/e-puck2_main-processor/ChibiOS//os/hal/include/gpt.h"
 1157              		.file 37 "../../lib/e-puck2_main-processor/ChibiOS//os/hal/ports/STM32/LLD/TIMv1/gpt_lld.h"
 1158              		.file 38 "../../lib/e-puck2_main-processor/ChibiOS//os/hal/ports/STM32/LLD/TIMv1/stm32_tim.h"
 1159              		.file 39 "../../lib/e-puck2_main-processor/ChibiOS//os/hal/include/i2c.h"
 1160              		.file 40 "../../lib/e-puck2_main-processor/ChibiOS//os/hal/ports/STM32/LLD/I2Cv1/i2c_lld.h"
 1161              		.file 41 "../../lib/e-puck2_main-processor/ChibiOS//os/hal/include/i2s.h"
 1162              		.file 42 "../../lib/e-puck2_main-processor/ChibiOS//os/hal/ports/STM32/LLD/SPIv1/i2s_lld.h"
 1163              		.file 43 "../../lib/e-puck2_main-processor/ChibiOS//os/hal/include/pwm.h"
 1164              		.file 44 "../../lib/e-puck2_main-processor/ChibiOS//os/hal/ports/STM32/LLD/TIMv1/pwm_lld.h"
 1165              		.file 45 "../../lib/e-puck2_main-processor/ChibiOS//os/hal/include/serial.h"
 1166              		.file 46 "../../lib/e-puck2_main-processor/ChibiOS//os/hal/ports/STM32/LLD/USARTv1/serial_lld.h"
 1167              		.file 47 "../../lib/e-puck2_main-processor/ChibiOS//os/hal/include/sdc.h"
 1168              		.file 48 "../../lib/e-puck2_main-processor/ChibiOS//os/hal/ports/STM32/LLD/sdc_lld.h"
 1169              		.file 49 "../../lib/e-puck2_main-processor/ChibiOS//os/hal/include/spi.h"
 1170              		.file 50 "../../lib/e-puck2_main-processor/ChibiOS//os/hal/ports/STM32/LLD/SPIv1/spi_lld.h"
 1171              		.file 51 "../../lib/e-puck2_main-processor/ChibiOS//os/hal/include/usb.h"
 1172              		.file 52 "../../lib/e-puck2_main-processor/ChibiOS//os/hal/ports/STM32/LLD/OTGv1/usb_lld.h"
 1173              		.file 53 "../../lib/e-puck2_main-processor/ChibiOS//os/hal/ports/STM32/LLD/OTGv1/stm32_otg.h"
 1174              		.file 54 "../../lib/e-puck2_main-processor/ChibiOS//os/hal/include/serial_usb.h"
 1175              		.file 55 "../../lib/e-puck2_main-processor/src/usbcfg.h"
 1176              		.file 56 "../../lib/e-puck2_main-processor/ChibiOS_ext/os/hal/include/../ports/STM32/STM32F4xx/dcm
 1177              		.file 57 "../../lib/e-puck2_main-processor/src/camera/po8030.h"
 1178              		.file 58 "../../lib/e-puck2_main-processor/src/camera/dcmi_camera.h"
 1179              		.file 59 "c:\\users\\shadi\\downloads\\eclipse_e-puck2\\tools\\gcc-arm-none-eabi-7-2017-q4-major-w
 1180              		.file 60 "c:\\users\\shadi\\downloads\\eclipse_e-puck2\\tools\\gcc-arm-none-eabi-7-2017-q4-major-w
 1181              		.file 61 "c:\\users\\shadi\\downloads\\eclipse_e-puck2\\tools\\gcc-arm-none-eabi-7-2017-q4-major-w
ARM GAS  C:\Users\shadi\AppData\Local\Temp\cc5W4KFY.s 			page 22


 1182              		.file 62 "../../lib/e-puck2_main-processor/src/msgbus/messagebus.h"
 1183              		.file 63 "c:\\users\\shadi\\downloads\\eclipse_e-puck2\\tools\\gcc-arm-none-eabi-7-2017-q4-major-w
 1184              		.file 64 "c:\\users\\shadi\\downloads\\eclipse_e-puck2\\tools\\gcc-arm-none-eabi-7-2017-q4-major-w
 1185              		.file 65 "../../lib/e-puck2_main-processor/src/parameter/parameter.h"
 1186              		.file 66 "./main.h"
 1187              		.file 67 "../../lib/e-puck2_main-processor/ChibiOS//os/rt/include/chthreads.h"
 1188              		.file 68 "<built-in>"