ARM GAS  C:\Users\shadi\AppData\Local\Temp\cc1kDezh.s 			page 1


   1              		.cpu cortex-m4
   2              		.eabi_attribute 27, 1
   3              		.eabi_attribute 28, 1
   4              		.eabi_attribute 20, 1
   5              		.eabi_attribute 21, 1
   6              		.eabi_attribute 23, 3
   7              		.eabi_attribute 24, 1
   8              		.eabi_attribute 25, 1
   9              		.eabi_attribute 26, 1
  10              		.eabi_attribute 30, 2
  11              		.eabi_attribute 34, 1
  12              		.eabi_attribute 18, 4
  13              		.file	"serial_lld.c"
  14              		.text
  15              	.Ltext0:
  16              		.cfi_sections	.debug_frame
  17              		.section	.text.notify3,"ax",%progbits
  18              		.align	1
  19              		.p2align 4,,15
  20              		.syntax unified
  21              		.thumb
  22              		.thumb_func
  23              		.fpu fpv4-sp-d16
  24              		.type	notify3, %function
  25              	notify3:
  26              	.LFB260:
  27              		.file 1 "../../lib/e-puck2_main-processor/ChibiOS//os/hal/ports/STM32/LLD/USARTv1/serial_lld.c"
  28              		.loc 1 224 0
  29              		.cfi_startproc
  30              		@ args = 0, pretend = 0, frame = 8
  31              		@ frame_needed = 0, uses_anonymous_args = 0
  32              	.LVL0:
  33 0000 00B5     		push	{lr}
  34              		.cfi_def_cfa_offset 4
  35              		.cfi_offset 14, -4
  36 0002 094A     		ldr	r2, .L6
  37              		.loc 1 227 0
  38 0004 0949     		ldr	r1, .L6+4
  39              		.loc 1 224 0
  40 0006 1368     		ldr	r3, [r2]
  41 0008 83B0     		sub	sp, sp, #12
  42              		.cfi_def_cfa_offset 16
  43              		.loc 1 224 0
  44 000a 0193     		str	r3, [sp, #4]
  45              		.loc 1 227 0
  46 000c CB68     		ldr	r3, [r1, #12]
  47 000e 43F08003 		orr	r3, r3, #128
  48 0012 CB60     		str	r3, [r1, #12]
  49              		.loc 1 228 0
  50 0014 0199     		ldr	r1, [sp, #4]
  51 0016 1368     		ldr	r3, [r2]
  52 0018 9942     		cmp	r1, r3
  53 001a 02D1     		bne	.L5
  54 001c 03B0     		add	sp, sp, #12
  55              		.cfi_remember_state
  56              		.cfi_def_cfa_offset 4
  57              		@ sp needed
ARM GAS  C:\Users\shadi\AppData\Local\Temp\cc1kDezh.s 			page 2


  58 001e 5DF804FB 		ldr	pc, [sp], #4
  59              	.L5:
  60              		.cfi_restore_state
  61 0022 FFF7FEFF 		bl	__stack_chk_fail
  62              	.LVL1:
  63              	.L7:
  64 0026 00BF     		.align	2
  65              	.L6:
  66 0028 00000000 		.word	__stack_chk_guard
  67 002c 00480040 		.word	1073760256
  68              		.cfi_endproc
  69              	.LFE260:
  70              		.size	notify3, .-notify3
  71              		.section	.text.VectorDC,"ax",%progbits
  72              		.align	1
  73              		.p2align 4,,15
  74              		.global	VectorDC
  75              		.syntax unified
  76              		.thumb
  77              		.thumb_func
  78              		.fpu fpv4-sp-d16
  79              		.type	VectorDC, %function
  80              	VectorDC:
  81              	.LFB261:
  82              		.loc 1 306 0
  83              		.cfi_startproc
  84              		@ args = 0, pretend = 0, frame = 8
  85              		@ frame_needed = 0, uses_anonymous_args = 0
  86 0000 2DE9F047 		push	{r4, r5, r6, r7, r8, r9, r10, lr}
  87              		.cfi_def_cfa_offset 32
  88              		.cfi_offset 4, -32
  89              		.cfi_offset 5, -28
  90              		.cfi_offset 6, -24
  91              		.cfi_offset 7, -20
  92              		.cfi_offset 8, -16
  93              		.cfi_offset 9, -12
  94              		.cfi_offset 10, -8
  95              		.cfi_offset 14, -4
  96 0004 DFF89081 		ldr	r8, .L66+12
  97              	.LBB256:
  98              	.LBB257:
  99              		.loc 1 154 0
 100 0008 604F     		ldr	r7, .L66
 101              	.LBE257:
 102              	.LBE256:
 103              		.loc 1 306 0
 104 000a D8F80030 		ldr	r3, [r8]
 105 000e 82B0     		sub	sp, sp, #8
 106              		.cfi_def_cfa_offset 40
 107              		.loc 1 306 0
 108 0010 0193     		str	r3, [sp, #4]
 109              		.loc 1 308 0
 110 0012 FFF7FEFF 		bl	_stats_increase_irq
 111              	.LVL2:
 112 0016 FFF7FEFF 		bl	_dbg_check_enter_isr
 113              	.LVL3:
 114              	.LBB338:
ARM GAS  C:\Users\shadi\AppData\Local\Temp\cc1kDezh.s 			page 3


 115              	.LBB336:
 116              		.loc 1 154 0
 117 001a 7D6F     		ldr	r5, [r7, #116]
 118              	.LVL4:
 119              		.loc 1 155 0
 120 001c D5F80CA0 		ldr	r10, [r5, #12]
 121              	.LVL5:
 122              		.loc 1 156 0
 123 0020 2B68     		ldr	r3, [r5]
 124              		.loc 1 159 0
 125 0022 DA05     		lsls	r2, r3, #23
 126              		.loc 1 156 0
 127 0024 9CB2     		uxth	r4, r3
 128              	.LVL6:
 129              		.loc 1 159 0
 130 0026 6ED4     		bmi	.L59
 131              	.L9:
 132              	.LVL7:
 133              	.LBB258:
 134              	.LBB259:
 135              	.LBB260:
 136              	.LBB261:
 137              	.LBB262:
 138              	.LBB263:
 139              	.LBB264:
 140              		.file 2 "../../lib/e-puck2_main-processor/ChibiOS//os/ext/CMSIS/include/core_cmFunc.h"
 141              		.loc 2 546 0
 142 0028 2023     		movs	r3, #32
 143              		.syntax unified
 144              	@ 546 "../../lib/e-puck2_main-processor/ChibiOS//os/ext/CMSIS/include/core_cmFunc.h" 1
 145 002a 83F31188 		MSR basepri, r3
 146              	@ 0 "" 2
 147              	.LVL8:
 148              		.thumb
 149              		.syntax unified
 150              	.LBE264:
 151              	.LBE263:
 152              	.LBE262:
 153              	.LBE261:
 154              		.file 3 "../../lib/e-puck2_main-processor/ChibiOS//os/rt/include/chsys.h"
 155              		.loc 3 389 0
 156 002e FFF7FEFF 		bl	_stats_start_measure_crit_isr
 157              	.LVL9:
 158              		.loc 3 390 0
 159 0032 FFF7FEFF 		bl	_dbg_check_lock_from_isr
 160              	.LVL10:
 161              	.LBE260:
 162              	.LBE259:
 163              	.LBE258:
 164              		.loc 1 168 0
 165 0036 14F02F0F 		tst	r4, #47
 166 003a 2DD0     		beq	.L10
 167              	.LBB265:
 168              	.LBB266:
 169              	.LBB267:
 170              	.LBB268:
 171              	.LBB269:
ARM GAS  C:\Users\shadi\AppData\Local\Temp\cc1kDezh.s 			page 4


 172              		.file 4 "../../lib/e-puck2_main-processor/ChibiOS//os/hal/osal/rt/osal.h"
 173              		.loc 4 798 0
 174 003c 544E     		ldr	r6, .L66+4
 175              	.LBE269:
 176              	.LBE268:
 177              	.LBE267:
 178              	.LBE266:
 179              		.loc 1 177 0
 180 003e A6F10409 		sub	r9, r6, #4
 181 0042 07E0     		b	.L17
 182              	.L11:
 183              		.loc 1 176 0
 184 0044 A006     		lsls	r0, r4, #26
 185              		.loc 1 175 0
 186 0046 6968     		ldr	r1, [r5, #4]
 187              	.LVL11:
 188              		.loc 1 176 0
 189 0048 1DD4     		bmi	.L60
 190              	.L16:
 191              		.loc 1 178 0
 192 004a 2C68     		ldr	r4, [r5]
 193              	.LVL12:
 194 004c A4B2     		uxth	r4, r4
 195              	.LVL13:
 196              	.LBE265:
 197              		.loc 1 168 0
 198 004e 14F02F0F 		tst	r4, #47
 199 0052 21D0     		beq	.L10
 200              	.LVL14:
 201              	.L17:
 202              	.LBB274:
 203              		.loc 1 173 0
 204 0054 2307     		lsls	r3, r4, #28
 205 0056 F5D0     		beq	.L11
 206              	.LVL15:
 207              	.LBB273:
 208              	.LBB272:
 209              		.loc 1 138 0
 210 0058 14F0080F 		tst	r4, #8
 211 005c 0CBF     		ite	eq
 212 005e 0021     		moveq	r1, #0
 213 0060 8021     		movne	r1, #128
 214              	.LVL16:
 215              		.loc 1 139 0
 216 0062 E007     		lsls	r0, r4, #31
 217              		.loc 1 140 0
 218 0064 48BF     		it	mi
 219 0066 41F02001 		orrmi	r1, r1, #32
 220              	.LVL17:
 221              		.loc 1 141 0
 222 006a A207     		lsls	r2, r4, #30
 223              		.loc 1 142 0
 224 006c 48BF     		it	mi
 225 006e 41F04001 		orrmi	r1, r1, #64
 226              	.LVL18:
 227              		.loc 1 143 0
 228 0072 6307     		lsls	r3, r4, #29
ARM GAS  C:\Users\shadi\AppData\Local\Temp\cc1kDezh.s 			page 5


 229              		.loc 1 144 0
 230 0074 48BF     		it	mi
 231 0076 41F48071 		orrmi	r1, r1, #256
 232              	.LVL19:
 233              	.LBB271:
 234              	.LBB270:
 235              		.loc 4 798 0
 236 007a 3046     		mov	r0, r6
 237 007c FFF7FEFF 		bl	chEvtBroadcastFlagsI
 238              	.LVL20:
 239              	.LBE270:
 240              	.LBE271:
 241              	.LBE272:
 242              	.LBE273:
 243              		.loc 1 176 0
 244 0080 A006     		lsls	r0, r4, #26
 245              		.loc 1 175 0
 246 0082 6968     		ldr	r1, [r5, #4]
 247              	.LVL21:
 248              		.loc 1 176 0
 249 0084 E1D5     		bpl	.L16
 250              	.LVL22:
 251              	.L60:
 252              		.loc 1 177 0
 253 0086 C9B2     		uxtb	r1, r1
 254 0088 4846     		mov	r0, r9
 255 008a FFF7FEFF 		bl	sdIncomingDataI
 256              	.LVL23:
 257              		.loc 1 178 0
 258 008e 2C68     		ldr	r4, [r5]
 259              	.LVL24:
 260 0090 A4B2     		uxth	r4, r4
 261              	.LVL25:
 262              	.LBE274:
 263              		.loc 1 168 0
 264 0092 14F02F0F 		tst	r4, #47
 265 0096 DDD1     		bne	.L17
 266              	.L10:
 267              	.LBB275:
 268              	.LBB276:
 269              	.LBB277:
 270              		.loc 3 408 0
 271 0098 FFF7FEFF 		bl	_dbg_check_unlock_from_isr
 272              	.LVL26:
 273              		.loc 3 409 0
 274 009c FFF7FEFF 		bl	_stats_stop_measure_crit_isr
 275              	.LVL27:
 276              	.LBB278:
 277              	.LBB279:
 278              	.LBB280:
 279              	.LBB281:
 280              		.loc 2 546 0
 281 00a0 0023     		movs	r3, #0
 282              		.syntax unified
 283              	@ 546 "../../lib/e-puck2_main-processor/ChibiOS//os/ext/CMSIS/include/core_cmFunc.h" 1
 284 00a2 83F31188 		MSR basepri, r3
 285              	@ 0 "" 2
ARM GAS  C:\Users\shadi\AppData\Local\Temp\cc1kDezh.s 			page 6


 286              	.LVL28:
 287              		.thumb
 288              		.syntax unified
 289              	.LBE281:
 290              	.LBE280:
 291              	.LBE279:
 292              	.LBE278:
 293              	.LBE277:
 294              	.LBE276:
 295              	.LBE275:
 296              		.loc 1 183 0
 297 00a6 1AF0800F 		tst	r10, #128
 298 00aa 01D0     		beq	.L18
 299 00ac 2206     		lsls	r2, r4, #24
 300 00ae 41D4     		bmi	.L61
 301              	.L18:
 302              		.loc 1 197 0
 303 00b0 6306     		lsls	r3, r4, #25
 304 00b2 0BD4     		bmi	.L62
 305              	.L21:
 306              	.LVL29:
 307              	.LBE336:
 308              	.LBE338:
 309              		.loc 1 312 0
 310 00b4 FFF7FEFF 		bl	_dbg_check_leave_isr
 311              	.LVL30:
 312 00b8 019A     		ldr	r2, [sp, #4]
 313 00ba D8F80030 		ldr	r3, [r8]
 314 00be 9A42     		cmp	r2, r3
 315 00c0 61D1     		bne	.L63
 316              		.loc 1 313 0
 317 00c2 02B0     		add	sp, sp, #8
 318              		.cfi_remember_state
 319              		.cfi_def_cfa_offset 32
 320              		@ sp needed
 321 00c4 BDE8F047 		pop	{r4, r5, r6, r7, r8, r9, r10, lr}
 322              		.cfi_restore 14
 323              		.cfi_restore 10
 324              		.cfi_restore 9
 325              		.cfi_restore 8
 326              		.cfi_restore 7
 327              		.cfi_restore 6
 328              		.cfi_restore 5
 329              		.cfi_restore 4
 330              		.cfi_def_cfa_offset 0
 331              	.LVL31:
 332              		.loc 1 312 0
 333 00c8 FFF7FEBF 		b	_port_irq_epilogue
 334              	.LVL32:
 335              	.L62:
 336              		.cfi_restore_state
 337              	.LBB339:
 338              	.LBB337:
 339              	.LBB282:
 340              	.LBB283:
 341              	.LBB284:
 342              	.LBB285:
ARM GAS  C:\Users\shadi\AppData\Local\Temp\cc1kDezh.s 			page 7


 343              	.LBB286:
 344              	.LBB287:
 345              	.LBB288:
 346              		.loc 2 546 0
 347 00cc 2023     		movs	r3, #32
 348              		.syntax unified
 349              	@ 546 "../../lib/e-puck2_main-processor/ChibiOS//os/ext/CMSIS/include/core_cmFunc.h" 1
 350 00ce 83F31188 		MSR basepri, r3
 351              	@ 0 "" 2
 352              	.LVL33:
 353              		.thumb
 354              		.syntax unified
 355              	.LBE288:
 356              	.LBE287:
 357              	.LBE286:
 358              	.LBE285:
 359              		.loc 3 389 0
 360 00d2 FFF7FEFF 		bl	_stats_start_measure_crit_isr
 361              	.LVL34:
 362              		.loc 3 390 0
 363 00d6 FFF7FEFF 		bl	_dbg_check_lock_from_isr
 364              	.LVL35:
 365              	.LBE284:
 366              	.LBE283:
 367              	.LBE282:
 368              	.LBB289:
 369              	.LBB290:
 370              		.file 5 "../../lib/e-puck2_main-processor/ChibiOS//os/rt/include/chqueues.h"
 371              		.loc 5 388 0
 372 00da FFF7FEFF 		bl	chDbgCheckClassI
 373              	.LVL36:
 374              		.loc 5 390 0
 375 00de D7E91123 		ldrd	r2, r3, [r7, #68]
 376 00e2 9A42     		cmp	r2, r3
 377 00e4 3BD0     		beq	.L64
 378              	.LVL37:
 379              	.L22:
 380              	.LBE290:
 381              	.LBE289:
 382              		.loc 1 201 0
 383 00e6 4FF6BF73 		movw	r3, #65471
 384 00ea 0AEA0303 		and	r3, r10, r3
 385              		.loc 1 202 0
 386 00ee 6FF04002 		mvn	r2, #64
 387              		.loc 1 201 0
 388 00f2 EB60     		str	r3, [r5, #12]
 389              		.loc 1 202 0
 390 00f4 2A60     		str	r2, [r5]
 391              	.LBB292:
 392              	.LBB293:
 393              	.LBB294:
 394              		.loc 3 408 0
 395 00f6 FFF7FEFF 		bl	_dbg_check_unlock_from_isr
 396              	.LVL38:
 397              		.loc 3 409 0
 398 00fa FFF7FEFF 		bl	_stats_stop_measure_crit_isr
 399              	.LVL39:
ARM GAS  C:\Users\shadi\AppData\Local\Temp\cc1kDezh.s 			page 8


 400              	.LBB295:
 401              	.LBB296:
 402              	.LBB297:
 403              	.LBB298:
 404              		.loc 2 546 0
 405 00fe 0023     		movs	r3, #0
 406              		.syntax unified
 407              	@ 546 "../../lib/e-puck2_main-processor/ChibiOS//os/ext/CMSIS/include/core_cmFunc.h" 1
 408 0100 83F31188 		MSR basepri, r3
 409              	@ 0 "" 2
 410              	.LVL40:
 411              		.thumb
 412              		.syntax unified
 413 0104 D6E7     		b	.L21
 414              	.L59:
 415              	.LVL41:
 416              	.LBE298:
 417              	.LBE297:
 418              	.LBE296:
 419              	.LBE295:
 420              	.LBE294:
 421              	.LBE293:
 422              	.LBE292:
 423              	.LBB299:
 424              	.LBB300:
 425              	.LBB301:
 426              	.LBB302:
 427              	.LBB303:
 428              	.LBB304:
 429              	.LBB305:
 430 0106 2023     		movs	r3, #32
 431              		.syntax unified
 432              	@ 546 "../../lib/e-puck2_main-processor/ChibiOS//os/ext/CMSIS/include/core_cmFunc.h" 1
 433 0108 83F31188 		MSR basepri, r3
 434              	@ 0 "" 2
 435              	.LVL42:
 436              		.thumb
 437              		.syntax unified
 438              	.LBE305:
 439              	.LBE304:
 440              	.LBE303:
 441              	.LBE302:
 442              		.loc 3 389 0
 443 010c FFF7FEFF 		bl	_stats_start_measure_crit_isr
 444              	.LVL43:
 445              		.loc 3 390 0
 446 0110 FFF7FEFF 		bl	_dbg_check_lock_from_isr
 447              	.LVL44:
 448              	.LBE301:
 449              	.LBE300:
 450              	.LBE299:
 451              	.LBB306:
 452              	.LBB307:
 453              		.loc 4 798 0
 454 0114 381D     		adds	r0, r7, #4
 455 0116 4FF40071 		mov	r1, #512
 456 011a FFF7FEFF 		bl	chEvtBroadcastFlagsI
ARM GAS  C:\Users\shadi\AppData\Local\Temp\cc1kDezh.s 			page 9


 457              	.LVL45:
 458              	.LBE307:
 459              	.LBE306:
 460              		.loc 1 162 0
 461 011e 6FF48073 		mvn	r3, #256
 462 0122 2B60     		str	r3, [r5]
 463              	.LBB308:
 464              	.LBB309:
 465              	.LBB310:
 466              		.loc 3 408 0
 467 0124 FFF7FEFF 		bl	_dbg_check_unlock_from_isr
 468              	.LVL46:
 469              		.loc 3 409 0
 470 0128 FFF7FEFF 		bl	_stats_stop_measure_crit_isr
 471              	.LVL47:
 472              	.LBB311:
 473              	.LBB312:
 474              	.LBB313:
 475              	.LBB314:
 476              		.loc 2 546 0
 477 012c 0023     		movs	r3, #0
 478              		.syntax unified
 479              	@ 546 "../../lib/e-puck2_main-processor/ChibiOS//os/ext/CMSIS/include/core_cmFunc.h" 1
 480 012e 83F31188 		MSR basepri, r3
 481              	@ 0 "" 2
 482              	.LVL48:
 483              		.thumb
 484              		.syntax unified
 485 0132 79E7     		b	.L9
 486              	.L61:
 487              	.LVL49:
 488              	.LBE314:
 489              	.LBE313:
 490              	.LBE312:
 491              	.LBE311:
 492              	.LBE310:
 493              	.LBE309:
 494              	.LBE308:
 495              	.LBB315:
 496              	.LBB316:
 497              	.LBB317:
 498              	.LBB318:
 499              	.LBB319:
 500              	.LBB320:
 501              	.LBB321:
 502              	.LBB322:
 503 0134 2023     		movs	r3, #32
 504              		.syntax unified
 505              	@ 546 "../../lib/e-puck2_main-processor/ChibiOS//os/ext/CMSIS/include/core_cmFunc.h" 1
 506 0136 83F31188 		MSR basepri, r3
 507              	@ 0 "" 2
 508              	.LVL50:
 509              		.thumb
 510              		.syntax unified
 511              	.LBE322:
 512              	.LBE321:
 513              	.LBE320:
ARM GAS  C:\Users\shadi\AppData\Local\Temp\cc1kDezh.s 			page 10


 514              	.LBE319:
 515              		.loc 3 389 0
 516 013a FFF7FEFF 		bl	_stats_start_measure_crit_isr
 517              	.LVL51:
 518              		.loc 3 390 0
 519 013e FFF7FEFF 		bl	_dbg_check_lock_from_isr
 520              	.LVL52:
 521              	.LBE318:
 522              	.LBE317:
 523              	.LBE316:
 524              		.loc 1 186 0
 525 0142 1448     		ldr	r0, .L66+8
 526 0144 FFF7FEFF 		bl	chOQGetI
 527              	.LVL53:
 528              		.loc 1 187 0
 529 0148 0028     		cmp	r0, #0
 530 014a 10DB     		blt	.L65
 531              		.loc 1 192 0
 532 014c 6860     		str	r0, [r5, #4]
 533              	.LVL54:
 534              	.L20:
 535              	.LBB323:
 536              	.LBB324:
 537              	.LBB325:
 538              		.loc 3 408 0
 539 014e FFF7FEFF 		bl	_dbg_check_unlock_from_isr
 540              	.LVL55:
 541              		.loc 3 409 0
 542 0152 FFF7FEFF 		bl	_stats_stop_measure_crit_isr
 543              	.LVL56:
 544              	.LBB326:
 545              	.LBB327:
 546              	.LBB328:
 547              	.LBB329:
 548              		.loc 2 546 0
 549 0156 0023     		movs	r3, #0
 550              		.syntax unified
 551              	@ 546 "../../lib/e-puck2_main-processor/ChibiOS//os/ext/CMSIS/include/core_cmFunc.h" 1
 552 0158 83F31188 		MSR basepri, r3
 553              	@ 0 "" 2
 554              	.LVL57:
 555              		.thumb
 556              		.syntax unified
 557 015c A8E7     		b	.L18
 558              	.LVL58:
 559              	.L64:
 560              	.LBE329:
 561              	.LBE328:
 562              	.LBE327:
 563              	.LBE326:
 564              	.LBE325:
 565              	.LBE324:
 566              	.LBE323:
 567              	.LBE315:
 568              	.LBB332:
 569              	.LBB291:
 570              		.loc 5 390 0
ARM GAS  C:\Users\shadi\AppData\Local\Temp\cc1kDezh.s 			page 11


 571 015e BB6B     		ldr	r3, [r7, #56]
 572 0160 002B     		cmp	r3, #0
 573 0162 C0D0     		beq	.L22
 574              	.LVL59:
 575              	.LBE291:
 576              	.LBE332:
 577              	.LBB333:
 578              	.LBB334:
 579              		.loc 4 798 0
 580 0164 1021     		movs	r1, #16
 581 0166 0A48     		ldr	r0, .L66+4
 582 0168 FFF7FEFF 		bl	chEvtBroadcastFlagsI
 583              	.LVL60:
 584 016c BBE7     		b	.L22
 585              	.LVL61:
 586              	.L65:
 587              	.LBE334:
 588              	.LBE333:
 589              	.LBB335:
 590              	.LBB330:
 591              	.LBB331:
 592 016e 0821     		movs	r1, #8
 593 0170 0748     		ldr	r0, .L66+4
 594              	.LVL62:
 595 0172 FFF7FEFF 		bl	chEvtBroadcastFlagsI
 596              	.LVL63:
 597              	.LBE331:
 598              	.LBE330:
 599              		.loc 1 189 0
 600 0176 4FF63F73 		movw	r3, #65343
 601 017a 0AEA0303 		and	r3, r10, r3
 602 017e 43F04003 		orr	r3, r3, #64
 603 0182 EB60     		str	r3, [r5, #12]
 604 0184 E3E7     		b	.L20
 605              	.LVL64:
 606              	.L63:
 607              	.LBE335:
 608              	.LBE337:
 609              	.LBE339:
 610              		.loc 1 312 0
 611 0186 FFF7FEFF 		bl	__stack_chk_fail
 612              	.LVL65:
 613              	.L67:
 614 018a 00BF     		.align	2
 615              	.L66:
 616 018c 00000000 		.word	.LANCHOR0
 617 0190 04000000 		.word	.LANCHOR0+4
 618 0194 30000000 		.word	.LANCHOR0+48
 619 0198 00000000 		.word	__stack_chk_guard
 620              		.cfi_endproc
 621              	.LFE261:
 622              		.size	VectorDC, .-VectorDC
 623              		.section	.text.sd_lld_init,"ax",%progbits
 624              		.align	1
 625              		.p2align 4,,15
 626              		.global	sd_lld_init
 627              		.syntax unified
ARM GAS  C:\Users\shadi\AppData\Local\Temp\cc1kDezh.s 			page 12


 628              		.thumb
 629              		.thumb_func
 630              		.fpu fpv4-sp-d16
 631              		.type	sd_lld_init, %function
 632              	sd_lld_init:
 633              	.LFB262:
 634              		.loc 1 382 0
 635              		.cfi_startproc
 636              		@ args = 0, pretend = 0, frame = 8
 637              		@ frame_needed = 0, uses_anonymous_args = 0
 638 0000 30B5     		push	{r4, r5, lr}
 639              		.cfi_def_cfa_offset 12
 640              		.cfi_offset 4, -12
 641              		.cfi_offset 5, -8
 642              		.cfi_offset 14, -4
 643 0002 0A4D     		ldr	r5, .L72
 644              		.loc 1 395 0
 645 0004 0A4C     		ldr	r4, .L72+4
 646              		.loc 1 382 0
 647 0006 2B68     		ldr	r3, [r5]
 648              		.loc 1 395 0
 649 0008 0A4A     		ldr	r2, .L72+8
 650              		.loc 1 382 0
 651 000a 83B0     		sub	sp, sp, #12
 652              		.cfi_def_cfa_offset 24
 653              		.loc 1 395 0
 654 000c 0021     		movs	r1, #0
 655 000e 2046     		mov	r0, r4
 656              		.loc 1 382 0
 657 0010 0193     		str	r3, [sp, #4]
 658              		.loc 1 395 0
 659 0012 FFF7FEFF 		bl	sdObjectInit
 660              	.LVL66:
 661              		.loc 1 413 0
 662 0016 019A     		ldr	r2, [sp, #4]
 663 0018 2B68     		ldr	r3, [r5]
 664              		.loc 1 396 0
 665 001a 0749     		ldr	r1, .L72+12
 666 001c 6167     		str	r1, [r4, #116]
 667              		.loc 1 413 0
 668 001e 9A42     		cmp	r2, r3
 669 0020 01D1     		bne	.L71
 670 0022 03B0     		add	sp, sp, #12
 671              		.cfi_remember_state
 672              		.cfi_def_cfa_offset 12
 673              		@ sp needed
 674 0024 30BD     		pop	{r4, r5, pc}
 675              	.L71:
 676              		.cfi_restore_state
 677 0026 FFF7FEFF 		bl	__stack_chk_fail
 678              	.LVL67:
 679              	.L73:
 680 002a 00BF     		.align	2
 681              	.L72:
 682 002c 00000000 		.word	__stack_chk_guard
 683 0030 00000000 		.word	.LANCHOR0
 684 0034 00000000 		.word	notify3
ARM GAS  C:\Users\shadi\AppData\Local\Temp\cc1kDezh.s 			page 13


 685 0038 00480040 		.word	1073760256
 686              		.cfi_endproc
 687              	.LFE262:
 688              		.size	sd_lld_init, .-sd_lld_init
 689              		.section	.text.sd_lld_start,"ax",%progbits
 690              		.align	1
 691              		.p2align 4,,15
 692              		.global	sd_lld_start
 693              		.syntax unified
 694              		.thumb
 695              		.thumb_func
 696              		.fpu fpv4-sp-d16
 697              		.type	sd_lld_start, %function
 698              	sd_lld_start:
 699              	.LFB263:
 700              		.loc 1 425 0
 701              		.cfi_startproc
 702              		@ args = 0, pretend = 0, frame = 8
 703              		@ frame_needed = 0, uses_anonymous_args = 0
 704              	.LVL68:
 705 0000 70B5     		push	{r4, r5, r6, lr}
 706              		.cfi_def_cfa_offset 16
 707              		.cfi_offset 4, -16
 708              		.cfi_offset 5, -12
 709              		.cfi_offset 6, -8
 710              		.cfi_offset 14, -4
 711 0002 224E     		ldr	r6, .L85
 712              		.loc 1 430 0
 713 0004 037A     		ldrb	r3, [r0, #8]	@ zero_extendqisi2
 714              		.loc 1 428 0
 715 0006 224C     		ldr	r4, .L85+4
 716              		.loc 1 425 0
 717 0008 3268     		ldr	r2, [r6]
 718 000a 82B0     		sub	sp, sp, #8
 719              		.cfi_def_cfa_offset 24
 720              		.loc 1 428 0
 721 000c 0029     		cmp	r1, #0
 722 000e 18BF     		it	ne
 723 0010 0C46     		movne	r4, r1
 724              	.LVL69:
 725              		.loc 1 430 0
 726 0012 012B     		cmp	r3, #1
 727              		.loc 1 425 0
 728 0014 0546     		mov	r5, r0
 729 0016 0192     		str	r2, [sp, #4]
 730              		.loc 1 430 0
 731 0018 28D0     		beq	.L83
 732              	.LVL70:
 733              	.L76:
 734 001a 6B6F     		ldr	r3, [r5, #116]
 735              	.LVL71:
 736              	.LBB340:
 737              	.LBB341:
 738              		.loc 1 96 0
 739 001c 1D49     		ldr	r1, .L85+8
 740 001e 2068     		ldr	r0, [r4]
 741 0020 8B42     		cmp	r3, r1
ARM GAS  C:\Users\shadi\AppData\Local\Temp\cc1kDezh.s 			page 14


 742 0022 1ED0     		beq	.L77
 743 0024 1C4A     		ldr	r2, .L85+12
 744 0026 9342     		cmp	r3, r2
 745 0028 1BD0     		beq	.L77
 746              		.loc 1 102 0
 747 002a 1C4A     		ldr	r2, .L85+16
 748 002c B2FBF0F2 		udiv	r2, r2, r0
 749 0030 9A60     		str	r2, [r3, #8]
 750              	.L79:
 751              		.loc 1 105 0
 752 0032 E288     		ldrh	r2, [r4, #6]
 753 0034 42F04002 		orr	r2, r2, #64
 754 0038 1A61     		str	r2, [r3, #16]
 755              		.loc 1 106 0
 756 003a 2289     		ldrh	r2, [r4, #8]
 757 003c 42F00102 		orr	r2, r2, #1
 758 0040 5A61     		str	r2, [r3, #20]
 759              		.loc 1 108 0
 760 0042 A288     		ldrh	r2, [r4, #4]
 761 0044 42F40452 		orr	r2, r2, #8448
 762 0048 42F02C02 		orr	r2, r2, #44
 763              		.loc 1 110 0
 764 004c 0021     		movs	r1, #0
 765              		.loc 1 107 0
 766 004e DA60     		str	r2, [r3, #12]
 767              		.loc 1 110 0
 768 0050 1960     		str	r1, [r3]
 769              		.loc 1 111 0
 770 0052 1A68     		ldr	r2, [r3]
 771              		.loc 1 112 0
 772 0054 5B68     		ldr	r3, [r3, #4]
 773              	.LVL72:
 774              	.LBE341:
 775              	.LBE340:
 776              		.loc 1 469 0
 777 0056 019A     		ldr	r2, [sp, #4]
 778 0058 3368     		ldr	r3, [r6]
 779 005a 9A42     		cmp	r2, r3
 780 005c 13D1     		bne	.L84
 781 005e 02B0     		add	sp, sp, #8
 782              		.cfi_remember_state
 783              		.cfi_def_cfa_offset 16
 784              		@ sp needed
 785 0060 70BD     		pop	{r4, r5, r6, pc}
 786              	.LVL73:
 787              	.L77:
 788              		.cfi_restore_state
 789              	.LBB343:
 790              	.LBB342:
 791              		.loc 1 100 0
 792 0062 0F4A     		ldr	r2, .L85+20
 793 0064 B2FBF0F2 		udiv	r2, r2, r0
 794 0068 9A60     		str	r2, [r3, #8]
 795 006a E2E7     		b	.L79
 796              	.LVL74:
 797              	.L83:
 798              	.LBE342:
ARM GAS  C:\Users\shadi\AppData\Local\Temp\cc1kDezh.s 			page 15


 799              	.LBE343:
 800              		.loc 1 444 0
 801 006c 0D4B     		ldr	r3, .L85+24
 802 006e 9842     		cmp	r0, r3
 803 0070 D3D1     		bne	.L76
 804              		.loc 1 445 0
 805 0072 0D4A     		ldr	r2, .L85+28
 806 0074 136C     		ldr	r3, [r2, #64]
 807 0076 43F48023 		orr	r3, r3, #262144
 808 007a 1364     		str	r3, [r2, #64]
 809              		.loc 1 446 0
 810 007c 0C21     		movs	r1, #12
 811 007e 2720     		movs	r0, #39
 812              	.LVL75:
 813 0080 FFF7FEFF 		bl	nvicEnableVector
 814              	.LVL76:
 815 0084 C9E7     		b	.L76
 816              	.LVL77:
 817              	.L84:
 818              		.loc 1 469 0
 819 0086 FFF7FEFF 		bl	__stack_chk_fail
 820              	.LVL78:
 821              	.L86:
 822 008a 00BF     		.align	2
 823              	.L85:
 824 008c 00000000 		.word	__stack_chk_guard
 825 0090 00000000 		.word	.LANCHOR1
 826 0094 00100140 		.word	1073811456
 827 0098 00140140 		.word	1073812480
 828 009c 80DE8002 		.word	42000000
 829 00a0 00BD0105 		.word	84000000
 830 00a4 00000000 		.word	.LANCHOR0
 831 00a8 00380240 		.word	1073887232
 832              		.cfi_endproc
 833              	.LFE263:
 834              		.size	sd_lld_start, .-sd_lld_start
 835              		.section	.text.sd_lld_stop,"ax",%progbits
 836              		.align	1
 837              		.p2align 4,,15
 838              		.global	sd_lld_stop
 839              		.syntax unified
 840              		.thumb
 841              		.thumb_func
 842              		.fpu fpv4-sp-d16
 843              		.type	sd_lld_stop, %function
 844              	sd_lld_stop:
 845              	.LFB264:
 846              		.loc 1 480 0
 847              		.cfi_startproc
 848              		@ args = 0, pretend = 0, frame = 8
 849              		@ frame_needed = 0, uses_anonymous_args = 0
 850              	.LVL79:
 851 0000 10B5     		push	{r4, lr}
 852              		.cfi_def_cfa_offset 8
 853              		.cfi_offset 4, -8
 854              		.cfi_offset 14, -4
 855 0002 134B     		ldr	r3, .L96
ARM GAS  C:\Users\shadi\AppData\Local\Temp\cc1kDezh.s 			page 16


 856              		.loc 1 482 0
 857 0004 027A     		ldrb	r2, [r0, #8]	@ zero_extendqisi2
 858              		.loc 1 480 0
 859 0006 1968     		ldr	r1, [r3]
 860 0008 82B0     		sub	sp, sp, #8
 861              		.cfi_def_cfa_offset 16
 862              		.loc 1 482 0
 863 000a 022A     		cmp	r2, #2
 864              		.loc 1 480 0
 865 000c 0191     		str	r1, [sp, #4]
 866              		.loc 1 482 0
 867 000e 05D0     		beq	.L95
 868              	.L87:
 869              		.loc 1 527 0
 870 0010 019A     		ldr	r2, [sp, #4]
 871 0012 1B68     		ldr	r3, [r3]
 872 0014 9A42     		cmp	r2, r3
 873 0016 18D1     		bne	.L94
 874 0018 02B0     		add	sp, sp, #8
 875              		.cfi_remember_state
 876              		.cfi_def_cfa_offset 8
 877              		@ sp needed
 878 001a 10BD     		pop	{r4, pc}
 879              	.L95:
 880              		.cfi_restore_state
 881              		.loc 1 499 0
 882 001c 0D4C     		ldr	r4, .L96+4
 883              		.loc 1 483 0
 884 001e 426F     		ldr	r2, [r0, #116]
 885              	.LVL80:
 886              	.LBB344:
 887              	.LBB345:
 888              		.loc 1 123 0
 889 0020 0021     		movs	r1, #0
 890              	.LBE345:
 891              	.LBE344:
 892              		.loc 1 499 0
 893 0022 A042     		cmp	r0, r4
 894              	.LBB347:
 895              	.LBB346:
 896              		.loc 1 123 0
 897 0024 D160     		str	r1, [r2, #12]
 898              		.loc 1 124 0
 899 0026 1161     		str	r1, [r2, #16]
 900              		.loc 1 125 0
 901 0028 5161     		str	r1, [r2, #20]
 902              	.LVL81:
 903              	.LBE346:
 904              	.LBE347:
 905              		.loc 1 499 0
 906 002a F1D1     		bne	.L87
 907              		.loc 1 500 0
 908 002c 0A49     		ldr	r1, .L96+8
 909 002e 0A6C     		ldr	r2, [r1, #64]
 910 0030 22F48022 		bic	r2, r2, #262144
 911 0034 0A64     		str	r2, [r1, #64]
 912              		.loc 1 501 0
ARM GAS  C:\Users\shadi\AppData\Local\Temp\cc1kDezh.s 			page 17


 913 0036 019A     		ldr	r2, [sp, #4]
 914 0038 1B68     		ldr	r3, [r3]
 915 003a 9A42     		cmp	r2, r3
 916 003c 05D1     		bne	.L94
 917 003e 2720     		movs	r0, #39
 918              	.LVL82:
 919              		.loc 1 527 0
 920 0040 02B0     		add	sp, sp, #8
 921              		.cfi_remember_state
 922              		.cfi_def_cfa_offset 8
 923              		@ sp needed
 924 0042 BDE81040 		pop	{r4, lr}
 925              		.cfi_restore 14
 926              		.cfi_restore 4
 927              		.cfi_def_cfa_offset 0
 928              		.loc 1 501 0
 929 0046 FFF7FEBF 		b	nvicDisableVector
 930              	.LVL83:
 931              	.L94:
 932              		.cfi_restore_state
 933              		.loc 1 527 0
 934 004a FFF7FEFF 		bl	__stack_chk_fail
 935              	.LVL84:
 936              	.L97:
 937 004e 00BF     		.align	2
 938              	.L96:
 939 0050 00000000 		.word	__stack_chk_guard
 940 0054 00000000 		.word	.LANCHOR0
 941 0058 00380240 		.word	1073887232
 942              		.cfi_endproc
 943              	.LFE264:
 944              		.size	sd_lld_stop, .-sd_lld_stop
 945              		.global	SD3
 946              		.section	.bss.SD3,"aw",%nobits
 947              		.align	2
 948              		.set	.LANCHOR0,. + 0
 949              		.type	SD3, %object
 950              		.size	SD3, 120
 951              	SD3:
 952 0000 00000000 		.space	120
 952      00000000 
 952      00000000 
 952      00000000 
 952      00000000 
 953              		.section	.rodata.default_config,"a",%progbits
 954              		.align	2
 955              		.set	.LANCHOR1,. + 0
 956              		.type	default_config, %object
 957              		.size	default_config, 12
 958              	default_config:
 959 0000 00C20100 		.word	115200
 960 0004 0000     		.short	0
 961 0006 0040     		.short	16384
 962 0008 0000     		.short	0
 963 000a 0000     		.space	2
 964              		.text
 965              	.Letext0:
ARM GAS  C:\Users\shadi\AppData\Local\Temp\cc1kDezh.s 			page 18


 966              		.file 6 "c:\\users\\shadi\\downloads\\eclipse_e-puck2\\tools\\gcc-arm-none-eabi-7-2017-q4-major-wi
 967              		.file 7 "c:\\users\\shadi\\downloads\\eclipse_e-puck2\\tools\\gcc-arm-none-eabi-7-2017-q4-major-wi
 968              		.file 8 "c:\\users\\shadi\\downloads\\eclipse_e-puck2\\tools\\gcc-arm-none-eabi-7-2017-q4-major-wi
 969              		.file 9 "../../lib/e-puck2_main-processor/ChibiOS//os/rt/ports/ARMCMx/compilers/GCC/chtypes.h"
 970              		.file 10 "../../lib/e-puck2_main-processor/ChibiOS//os/rt/include/chsystypes.h"
 971              		.file 11 "../../lib/e-puck2_main-processor/ChibiOS//os/rt/include/chschd.h"
 972              		.file 12 "../../lib/e-puck2_main-processor/ChibiOS//os/ext/CMSIS/include/core_cm4.h"
 973              		.file 13 "../../lib/e-puck2_main-processor/ChibiOS//os/ext/CMSIS/ST/system_stm32f4xx.h"
 974              		.file 14 "../../lib/e-puck2_main-processor/ChibiOS//os/ext/CMSIS/ST/stm32f407xx.h"
 975              		.file 15 "../../lib/e-puck2_main-processor/ChibiOS//os/rt/ports/ARMCMx/chcore.h"
 976              		.file 16 "../../lib/e-puck2_main-processor/ChibiOS//os/rt/ports/ARMCMx/chcore_v7m.h"
 977              		.file 17 "../../lib/e-puck2_main-processor/ChibiOS//os/rt/include/chdebug.h"
 978              		.file 18 "../../lib/e-puck2_main-processor/ChibiOS//os/rt/include/chtm.h"
 979              		.file 19 "../../lib/e-puck2_main-processor/ChibiOS//os/rt/include/chstats.h"
 980              		.file 20 "../../lib/e-puck2_main-processor/ChibiOS//os/rt/include/chsem.h"
 981              		.file 21 "../../lib/e-puck2_main-processor/ChibiOS//os/rt/include/chmtx.h"
 982              		.file 22 "../../lib/e-puck2_main-processor/ChibiOS//os/rt/include/chregistry.h"
 983              		.file 23 "../../lib/e-puck2_main-processor/ChibiOS//os/rt/include/chevents.h"
 984              		.file 24 "../../lib/e-puck2_main-processor/ChibiOS//os/hal/ports/STM32/STM32F4xx/stm32_dma.h"
 985              		.file 25 "../../lib/e-puck2_main-processor/ChibiOS//os/hal/include/hal_ioblock.h"
 986              		.file 26 "../../lib/e-puck2_main-processor/ChibiOS//os/hal/ports/STM32/LLD/GPIOv2/pal_lld.h"
 987              		.file 27 "../../lib/e-puck2_main-processor/ChibiOS//os/hal/include/adc.h"
 988              		.file 28 "../../lib/e-puck2_main-processor/ChibiOS//os/hal/ports/STM32/STM32F4xx/adc_lld.h"
 989              		.file 29 "../../lib/e-puck2_main-processor/ChibiOS//os/hal/include/can.h"
 990              		.file 30 "../../lib/e-puck2_main-processor/ChibiOS//os/hal/ports/STM32/LLD/can_lld.h"
 991              		.file 31 "../../lib/e-puck2_main-processor/ChibiOS//os/hal/include/dac.h"
 992              		.file 32 "../../lib/e-puck2_main-processor/ChibiOS//os/hal/ports/STM32/LLD/DACv1/dac_lld.h"
 993              		.file 33 "../../lib/e-puck2_main-processor/ChibiOS//os/hal/include/ext.h"
 994              		.file 34 "../../lib/e-puck2_main-processor/ChibiOS//os/hal/ports/STM32/LLD/ext_lld.h"
 995              		.file 35 "../../lib/e-puck2_main-processor/ChibiOS//os/hal/include/gpt.h"
 996              		.file 36 "../../lib/e-puck2_main-processor/ChibiOS//os/hal/ports/STM32/LLD/TIMv1/gpt_lld.h"
 997              		.file 37 "../../lib/e-puck2_main-processor/ChibiOS//os/hal/ports/STM32/LLD/TIMv1/stm32_tim.h"
 998              		.file 38 "../../lib/e-puck2_main-processor/ChibiOS//os/hal/include/i2c.h"
 999              		.file 39 "../../lib/e-puck2_main-processor/ChibiOS//os/hal/ports/STM32/LLD/I2Cv1/i2c_lld.h"
 1000              		.file 40 "../../lib/e-puck2_main-processor/ChibiOS//os/hal/include/i2s.h"
 1001              		.file 41 "../../lib/e-puck2_main-processor/ChibiOS//os/hal/ports/STM32/LLD/SPIv1/i2s_lld.h"
 1002              		.file 42 "../../lib/e-puck2_main-processor/ChibiOS//os/hal/include/pwm.h"
 1003              		.file 43 "../../lib/e-puck2_main-processor/ChibiOS//os/hal/ports/STM32/LLD/TIMv1/pwm_lld.h"
 1004              		.file 44 "../../lib/e-puck2_main-processor/ChibiOS//os/hal/include/serial.h"
 1005              		.file 45 "../../lib/e-puck2_main-processor/ChibiOS//os/hal/ports/STM32/LLD/USARTv1/serial_lld.h"
 1006              		.file 46 "../../lib/e-puck2_main-processor/ChibiOS//os/hal/include/sdc.h"
 1007              		.file 47 "../../lib/e-puck2_main-processor/ChibiOS//os/hal/ports/STM32/LLD/sdc_lld.h"
 1008              		.file 48 "../../lib/e-puck2_main-processor/ChibiOS//os/hal/include/spi.h"
 1009              		.file 49 "../../lib/e-puck2_main-processor/ChibiOS//os/hal/ports/STM32/LLD/SPIv1/spi_lld.h"
 1010              		.file 50 "../../lib/e-puck2_main-processor/ChibiOS//os/hal/include/usb.h"
 1011              		.file 51 "../../lib/e-puck2_main-processor/ChibiOS//os/hal/ports/STM32/LLD/OTGv1/usb_lld.h"
 1012              		.file 52 "../../lib/e-puck2_main-processor/ChibiOS//os/hal/ports/STM32/LLD/OTGv1/stm32_otg.h"
 1013              		.file 53 "../../lib/e-puck2_main-processor/ChibiOS//os/hal/ports/common/ARMCMx/nvic.h"