ARM GAS  C:\Users\shadi\AppData\Local\Temp\ccFNLhfz.s 			page 1


   1              		.cpu cortex-m4
   2              		.eabi_attribute 27, 1
   3              		.eabi_attribute 28, 1
   4              		.eabi_attribute 20, 1
   5              		.eabi_attribute 21, 1
   6              		.eabi_attribute 23, 3
   7              		.eabi_attribute 24, 1
   8              		.eabi_attribute 25, 1
   9              		.eabi_attribute 26, 1
  10              		.eabi_attribute 30, 2
  11              		.eabi_attribute 34, 1
  12              		.eabi_attribute 18, 4
  13              		.file	"spi.c"
  14              		.text
  15              	.Ltext0:
  16              		.cfi_sections	.debug_frame
  17              		.section	.text.spiInit,"ax",%progbits
  18              		.align	1
  19              		.p2align 4,,15
  20              		.global	spiInit
  21              		.syntax unified
  22              		.thumb
  23              		.thumb_func
  24              		.fpu fpv4-sp-d16
  25              		.type	spiInit, %function
  26              	spiInit:
  27              	.LFB256:
  28              		.file 1 "../../lib/e-puck2_main-processor/ChibiOS//os/hal/src/spi.c"
  29              		.loc 1 56 0
  30              		.cfi_startproc
  31              		@ args = 0, pretend = 0, frame = 8
  32              		@ frame_needed = 0, uses_anonymous_args = 0
  33 0000 00B5     		push	{lr}
  34              		.cfi_def_cfa_offset 4
  35              		.cfi_offset 14, -4
  36 0002 074B     		ldr	r3, .L7
  37 0004 83B0     		sub	sp, sp, #12
  38              		.cfi_def_cfa_offset 16
  39              		.loc 1 56 0
  40 0006 1A68     		ldr	r2, [r3]
  41 0008 0192     		str	r2, [sp, #4]
  42              		.loc 1 58 0
  43 000a 019A     		ldr	r2, [sp, #4]
  44 000c 1B68     		ldr	r3, [r3]
  45 000e 9A42     		cmp	r2, r3
  46 0010 04D1     		bne	.L6
  47              		.loc 1 59 0
  48 0012 03B0     		add	sp, sp, #12
  49              		.cfi_remember_state
  50              		.cfi_def_cfa_offset 4
  51              		@ sp needed
  52 0014 5DF804EB 		ldr	lr, [sp], #4
  53              		.cfi_restore 14
  54              		.cfi_def_cfa_offset 0
  55              		.loc 1 58 0
  56 0018 FFF7FEBF 		b	spi_lld_init
  57              	.LVL0:
ARM GAS  C:\Users\shadi\AppData\Local\Temp\ccFNLhfz.s 			page 2


  58              	.L6:
  59              		.cfi_restore_state
  60 001c FFF7FEFF 		bl	__stack_chk_fail
  61              	.LVL1:
  62              	.L8:
  63              		.align	2
  64              	.L7:
  65 0020 00000000 		.word	__stack_chk_guard
  66              		.cfi_endproc
  67              	.LFE256:
  68              		.size	spiInit, .-spiInit
  69              		.section	.text.spiObjectInit,"ax",%progbits
  70              		.align	1
  71              		.p2align 4,,15
  72              		.global	spiObjectInit
  73              		.syntax unified
  74              		.thumb
  75              		.thumb_func
  76              		.fpu fpv4-sp-d16
  77              		.type	spiObjectInit, %function
  78              	spiObjectInit:
  79              	.LFB257:
  80              		.loc 1 68 0
  81              		.cfi_startproc
  82              		@ args = 0, pretend = 0, frame = 8
  83              		@ frame_needed = 0, uses_anonymous_args = 0
  84              	.LVL2:
  85 0000 00B5     		push	{lr}
  86              		.cfi_def_cfa_offset 4
  87              		.cfi_offset 14, -4
  88 0002 0A4B     		ldr	r3, .L14
  89 0004 83B0     		sub	sp, sp, #12
  90              		.cfi_def_cfa_offset 16
  91              		.loc 1 68 0
  92 0006 1A68     		ldr	r2, [r3]
  93 0008 0192     		str	r2, [sp, #4]
  94              		.loc 1 70 0
  95 000a 0122     		movs	r2, #1
  96 000c 0270     		strb	r2, [r0]
  97              	.LBB141:
  98              	.LBB142:
  99              		.file 2 "../../lib/e-puck2_main-processor/ChibiOS//os/hal/osal/rt/osal.h"
 100              		.loc 2 841 0
 101 000e 0199     		ldr	r1, [sp, #4]
 102 0010 1A68     		ldr	r2, [r3]
 103              	.LBE142:
 104              	.LBE141:
 105              		.loc 1 71 0
 106 0012 0023     		movs	r3, #0
 107              	.LBB146:
 108              	.LBB143:
 109              		.loc 2 841 0
 110 0014 9142     		cmp	r1, r2
 111              	.LBE143:
 112              	.LBE146:
 113              		.loc 1 73 0
 114 0016 C0E90133 		strd	r3, r3, [r0, #4]
ARM GAS  C:\Users\shadi\AppData\Local\Temp\ccFNLhfz.s 			page 3


 115              	.LVL3:
 116              	.LBB147:
 117              	.LBB144:
 118              		.loc 2 841 0
 119 001a 05D1     		bne	.L13
 120 001c 0C30     		adds	r0, r0, #12
 121              	.LVL4:
 122              	.LBE144:
 123              	.LBE147:
 124              		.loc 1 81 0
 125 001e 03B0     		add	sp, sp, #12
 126              		.cfi_remember_state
 127              		.cfi_def_cfa_offset 4
 128              		@ sp needed
 129 0020 5DF804EB 		ldr	lr, [sp], #4
 130              		.cfi_restore 14
 131              		.cfi_def_cfa_offset 0
 132              	.LBB148:
 133              	.LBB145:
 134              		.loc 2 841 0
 135 0024 FFF7FEBF 		b	chMtxObjectInit
 136              	.LVL5:
 137              	.L13:
 138              		.cfi_restore_state
 139 0028 FFF7FEFF 		bl	__stack_chk_fail
 140              	.LVL6:
 141              	.L15:
 142              		.align	2
 143              	.L14:
 144 002c 00000000 		.word	__stack_chk_guard
 145              	.LBE145:
 146              	.LBE148:
 147              		.cfi_endproc
 148              	.LFE257:
 149              		.size	spiObjectInit, .-spiObjectInit
 150              		.section	.text.spiStart,"ax",%progbits
 151              		.align	1
 152              		.p2align 4,,15
 153              		.global	spiStart
 154              		.syntax unified
 155              		.thumb
 156              		.thumb_func
 157              		.fpu fpv4-sp-d16
 158              		.type	spiStart, %function
 159              	spiStart:
 160              	.LFB258:
 161              		.loc 1 91 0
 162              		.cfi_startproc
 163              		@ args = 0, pretend = 0, frame = 8
 164              		@ frame_needed = 0, uses_anonymous_args = 0
 165              	.LVL7:
 166 0000 70B5     		push	{r4, r5, r6, lr}
 167              		.cfi_def_cfa_offset 16
 168              		.cfi_offset 4, -16
 169              		.cfi_offset 5, -12
 170              		.cfi_offset 6, -8
 171              		.cfi_offset 14, -4
ARM GAS  C:\Users\shadi\AppData\Local\Temp\ccFNLhfz.s 			page 4


 172 0002 1E4D     		ldr	r5, .L28
 173 0004 82B0     		sub	sp, sp, #8
 174              		.cfi_def_cfa_offset 24
 175              		.loc 1 91 0
 176 0006 2B68     		ldr	r3, [r5]
 177 0008 0193     		str	r3, [sp, #4]
 178 000a 0E46     		mov	r6, r1
 179              		.loc 1 93 0
 180 000c 0446     		mov	r4, r0
 181 000e 70B3     		cbz	r0, .L17
 182              		.loc 1 93 0 is_stmt 0 discriminator 3
 183 0010 69B3     		cbz	r1, .L17
 184              	.LVL8:
 185              	.L18:
 186              	.LBB162:
 187              	.LBB163:
 188              	.LBB164:
 189              	.LBB165:
 190              	.LBB166:
 191              	.LBB167:
 192              		.file 3 "../../lib/e-puck2_main-processor/ChibiOS//os/ext/CMSIS/include/core_cmFunc.h"
 193              		.loc 3 546 0 is_stmt 1
 194 0012 2023     		movs	r3, #32
 195              		.syntax unified
 196              	@ 546 "../../lib/e-puck2_main-processor/ChibiOS//os/ext/CMSIS/include/core_cmFunc.h" 1
 197 0014 83F31188 		MSR basepri, r3
 198              	@ 0 "" 2
 199              	.LVL9:
 200              		.thumb
 201              		.syntax unified
 202              	.LBE167:
 203              	.LBE166:
 204              	.LBE165:
 205              		.file 4 "../../lib/e-puck2_main-processor/ChibiOS//os/rt/include/chsys.h"
 206              		.loc 4 349 0
 207 0018 FFF7FEFF 		bl	_stats_start_measure_crit_thd
 208              	.LVL10:
 209              		.loc 4 350 0
 210 001c FFF7FEFF 		bl	_dbg_check_lock
 211              	.LVL11:
 212              	.LBE164:
 213              	.LBE163:
 214              	.LBE162:
 215              		.loc 1 96 0
 216 0020 2378     		ldrb	r3, [r4]	@ zero_extendqisi2
 217 0022 013B     		subs	r3, r3, #1
 218 0024 012B     		cmp	r3, #1
 219 0026 02D9     		bls	.L19
 220              		.loc 1 96 0 is_stmt 0 discriminator 2
 221 0028 1548     		ldr	r0, .L28+4
 222 002a FFF7FEFF 		bl	chSysHalt
 223              	.LVL12:
 224              	.L19:
 225              		.loc 1 99 0 is_stmt 1
 226 002e 2046     		mov	r0, r4
 227              		.loc 1 98 0
 228 0030 6660     		str	r6, [r4, #4]
ARM GAS  C:\Users\shadi\AppData\Local\Temp\ccFNLhfz.s 			page 5


 229              		.loc 1 99 0
 230 0032 FFF7FEFF 		bl	spi_lld_start
 231              	.LVL13:
 232              		.loc 1 100 0
 233 0036 0223     		movs	r3, #2
 234 0038 2370     		strb	r3, [r4]
 235              	.LBB168:
 236              	.LBB169:
 237              	.LBB170:
 238              		.loc 4 360 0
 239 003a FFF7FEFF 		bl	_dbg_check_unlock
 240              	.LVL14:
 241              		.loc 4 361 0
 242 003e FFF7FEFF 		bl	_stats_stop_measure_crit_thd
 243              	.LVL15:
 244              		.loc 4 367 0
 245 0042 104B     		ldr	r3, .L28+8
 246 0044 1A68     		ldr	r2, [r3]
 247 0046 9A42     		cmp	r2, r3
 248 0048 04D0     		beq	.L20
 249 004a 9969     		ldr	r1, [r3, #24]
 250 004c 9368     		ldr	r3, [r2, #8]
 251 004e 8A68     		ldr	r2, [r1, #8]
 252 0050 9A42     		cmp	r2, r3
 253 0052 08D3     		bcc	.L26
 254              	.L20:
 255              	.LVL16:
 256              	.LBB171:
 257              	.LBB172:
 258              	.LBB173:
 259              		.loc 3 546 0
 260 0054 0023     		movs	r3, #0
 261              		.syntax unified
 262              	@ 546 "../../lib/e-puck2_main-processor/ChibiOS//os/ext/CMSIS/include/core_cmFunc.h" 1
 263 0056 83F31188 		MSR basepri, r3
 264              	@ 0 "" 2
 265              	.LVL17:
 266              		.thumb
 267              		.syntax unified
 268              	.LBE173:
 269              	.LBE172:
 270              	.LBE171:
 271              	.LBE170:
 272              	.LBE169:
 273              	.LBE168:
 274              		.loc 1 102 0
 275 005a 019A     		ldr	r2, [sp, #4]
 276 005c 2B68     		ldr	r3, [r5]
 277 005e 9A42     		cmp	r2, r3
 278 0060 09D1     		bne	.L27
 279 0062 02B0     		add	sp, sp, #8
 280              		.cfi_remember_state
 281              		.cfi_def_cfa_offset 16
 282              		@ sp needed
 283 0064 70BD     		pop	{r4, r5, r6, pc}
 284              	.LVL18:
 285              	.L26:
ARM GAS  C:\Users\shadi\AppData\Local\Temp\ccFNLhfz.s 			page 6


 286              		.cfi_restore_state
 287              	.LBB176:
 288              	.LBB175:
 289              	.LBB174:
 290              		.loc 4 367 0
 291 0066 0848     		ldr	r0, .L28+12
 292 0068 FFF7FEFF 		bl	chSysHalt
 293              	.LVL19:
 294 006c F2E7     		b	.L20
 295              	.LVL20:
 296              	.L17:
 297              	.LBE174:
 298              	.LBE175:
 299              	.LBE176:
 300              		.loc 1 93 0 discriminator 4
 301 006e 0448     		ldr	r0, .L28+4
 302              	.LVL21:
 303 0070 FFF7FEFF 		bl	chSysHalt
 304              	.LVL22:
 305 0074 CDE7     		b	.L18
 306              	.L27:
 307              		.loc 1 102 0
 308 0076 FFF7FEFF 		bl	__stack_chk_fail
 309              	.LVL23:
 310              	.L29:
 311 007a 00BF     		.align	2
 312              	.L28:
 313 007c 00000000 		.word	__stack_chk_guard
 314 0080 00000000 		.word	.LANCHOR0
 315 0084 00000000 		.word	ch
 316 0088 00000000 		.word	.LANCHOR1
 317              		.cfi_endproc
 318              	.LFE258:
 319              		.size	spiStart, .-spiStart
 320              		.section	.text.spiStop,"ax",%progbits
 321              		.align	1
 322              		.p2align 4,,15
 323              		.global	spiStop
 324              		.syntax unified
 325              		.thumb
 326              		.thumb_func
 327              		.fpu fpv4-sp-d16
 328              		.type	spiStop, %function
 329              	spiStop:
 330              	.LFB259:
 331              		.loc 1 113 0
 332              		.cfi_startproc
 333              		@ args = 0, pretend = 0, frame = 8
 334              		@ frame_needed = 0, uses_anonymous_args = 0
 335              	.LVL24:
 336 0000 30B5     		push	{r4, r5, lr}
 337              		.cfi_def_cfa_offset 12
 338              		.cfi_offset 4, -12
 339              		.cfi_offset 5, -8
 340              		.cfi_offset 14, -4
 341 0002 1C4D     		ldr	r5, .L39
 342 0004 83B0     		sub	sp, sp, #12
ARM GAS  C:\Users\shadi\AppData\Local\Temp\ccFNLhfz.s 			page 7


 343              		.cfi_def_cfa_offset 24
 344              		.loc 1 113 0
 345 0006 2B68     		ldr	r3, [r5]
 346 0008 0193     		str	r3, [sp, #4]
 347              		.loc 1 115 0
 348 000a 0446     		mov	r4, r0
 349 000c 60B3     		cbz	r0, .L36
 350              	.LVL25:
 351              	.L31:
 352              	.LBB190:
 353              	.LBB191:
 354              	.LBB192:
 355              	.LBB193:
 356              	.LBB194:
 357              	.LBB195:
 358              		.loc 3 546 0
 359 000e 2023     		movs	r3, #32
 360              		.syntax unified
 361              	@ 546 "../../lib/e-puck2_main-processor/ChibiOS//os/ext/CMSIS/include/core_cmFunc.h" 1
 362 0010 83F31188 		MSR basepri, r3
 363              	@ 0 "" 2
 364              	.LVL26:
 365              		.thumb
 366              		.syntax unified
 367              	.LBE195:
 368              	.LBE194:
 369              	.LBE193:
 370              		.loc 4 349 0
 371 0014 FFF7FEFF 		bl	_stats_start_measure_crit_thd
 372              	.LVL27:
 373              		.loc 4 350 0
 374 0018 FFF7FEFF 		bl	_dbg_check_lock
 375              	.LVL28:
 376              	.LBE192:
 377              	.LBE191:
 378              	.LBE190:
 379              		.loc 1 118 0
 380 001c 2378     		ldrb	r3, [r4]	@ zero_extendqisi2
 381 001e 013B     		subs	r3, r3, #1
 382 0020 012B     		cmp	r3, #1
 383 0022 02D9     		bls	.L32
 384              		.loc 1 118 0 is_stmt 0 discriminator 2
 385 0024 1448     		ldr	r0, .L39+4
 386 0026 FFF7FEFF 		bl	chSysHalt
 387              	.LVL29:
 388              	.L32:
 389              		.loc 1 120 0 is_stmt 1
 390 002a 2046     		mov	r0, r4
 391 002c FFF7FEFF 		bl	spi_lld_stop
 392              	.LVL30:
 393              		.loc 1 121 0
 394 0030 0123     		movs	r3, #1
 395 0032 2370     		strb	r3, [r4]
 396              	.LBB196:
 397              	.LBB197:
 398              	.LBB198:
 399              		.loc 4 360 0
ARM GAS  C:\Users\shadi\AppData\Local\Temp\ccFNLhfz.s 			page 8


 400 0034 FFF7FEFF 		bl	_dbg_check_unlock
 401              	.LVL31:
 402              		.loc 4 361 0
 403 0038 FFF7FEFF 		bl	_stats_stop_measure_crit_thd
 404              	.LVL32:
 405              		.loc 4 367 0
 406 003c 0F4B     		ldr	r3, .L39+8
 407 003e 1A68     		ldr	r2, [r3]
 408 0040 9A42     		cmp	r2, r3
 409 0042 04D0     		beq	.L33
 410 0044 9969     		ldr	r1, [r3, #24]
 411 0046 9368     		ldr	r3, [r2, #8]
 412 0048 8A68     		ldr	r2, [r1, #8]
 413 004a 9A42     		cmp	r2, r3
 414 004c 08D3     		bcc	.L37
 415              	.L33:
 416              	.LVL33:
 417              	.LBB199:
 418              	.LBB200:
 419              	.LBB201:
 420              		.loc 3 546 0
 421 004e 0023     		movs	r3, #0
 422              		.syntax unified
 423              	@ 546 "../../lib/e-puck2_main-processor/ChibiOS//os/ext/CMSIS/include/core_cmFunc.h" 1
 424 0050 83F31188 		MSR basepri, r3
 425              	@ 0 "" 2
 426              	.LVL34:
 427              		.thumb
 428              		.syntax unified
 429              	.LBE201:
 430              	.LBE200:
 431              	.LBE199:
 432              	.LBE198:
 433              	.LBE197:
 434              	.LBE196:
 435              		.loc 1 123 0
 436 0054 019A     		ldr	r2, [sp, #4]
 437 0056 2B68     		ldr	r3, [r5]
 438 0058 9A42     		cmp	r2, r3
 439 005a 09D1     		bne	.L38
 440 005c 03B0     		add	sp, sp, #12
 441              		.cfi_remember_state
 442              		.cfi_def_cfa_offset 12
 443              		@ sp needed
 444 005e 30BD     		pop	{r4, r5, pc}
 445              	.LVL35:
 446              	.L37:
 447              		.cfi_restore_state
 448              	.LBB204:
 449              	.LBB203:
 450              	.LBB202:
 451              		.loc 4 367 0
 452 0060 0748     		ldr	r0, .L39+12
 453 0062 FFF7FEFF 		bl	chSysHalt
 454              	.LVL36:
 455 0066 F2E7     		b	.L33
 456              	.LVL37:
ARM GAS  C:\Users\shadi\AppData\Local\Temp\ccFNLhfz.s 			page 9


 457              	.L36:
 458              	.LBE202:
 459              	.LBE203:
 460              	.LBE204:
 461              		.loc 1 115 0 discriminator 2
 462 0068 0348     		ldr	r0, .L39+4
 463              	.LVL38:
 464 006a FFF7FEFF 		bl	chSysHalt
 465              	.LVL39:
 466 006e CEE7     		b	.L31
 467              	.L38:
 468              		.loc 1 123 0
 469 0070 FFF7FEFF 		bl	__stack_chk_fail
 470              	.LVL40:
 471              	.L40:
 472              		.align	2
 473              	.L39:
 474 0074 00000000 		.word	__stack_chk_guard
 475 0078 00000000 		.word	.LANCHOR2
 476 007c 00000000 		.word	ch
 477 0080 00000000 		.word	.LANCHOR1
 478              		.cfi_endproc
 479              	.LFE259:
 480              		.size	spiStop, .-spiStop
 481              		.section	.text.spiSelect,"ax",%progbits
 482              		.align	1
 483              		.p2align 4,,15
 484              		.global	spiSelect
 485              		.syntax unified
 486              		.thumb
 487              		.thumb_func
 488              		.fpu fpv4-sp-d16
 489              		.type	spiSelect, %function
 490              	spiSelect:
 491              	.LFB260:
 492              		.loc 1 132 0
 493              		.cfi_startproc
 494              		@ args = 0, pretend = 0, frame = 8
 495              		@ frame_needed = 0, uses_anonymous_args = 0
 496              	.LVL41:
 497 0000 30B5     		push	{r4, r5, lr}
 498              		.cfi_def_cfa_offset 12
 499              		.cfi_offset 4, -12
 500              		.cfi_offset 5, -8
 501              		.cfi_offset 14, -4
 502 0002 1B4D     		ldr	r5, .L53
 503 0004 83B0     		sub	sp, sp, #12
 504              		.cfi_def_cfa_offset 24
 505              		.loc 1 132 0
 506 0006 2B68     		ldr	r3, [r5]
 507 0008 0193     		str	r3, [sp, #4]
 508              		.loc 1 134 0
 509 000a 0446     		mov	r4, r0
 510 000c 48B3     		cbz	r0, .L50
 511              	.LVL42:
 512              	.L42:
 513              	.LBB218:
ARM GAS  C:\Users\shadi\AppData\Local\Temp\ccFNLhfz.s 			page 10


 514              	.LBB219:
 515              	.LBB220:
 516              	.LBB221:
 517              	.LBB222:
 518              	.LBB223:
 519              		.loc 3 546 0
 520 000e 2023     		movs	r3, #32
 521              		.syntax unified
 522              	@ 546 "../../lib/e-puck2_main-processor/ChibiOS//os/ext/CMSIS/include/core_cmFunc.h" 1
 523 0010 83F31188 		MSR basepri, r3
 524              	@ 0 "" 2
 525              	.LVL43:
 526              		.thumb
 527              		.syntax unified
 528              	.LBE223:
 529              	.LBE222:
 530              	.LBE221:
 531              		.loc 4 349 0
 532 0014 FFF7FEFF 		bl	_stats_start_measure_crit_thd
 533              	.LVL44:
 534              		.loc 4 350 0
 535 0018 FFF7FEFF 		bl	_dbg_check_lock
 536              	.LVL45:
 537              	.LBE220:
 538              	.LBE219:
 539              	.LBE218:
 540              		.loc 1 137 0
 541 001c 2378     		ldrb	r3, [r4]	@ zero_extendqisi2
 542 001e 022B     		cmp	r3, #2
 543 0020 02D0     		beq	.L43
 544              		.loc 1 137 0 is_stmt 0 discriminator 2
 545 0022 1448     		ldr	r0, .L53+4
 546 0024 FFF7FEFF 		bl	chSysHalt
 547              	.LVL46:
 548              	.L43:
 549              		.loc 1 138 0 is_stmt 1
 550 0028 2046     		mov	r0, r4
 551 002a FFF7FEFF 		bl	spi_lld_select
 552              	.LVL47:
 553              	.LBB224:
 554              	.LBB225:
 555              	.LBB226:
 556              		.loc 4 360 0
 557 002e FFF7FEFF 		bl	_dbg_check_unlock
 558              	.LVL48:
 559              		.loc 4 361 0
 560 0032 FFF7FEFF 		bl	_stats_stop_measure_crit_thd
 561              	.LVL49:
 562              		.loc 4 367 0
 563 0036 104B     		ldr	r3, .L53+8
 564 0038 1A68     		ldr	r2, [r3]
 565 003a 9A42     		cmp	r2, r3
 566 003c 04D0     		beq	.L44
 567 003e 9969     		ldr	r1, [r3, #24]
 568 0040 9368     		ldr	r3, [r2, #8]
 569 0042 8A68     		ldr	r2, [r1, #8]
 570 0044 9A42     		cmp	r2, r3
ARM GAS  C:\Users\shadi\AppData\Local\Temp\ccFNLhfz.s 			page 11


 571 0046 08D3     		bcc	.L51
 572              	.L44:
 573              	.LVL50:
 574              	.LBB227:
 575              	.LBB228:
 576              	.LBB229:
 577              		.loc 3 546 0
 578 0048 0023     		movs	r3, #0
 579              		.syntax unified
 580              	@ 546 "../../lib/e-puck2_main-processor/ChibiOS//os/ext/CMSIS/include/core_cmFunc.h" 1
 581 004a 83F31188 		MSR basepri, r3
 582              	@ 0 "" 2
 583              	.LVL51:
 584              		.thumb
 585              		.syntax unified
 586              	.LBE229:
 587              	.LBE228:
 588              	.LBE227:
 589              	.LBE226:
 590              	.LBE225:
 591              	.LBE224:
 592              		.loc 1 140 0
 593 004e 019A     		ldr	r2, [sp, #4]
 594 0050 2B68     		ldr	r3, [r5]
 595 0052 9A42     		cmp	r2, r3
 596 0054 09D1     		bne	.L52
 597 0056 03B0     		add	sp, sp, #12
 598              		.cfi_remember_state
 599              		.cfi_def_cfa_offset 12
 600              		@ sp needed
 601 0058 30BD     		pop	{r4, r5, pc}
 602              	.LVL52:
 603              	.L51:
 604              		.cfi_restore_state
 605              	.LBB232:
 606              	.LBB231:
 607              	.LBB230:
 608              		.loc 4 367 0
 609 005a 0848     		ldr	r0, .L53+12
 610 005c FFF7FEFF 		bl	chSysHalt
 611              	.LVL53:
 612 0060 F2E7     		b	.L44
 613              	.LVL54:
 614              	.L50:
 615              	.LBE230:
 616              	.LBE231:
 617              	.LBE232:
 618              		.loc 1 134 0 discriminator 2
 619 0062 0448     		ldr	r0, .L53+4
 620              	.LVL55:
 621 0064 FFF7FEFF 		bl	chSysHalt
 622              	.LVL56:
 623 0068 D1E7     		b	.L42
 624              	.L52:
 625              		.loc 1 140 0
 626 006a FFF7FEFF 		bl	__stack_chk_fail
 627              	.LVL57:
ARM GAS  C:\Users\shadi\AppData\Local\Temp\ccFNLhfz.s 			page 12


 628              	.L54:
 629 006e 00BF     		.align	2
 630              	.L53:
 631 0070 00000000 		.word	__stack_chk_guard
 632 0074 00000000 		.word	.LANCHOR3
 633 0078 00000000 		.word	ch
 634 007c 00000000 		.word	.LANCHOR1
 635              		.cfi_endproc
 636              	.LFE260:
 637              		.size	spiSelect, .-spiSelect
 638              		.section	.text.spiUnselect,"ax",%progbits
 639              		.align	1
 640              		.p2align 4,,15
 641              		.global	spiUnselect
 642              		.syntax unified
 643              		.thumb
 644              		.thumb_func
 645              		.fpu fpv4-sp-d16
 646              		.type	spiUnselect, %function
 647              	spiUnselect:
 648              	.LFB261:
 649              		.loc 1 150 0
 650              		.cfi_startproc
 651              		@ args = 0, pretend = 0, frame = 8
 652              		@ frame_needed = 0, uses_anonymous_args = 0
 653              	.LVL58:
 654 0000 30B5     		push	{r4, r5, lr}
 655              		.cfi_def_cfa_offset 12
 656              		.cfi_offset 4, -12
 657              		.cfi_offset 5, -8
 658              		.cfi_offset 14, -4
 659 0002 1B4D     		ldr	r5, .L67
 660 0004 83B0     		sub	sp, sp, #12
 661              		.cfi_def_cfa_offset 24
 662              		.loc 1 150 0
 663 0006 2B68     		ldr	r3, [r5]
 664 0008 0193     		str	r3, [sp, #4]
 665              		.loc 1 152 0
 666 000a 0446     		mov	r4, r0
 667 000c 48B3     		cbz	r0, .L64
 668              	.LVL59:
 669              	.L56:
 670              	.LBB246:
 671              	.LBB247:
 672              	.LBB248:
 673              	.LBB249:
 674              	.LBB250:
 675              	.LBB251:
 676              		.loc 3 546 0
 677 000e 2023     		movs	r3, #32
 678              		.syntax unified
 679              	@ 546 "../../lib/e-puck2_main-processor/ChibiOS//os/ext/CMSIS/include/core_cmFunc.h" 1
 680 0010 83F31188 		MSR basepri, r3
 681              	@ 0 "" 2
 682              	.LVL60:
 683              		.thumb
 684              		.syntax unified
ARM GAS  C:\Users\shadi\AppData\Local\Temp\ccFNLhfz.s 			page 13


 685              	.LBE251:
 686              	.LBE250:
 687              	.LBE249:
 688              		.loc 4 349 0
 689 0014 FFF7FEFF 		bl	_stats_start_measure_crit_thd
 690              	.LVL61:
 691              		.loc 4 350 0
 692 0018 FFF7FEFF 		bl	_dbg_check_lock
 693              	.LVL62:
 694              	.LBE248:
 695              	.LBE247:
 696              	.LBE246:
 697              		.loc 1 155 0
 698 001c 2378     		ldrb	r3, [r4]	@ zero_extendqisi2
 699 001e 022B     		cmp	r3, #2
 700 0020 02D0     		beq	.L57
 701              		.loc 1 155 0 is_stmt 0 discriminator 2
 702 0022 1448     		ldr	r0, .L67+4
 703 0024 FFF7FEFF 		bl	chSysHalt
 704              	.LVL63:
 705              	.L57:
 706              		.loc 1 156 0 is_stmt 1
 707 0028 2046     		mov	r0, r4
 708 002a FFF7FEFF 		bl	spi_lld_unselect
 709              	.LVL64:
 710              	.LBB252:
 711              	.LBB253:
 712              	.LBB254:
 713              		.loc 4 360 0
 714 002e FFF7FEFF 		bl	_dbg_check_unlock
 715              	.LVL65:
 716              		.loc 4 361 0
 717 0032 FFF7FEFF 		bl	_stats_stop_measure_crit_thd
 718              	.LVL66:
 719              		.loc 4 367 0
 720 0036 104B     		ldr	r3, .L67+8
 721 0038 1A68     		ldr	r2, [r3]
 722 003a 9A42     		cmp	r2, r3
 723 003c 04D0     		beq	.L58
 724 003e 9969     		ldr	r1, [r3, #24]
 725 0040 9368     		ldr	r3, [r2, #8]
 726 0042 8A68     		ldr	r2, [r1, #8]
 727 0044 9A42     		cmp	r2, r3
 728 0046 08D3     		bcc	.L65
 729              	.L58:
 730              	.LVL67:
 731              	.LBB255:
 732              	.LBB256:
 733              	.LBB257:
 734              		.loc 3 546 0
 735 0048 0023     		movs	r3, #0
 736              		.syntax unified
 737              	@ 546 "../../lib/e-puck2_main-processor/ChibiOS//os/ext/CMSIS/include/core_cmFunc.h" 1
 738 004a 83F31188 		MSR basepri, r3
 739              	@ 0 "" 2
 740              	.LVL68:
 741              		.thumb
ARM GAS  C:\Users\shadi\AppData\Local\Temp\ccFNLhfz.s 			page 14


 742              		.syntax unified
 743              	.LBE257:
 744              	.LBE256:
 745              	.LBE255:
 746              	.LBE254:
 747              	.LBE253:
 748              	.LBE252:
 749              		.loc 1 158 0
 750 004e 019A     		ldr	r2, [sp, #4]
 751 0050 2B68     		ldr	r3, [r5]
 752 0052 9A42     		cmp	r2, r3
 753 0054 09D1     		bne	.L66
 754 0056 03B0     		add	sp, sp, #12
 755              		.cfi_remember_state
 756              		.cfi_def_cfa_offset 12
 757              		@ sp needed
 758 0058 30BD     		pop	{r4, r5, pc}
 759              	.LVL69:
 760              	.L65:
 761              		.cfi_restore_state
 762              	.LBB260:
 763              	.LBB259:
 764              	.LBB258:
 765              		.loc 4 367 0
 766 005a 0848     		ldr	r0, .L67+12
 767 005c FFF7FEFF 		bl	chSysHalt
 768              	.LVL70:
 769 0060 F2E7     		b	.L58
 770              	.LVL71:
 771              	.L64:
 772              	.LBE258:
 773              	.LBE259:
 774              	.LBE260:
 775              		.loc 1 152 0 discriminator 2
 776 0062 0448     		ldr	r0, .L67+4
 777              	.LVL72:
 778 0064 FFF7FEFF 		bl	chSysHalt
 779              	.LVL73:
 780 0068 D1E7     		b	.L56
 781              	.L66:
 782              		.loc 1 158 0
 783 006a FFF7FEFF 		bl	__stack_chk_fail
 784              	.LVL74:
 785              	.L68:
 786 006e 00BF     		.align	2
 787              	.L67:
 788 0070 00000000 		.word	__stack_chk_guard
 789 0074 00000000 		.word	.LANCHOR4
 790 0078 00000000 		.word	ch
 791 007c 00000000 		.word	.LANCHOR1
 792              		.cfi_endproc
 793              	.LFE261:
 794              		.size	spiUnselect, .-spiUnselect
 795              		.section	.text.spiStartIgnore,"ax",%progbits
 796              		.align	1
 797              		.p2align 4,,15
 798              		.global	spiStartIgnore
ARM GAS  C:\Users\shadi\AppData\Local\Temp\ccFNLhfz.s 			page 15


 799              		.syntax unified
 800              		.thumb
 801              		.thumb_func
 802              		.fpu fpv4-sp-d16
 803              		.type	spiStartIgnore, %function
 804              	spiStartIgnore:
 805              	.LFB262:
 806              		.loc 1 173 0
 807              		.cfi_startproc
 808              		@ args = 0, pretend = 0, frame = 8
 809              		@ frame_needed = 0, uses_anonymous_args = 0
 810              	.LVL75:
 811 0000 70B5     		push	{r4, r5, r6, lr}
 812              		.cfi_def_cfa_offset 16
 813              		.cfi_offset 4, -16
 814              		.cfi_offset 5, -12
 815              		.cfi_offset 6, -8
 816              		.cfi_offset 14, -4
 817 0002 1D4D     		ldr	r5, .L84
 818 0004 82B0     		sub	sp, sp, #8
 819              		.cfi_def_cfa_offset 24
 820              		.loc 1 173 0
 821 0006 2B68     		ldr	r3, [r5]
 822 0008 0193     		str	r3, [sp, #4]
 823 000a 0E46     		mov	r6, r1
 824              		.loc 1 175 0
 825 000c 0446     		mov	r4, r0
 826 000e 48B3     		cbz	r0, .L70
 827              		.loc 1 175 0 is_stmt 0 discriminator 3
 828 0010 41B3     		cbz	r1, .L70
 829              	.LVL76:
 830              	.L71:
 831              	.LBB274:
 832              	.LBB275:
 833              	.LBB276:
 834              	.LBB277:
 835              	.LBB278:
 836              	.LBB279:
 837              		.loc 3 546 0 is_stmt 1
 838 0012 2023     		movs	r3, #32
 839              		.syntax unified
 840              	@ 546 "../../lib/e-puck2_main-processor/ChibiOS//os/ext/CMSIS/include/core_cmFunc.h" 1
 841 0014 83F31188 		MSR basepri, r3
 842              	@ 0 "" 2
 843              	.LVL77:
 844              		.thumb
 845              		.syntax unified
 846              	.LBE279:
 847              	.LBE278:
 848              	.LBE277:
 849              		.loc 4 349 0
 850 0018 FFF7FEFF 		bl	_stats_start_measure_crit_thd
 851              	.LVL78:
 852              		.loc 4 350 0
 853 001c FFF7FEFF 		bl	_dbg_check_lock
 854              	.LVL79:
 855              	.LBE276:
ARM GAS  C:\Users\shadi\AppData\Local\Temp\ccFNLhfz.s 			page 16


 856              	.LBE275:
 857              	.LBE274:
 858              		.loc 1 178 0
 859 0020 2378     		ldrb	r3, [r4]	@ zero_extendqisi2
 860 0022 022B     		cmp	r3, #2
 861 0024 02D0     		beq	.L72
 862              		.loc 1 178 0 is_stmt 0 discriminator 2
 863 0026 1548     		ldr	r0, .L84+4
 864 0028 FFF7FEFF 		bl	chSysHalt
 865              	.LVL80:
 866              	.L72:
 867              		.loc 1 179 0 is_stmt 1
 868 002c 0323     		movs	r3, #3
 869 002e 2370     		strb	r3, [r4]
 870 0030 3146     		mov	r1, r6
 871 0032 2046     		mov	r0, r4
 872 0034 FFF7FEFF 		bl	spi_lld_ignore
 873              	.LVL81:
 874              	.LBB280:
 875              	.LBB281:
 876              	.LBB282:
 877              		.loc 4 360 0
 878 0038 FFF7FEFF 		bl	_dbg_check_unlock
 879              	.LVL82:
 880              		.loc 4 361 0
 881 003c FFF7FEFF 		bl	_stats_stop_measure_crit_thd
 882              	.LVL83:
 883              		.loc 4 367 0
 884 0040 0F4B     		ldr	r3, .L84+8
 885 0042 1A68     		ldr	r2, [r3]
 886 0044 9A42     		cmp	r2, r3
 887 0046 04D0     		beq	.L73
 888 0048 9969     		ldr	r1, [r3, #24]
 889 004a 9368     		ldr	r3, [r2, #8]
 890 004c 8A68     		ldr	r2, [r1, #8]
 891 004e 9A42     		cmp	r2, r3
 892 0050 0CD3     		bcc	.L82
 893              	.L73:
 894              	.LVL84:
 895              	.LBB283:
 896              	.LBB284:
 897              	.LBB285:
 898              		.loc 3 546 0
 899 0052 0023     		movs	r3, #0
 900              		.syntax unified
 901              	@ 546 "../../lib/e-puck2_main-processor/ChibiOS//os/ext/CMSIS/include/core_cmFunc.h" 1
 902 0054 83F31188 		MSR basepri, r3
 903              	@ 0 "" 2
 904              	.LVL85:
 905              		.thumb
 906              		.syntax unified
 907              	.LBE285:
 908              	.LBE284:
 909              	.LBE283:
 910              	.LBE282:
 911              	.LBE281:
 912              	.LBE280:
ARM GAS  C:\Users\shadi\AppData\Local\Temp\ccFNLhfz.s 			page 17


 913              		.loc 1 181 0
 914 0058 019A     		ldr	r2, [sp, #4]
 915 005a 2B68     		ldr	r3, [r5]
 916 005c 9A42     		cmp	r2, r3
 917 005e 09D1     		bne	.L83
 918 0060 02B0     		add	sp, sp, #8
 919              		.cfi_remember_state
 920              		.cfi_def_cfa_offset 16
 921              		@ sp needed
 922 0062 70BD     		pop	{r4, r5, r6, pc}
 923              	.LVL86:
 924              	.L70:
 925              		.cfi_restore_state
 926              		.loc 1 175 0 discriminator 4
 927 0064 0548     		ldr	r0, .L84+4
 928              	.LVL87:
 929 0066 FFF7FEFF 		bl	chSysHalt
 930              	.LVL88:
 931 006a D2E7     		b	.L71
 932              	.L82:
 933              	.LBB288:
 934              	.LBB287:
 935              	.LBB286:
 936              		.loc 4 367 0
 937 006c 0548     		ldr	r0, .L84+12
 938 006e FFF7FEFF 		bl	chSysHalt
 939              	.LVL89:
 940 0072 EEE7     		b	.L73
 941              	.L83:
 942              	.LBE286:
 943              	.LBE287:
 944              	.LBE288:
 945              		.loc 1 181 0
 946 0074 FFF7FEFF 		bl	__stack_chk_fail
 947              	.LVL90:
 948              	.L85:
 949              		.align	2
 950              	.L84:
 951 0078 00000000 		.word	__stack_chk_guard
 952 007c 00000000 		.word	.LANCHOR5
 953 0080 00000000 		.word	ch
 954 0084 00000000 		.word	.LANCHOR1
 955              		.cfi_endproc
 956              	.LFE262:
 957              		.size	spiStartIgnore, .-spiStartIgnore
 958              		.section	.text.spiStartExchange,"ax",%progbits
 959              		.align	1
 960              		.p2align 4,,15
 961              		.global	spiStartExchange
 962              		.syntax unified
 963              		.thumb
 964              		.thumb_func
 965              		.fpu fpv4-sp-d16
 966              		.type	spiStartExchange, %function
 967              	spiStartExchange:
 968              	.LFB263:
 969              		.loc 1 201 0
ARM GAS  C:\Users\shadi\AppData\Local\Temp\ccFNLhfz.s 			page 18


 970              		.cfi_startproc
 971              		@ args = 0, pretend = 0, frame = 8
 972              		@ frame_needed = 0, uses_anonymous_args = 0
 973              	.LVL91:
 974 0000 2DE9F041 		push	{r4, r5, r6, r7, r8, lr}
 975              		.cfi_def_cfa_offset 24
 976              		.cfi_offset 4, -24
 977              		.cfi_offset 5, -20
 978              		.cfi_offset 6, -16
 979              		.cfi_offset 7, -12
 980              		.cfi_offset 8, -8
 981              		.cfi_offset 14, -4
 982 0004 214D     		ldr	r5, .L108
 983 0006 82B0     		sub	sp, sp, #8
 984              		.cfi_def_cfa_offset 32
 985              		.loc 1 201 0
 986 0008 2C68     		ldr	r4, [r5]
 987 000a 0194     		str	r4, [sp, #4]
 988 000c 0E46     		mov	r6, r1
 989 000e 9046     		mov	r8, r2
 990 0010 1F46     		mov	r7, r3
 991              		.loc 1 203 0
 992 0012 0446     		mov	r4, r0
 993 0014 00B1     		cbz	r0, .L87
 994              		.loc 1 203 0 is_stmt 0 discriminator 3
 995 0016 71BB     		cbnz	r1, .L105
 996              	.L87:
 997              		.loc 1 203 0 discriminator 8
 998 0018 1D48     		ldr	r0, .L108+4
 999              	.LVL92:
 1000 001a FFF7FEFF 		bl	chSysHalt
 1001              	.LVL93:
 1002              	.L88:
 1003              	.LBB302:
 1004              	.LBB303:
 1005              	.LBB304:
 1006              	.LBB305:
 1007              	.LBB306:
 1008              	.LBB307:
 1009              		.loc 3 546 0 is_stmt 1
 1010 001e 2023     		movs	r3, #32
 1011              		.syntax unified
 1012              	@ 546 "../../lib/e-puck2_main-processor/ChibiOS//os/ext/CMSIS/include/core_cmFunc.h" 1
 1013 0020 83F31188 		MSR basepri, r3
 1014              	@ 0 "" 2
 1015              	.LVL94:
 1016              		.thumb
 1017              		.syntax unified
 1018              	.LBE307:
 1019              	.LBE306:
 1020              	.LBE305:
 1021              		.loc 4 349 0
 1022 0024 FFF7FEFF 		bl	_stats_start_measure_crit_thd
 1023              	.LVL95:
 1024              		.loc 4 350 0
 1025 0028 FFF7FEFF 		bl	_dbg_check_lock
 1026              	.LVL96:
ARM GAS  C:\Users\shadi\AppData\Local\Temp\ccFNLhfz.s 			page 19


 1027              	.LBE304:
 1028              	.LBE303:
 1029              	.LBE302:
 1030              		.loc 1 207 0
 1031 002c 2378     		ldrb	r3, [r4]	@ zero_extendqisi2
 1032 002e 022B     		cmp	r3, #2
 1033 0030 02D0     		beq	.L89
 1034              		.loc 1 207 0 is_stmt 0 discriminator 2
 1035 0032 1748     		ldr	r0, .L108+4
 1036 0034 FFF7FEFF 		bl	chSysHalt
 1037              	.LVL97:
 1038              	.L89:
 1039              		.loc 1 208 0 is_stmt 1
 1040 0038 0320     		movs	r0, #3
 1041 003a 3B46     		mov	r3, r7
 1042 003c 4246     		mov	r2, r8
 1043 003e 3146     		mov	r1, r6
 1044 0040 2070     		strb	r0, [r4]
 1045 0042 2046     		mov	r0, r4
 1046 0044 FFF7FEFF 		bl	spi_lld_exchange
 1047              	.LVL98:
 1048              	.LBB308:
 1049              	.LBB309:
 1050              	.LBB310:
 1051              		.loc 4 360 0
 1052 0048 FFF7FEFF 		bl	_dbg_check_unlock
 1053              	.LVL99:
 1054              		.loc 4 361 0
 1055 004c FFF7FEFF 		bl	_stats_stop_measure_crit_thd
 1056              	.LVL100:
 1057              		.loc 4 367 0
 1058 0050 104B     		ldr	r3, .L108+8
 1059 0052 1A68     		ldr	r2, [r3]
 1060 0054 9A42     		cmp	r2, r3
 1061 0056 04D0     		beq	.L90
 1062 0058 9969     		ldr	r1, [r3, #24]
 1063 005a 9368     		ldr	r3, [r2, #8]
 1064 005c 8A68     		ldr	r2, [r1, #8]
 1065 005e 9A42     		cmp	r2, r3
 1066 0060 0ED3     		bcc	.L106
 1067              	.L90:
 1068              	.LVL101:
 1069              	.LBB311:
 1070              	.LBB312:
 1071              	.LBB313:
 1072              		.loc 3 546 0
 1073 0062 0023     		movs	r3, #0
 1074              		.syntax unified
 1075              	@ 546 "../../lib/e-puck2_main-processor/ChibiOS//os/ext/CMSIS/include/core_cmFunc.h" 1
 1076 0064 83F31188 		MSR basepri, r3
 1077              	@ 0 "" 2
 1078              	.LVL102:
 1079              		.thumb
 1080              		.syntax unified
 1081              	.LBE313:
 1082              	.LBE312:
 1083              	.LBE311:
ARM GAS  C:\Users\shadi\AppData\Local\Temp\ccFNLhfz.s 			page 20


 1084              	.LBE310:
 1085              	.LBE309:
 1086              	.LBE308:
 1087              		.loc 1 210 0
 1088 0068 019A     		ldr	r2, [sp, #4]
 1089 006a 2B68     		ldr	r3, [r5]
 1090 006c 9A42     		cmp	r2, r3
 1091 006e 0BD1     		bne	.L107
 1092 0070 02B0     		add	sp, sp, #8
 1093              		.cfi_remember_state
 1094              		.cfi_def_cfa_offset 24
 1095              		@ sp needed
 1096 0072 BDE8F081 		pop	{r4, r5, r6, r7, r8, pc}
 1097              	.LVL103:
 1098              	.L105:
 1099              		.cfi_restore_state
 1100              		.loc 1 203 0 discriminator 5
 1101 0076 002B     		cmp	r3, #0
 1102 0078 CED0     		beq	.L87
 1103              		.loc 1 203 0 is_stmt 0 discriminator 7
 1104 007a 002A     		cmp	r2, #0
 1105 007c CFD1     		bne	.L88
 1106 007e CBE7     		b	.L87
 1107              	.LVL104:
 1108              	.L106:
 1109              	.LBB316:
 1110              	.LBB315:
 1111              	.LBB314:
 1112              		.loc 4 367 0 is_stmt 1
 1113 0080 0548     		ldr	r0, .L108+12
 1114 0082 FFF7FEFF 		bl	chSysHalt
 1115              	.LVL105:
 1116 0086 ECE7     		b	.L90
 1117              	.L107:
 1118              	.LBE314:
 1119              	.LBE315:
 1120              	.LBE316:
 1121              		.loc 1 210 0
 1122 0088 FFF7FEFF 		bl	__stack_chk_fail
 1123              	.LVL106:
 1124              	.L109:
 1125              		.align	2
 1126              	.L108:
 1127 008c 00000000 		.word	__stack_chk_guard
 1128 0090 00000000 		.word	.LANCHOR6
 1129 0094 00000000 		.word	ch
 1130 0098 00000000 		.word	.LANCHOR1
 1131              		.cfi_endproc
 1132              	.LFE263:
 1133              		.size	spiStartExchange, .-spiStartExchange
 1134              		.section	.text.spiStartSend,"ax",%progbits
 1135              		.align	1
 1136              		.p2align 4,,15
 1137              		.global	spiStartSend
 1138              		.syntax unified
 1139              		.thumb
 1140              		.thumb_func
ARM GAS  C:\Users\shadi\AppData\Local\Temp\ccFNLhfz.s 			page 21


 1141              		.fpu fpv4-sp-d16
 1142              		.type	spiStartSend, %function
 1143              	spiStartSend:
 1144              	.LFB264:
 1145              		.loc 1 227 0
 1146              		.cfi_startproc
 1147              		@ args = 0, pretend = 0, frame = 8
 1148              		@ frame_needed = 0, uses_anonymous_args = 0
 1149              	.LVL107:
 1150 0000 F0B5     		push	{r4, r5, r6, r7, lr}
 1151              		.cfi_def_cfa_offset 20
 1152              		.cfi_offset 4, -20
 1153              		.cfi_offset 5, -16
 1154              		.cfi_offset 6, -12
 1155              		.cfi_offset 7, -8
 1156              		.cfi_offset 14, -4
 1157 0002 1F4D     		ldr	r5, .L129
 1158 0004 83B0     		sub	sp, sp, #12
 1159              		.cfi_def_cfa_offset 32
 1160              		.loc 1 227 0
 1161 0006 2B68     		ldr	r3, [r5]
 1162 0008 0193     		str	r3, [sp, #4]
 1163 000a 0E46     		mov	r6, r1
 1164 000c 1746     		mov	r7, r2
 1165              		.loc 1 229 0
 1166 000e 0446     		mov	r4, r0
 1167 0010 00B1     		cbz	r0, .L111
 1168              		.loc 1 229 0 is_stmt 0 discriminator 3
 1169 0012 61BB     		cbnz	r1, .L126
 1170              	.L111:
 1171              		.loc 1 229 0 discriminator 6
 1172 0014 1B48     		ldr	r0, .L129+4
 1173              	.LVL108:
 1174 0016 FFF7FEFF 		bl	chSysHalt
 1175              	.LVL109:
 1176              	.L112:
 1177              	.LBB330:
 1178              	.LBB331:
 1179              	.LBB332:
 1180              	.LBB333:
 1181              	.LBB334:
 1182              	.LBB335:
 1183              		.loc 3 546 0 is_stmt 1
 1184 001a 2023     		movs	r3, #32
 1185              		.syntax unified
 1186              	@ 546 "../../lib/e-puck2_main-processor/ChibiOS//os/ext/CMSIS/include/core_cmFunc.h" 1
 1187 001c 83F31188 		MSR basepri, r3
 1188              	@ 0 "" 2
 1189              	.LVL110:
 1190              		.thumb
 1191              		.syntax unified
 1192              	.LBE335:
 1193              	.LBE334:
 1194              	.LBE333:
 1195              		.loc 4 349 0
 1196 0020 FFF7FEFF 		bl	_stats_start_measure_crit_thd
 1197              	.LVL111:
ARM GAS  C:\Users\shadi\AppData\Local\Temp\ccFNLhfz.s 			page 22


 1198              		.loc 4 350 0
 1199 0024 FFF7FEFF 		bl	_dbg_check_lock
 1200              	.LVL112:
 1201              	.LBE332:
 1202              	.LBE331:
 1203              	.LBE330:
 1204              		.loc 1 232 0
 1205 0028 2378     		ldrb	r3, [r4]	@ zero_extendqisi2
 1206 002a 022B     		cmp	r3, #2
 1207 002c 02D0     		beq	.L113
 1208              		.loc 1 232 0 is_stmt 0 discriminator 2
 1209 002e 1548     		ldr	r0, .L129+4
 1210 0030 FFF7FEFF 		bl	chSysHalt
 1211              	.LVL113:
 1212              	.L113:
 1213              		.loc 1 233 0 is_stmt 1
 1214 0034 0323     		movs	r3, #3
 1215 0036 3A46     		mov	r2, r7
 1216 0038 2370     		strb	r3, [r4]
 1217 003a 3146     		mov	r1, r6
 1218 003c 2046     		mov	r0, r4
 1219 003e FFF7FEFF 		bl	spi_lld_send
 1220              	.LVL114:
 1221              	.LBB336:
 1222              	.LBB337:
 1223              	.LBB338:
 1224              		.loc 4 360 0
 1225 0042 FFF7FEFF 		bl	_dbg_check_unlock
 1226              	.LVL115:
 1227              		.loc 4 361 0
 1228 0046 FFF7FEFF 		bl	_stats_stop_measure_crit_thd
 1229              	.LVL116:
 1230              		.loc 4 367 0
 1231 004a 0F4B     		ldr	r3, .L129+8
 1232 004c 1A68     		ldr	r2, [r3]
 1233 004e 9A42     		cmp	r2, r3
 1234 0050 04D0     		beq	.L114
 1235 0052 9969     		ldr	r1, [r3, #24]
 1236 0054 9368     		ldr	r3, [r2, #8]
 1237 0056 8A68     		ldr	r2, [r1, #8]
 1238 0058 9A42     		cmp	r2, r3
 1239 005a 0BD3     		bcc	.L127
 1240              	.L114:
 1241              	.LVL117:
 1242              	.LBB339:
 1243              	.LBB340:
 1244              	.LBB341:
 1245              		.loc 3 546 0
 1246 005c 0023     		movs	r3, #0
 1247              		.syntax unified
 1248              	@ 546 "../../lib/e-puck2_main-processor/ChibiOS//os/ext/CMSIS/include/core_cmFunc.h" 1
 1249 005e 83F31188 		MSR basepri, r3
 1250              	@ 0 "" 2
 1251              	.LVL118:
 1252              		.thumb
 1253              		.syntax unified
 1254              	.LBE341:
ARM GAS  C:\Users\shadi\AppData\Local\Temp\ccFNLhfz.s 			page 23


 1255              	.LBE340:
 1256              	.LBE339:
 1257              	.LBE338:
 1258              	.LBE337:
 1259              	.LBE336:
 1260              		.loc 1 235 0
 1261 0062 019A     		ldr	r2, [sp, #4]
 1262 0064 2B68     		ldr	r3, [r5]
 1263 0066 9A42     		cmp	r2, r3
 1264 0068 08D1     		bne	.L128
 1265 006a 03B0     		add	sp, sp, #12
 1266              		.cfi_remember_state
 1267              		.cfi_def_cfa_offset 20
 1268              		@ sp needed
 1269 006c F0BD     		pop	{r4, r5, r6, r7, pc}
 1270              	.LVL119:
 1271              	.L126:
 1272              		.cfi_restore_state
 1273              		.loc 1 229 0 discriminator 5
 1274 006e 002A     		cmp	r2, #0
 1275 0070 D3D1     		bne	.L112
 1276 0072 CFE7     		b	.L111
 1277              	.LVL120:
 1278              	.L127:
 1279              	.LBB344:
 1280              	.LBB343:
 1281              	.LBB342:
 1282              		.loc 4 367 0
 1283 0074 0548     		ldr	r0, .L129+12
 1284 0076 FFF7FEFF 		bl	chSysHalt
 1285              	.LVL121:
 1286 007a EFE7     		b	.L114
 1287              	.L128:
 1288              	.LBE342:
 1289              	.LBE343:
 1290              	.LBE344:
 1291              		.loc 1 235 0
 1292 007c FFF7FEFF 		bl	__stack_chk_fail
 1293              	.LVL122:
 1294              	.L130:
 1295              		.align	2
 1296              	.L129:
 1297 0080 00000000 		.word	__stack_chk_guard
 1298 0084 00000000 		.word	.LANCHOR7
 1299 0088 00000000 		.word	ch
 1300 008c 00000000 		.word	.LANCHOR1
 1301              		.cfi_endproc
 1302              	.LFE264:
 1303              		.size	spiStartSend, .-spiStartSend
 1304              		.section	.text.spiStartReceive,"ax",%progbits
 1305              		.align	1
 1306              		.p2align 4,,15
 1307              		.global	spiStartReceive
 1308              		.syntax unified
 1309              		.thumb
 1310              		.thumb_func
 1311              		.fpu fpv4-sp-d16
ARM GAS  C:\Users\shadi\AppData\Local\Temp\ccFNLhfz.s 			page 24


 1312              		.type	spiStartReceive, %function
 1313              	spiStartReceive:
 1314              	.LFB265:
 1315              		.loc 1 252 0
 1316              		.cfi_startproc
 1317              		@ args = 0, pretend = 0, frame = 8
 1318              		@ frame_needed = 0, uses_anonymous_args = 0
 1319              	.LVL123:
 1320 0000 F0B5     		push	{r4, r5, r6, r7, lr}
 1321              		.cfi_def_cfa_offset 20
 1322              		.cfi_offset 4, -20
 1323              		.cfi_offset 5, -16
 1324              		.cfi_offset 6, -12
 1325              		.cfi_offset 7, -8
 1326              		.cfi_offset 14, -4
 1327 0002 1F4D     		ldr	r5, .L150
 1328 0004 83B0     		sub	sp, sp, #12
 1329              		.cfi_def_cfa_offset 32
 1330              		.loc 1 252 0
 1331 0006 2B68     		ldr	r3, [r5]
 1332 0008 0193     		str	r3, [sp, #4]
 1333 000a 0E46     		mov	r6, r1
 1334 000c 1746     		mov	r7, r2
 1335              		.loc 1 254 0
 1336 000e 0446     		mov	r4, r0
 1337 0010 00B1     		cbz	r0, .L132
 1338              		.loc 1 254 0 is_stmt 0 discriminator 3
 1339 0012 61BB     		cbnz	r1, .L147
 1340              	.L132:
 1341              		.loc 1 254 0 discriminator 6
 1342 0014 1B48     		ldr	r0, .L150+4
 1343              	.LVL124:
 1344 0016 FFF7FEFF 		bl	chSysHalt
 1345              	.LVL125:
 1346              	.L133:
 1347              	.LBB358:
 1348              	.LBB359:
 1349              	.LBB360:
 1350              	.LBB361:
 1351              	.LBB362:
 1352              	.LBB363:
 1353              		.loc 3 546 0 is_stmt 1
 1354 001a 2023     		movs	r3, #32
 1355              		.syntax unified
 1356              	@ 546 "../../lib/e-puck2_main-processor/ChibiOS//os/ext/CMSIS/include/core_cmFunc.h" 1
 1357 001c 83F31188 		MSR basepri, r3
 1358              	@ 0 "" 2
 1359              	.LVL126:
 1360              		.thumb
 1361              		.syntax unified
 1362              	.LBE363:
 1363              	.LBE362:
 1364              	.LBE361:
 1365              		.loc 4 349 0
 1366 0020 FFF7FEFF 		bl	_stats_start_measure_crit_thd
 1367              	.LVL127:
 1368              		.loc 4 350 0
ARM GAS  C:\Users\shadi\AppData\Local\Temp\ccFNLhfz.s 			page 25


 1369 0024 FFF7FEFF 		bl	_dbg_check_lock
 1370              	.LVL128:
 1371              	.LBE360:
 1372              	.LBE359:
 1373              	.LBE358:
 1374              		.loc 1 257 0
 1375 0028 2378     		ldrb	r3, [r4]	@ zero_extendqisi2
 1376 002a 022B     		cmp	r3, #2
 1377 002c 02D0     		beq	.L134
 1378              		.loc 1 257 0 is_stmt 0 discriminator 2
 1379 002e 1548     		ldr	r0, .L150+4
 1380 0030 FFF7FEFF 		bl	chSysHalt
 1381              	.LVL129:
 1382              	.L134:
 1383              		.loc 1 258 0 is_stmt 1
 1384 0034 0323     		movs	r3, #3
 1385 0036 3A46     		mov	r2, r7
 1386 0038 2370     		strb	r3, [r4]
 1387 003a 3146     		mov	r1, r6
 1388 003c 2046     		mov	r0, r4
 1389 003e FFF7FEFF 		bl	spi_lld_receive
 1390              	.LVL130:
 1391              	.LBB364:
 1392              	.LBB365:
 1393              	.LBB366:
 1394              		.loc 4 360 0
 1395 0042 FFF7FEFF 		bl	_dbg_check_unlock
 1396              	.LVL131:
 1397              		.loc 4 361 0
 1398 0046 FFF7FEFF 		bl	_stats_stop_measure_crit_thd
 1399              	.LVL132:
 1400              		.loc 4 367 0
 1401 004a 0F4B     		ldr	r3, .L150+8
 1402 004c 1A68     		ldr	r2, [r3]
 1403 004e 9A42     		cmp	r2, r3
 1404 0050 04D0     		beq	.L135
 1405 0052 9969     		ldr	r1, [r3, #24]
 1406 0054 9368     		ldr	r3, [r2, #8]
 1407 0056 8A68     		ldr	r2, [r1, #8]
 1408 0058 9A42     		cmp	r2, r3
 1409 005a 0BD3     		bcc	.L148
 1410              	.L135:
 1411              	.LVL133:
 1412              	.LBB367:
 1413              	.LBB368:
 1414              	.LBB369:
 1415              		.loc 3 546 0
 1416 005c 0023     		movs	r3, #0
 1417              		.syntax unified
 1418              	@ 546 "../../lib/e-puck2_main-processor/ChibiOS//os/ext/CMSIS/include/core_cmFunc.h" 1
 1419 005e 83F31188 		MSR basepri, r3
 1420              	@ 0 "" 2
 1421              	.LVL134:
 1422              		.thumb
 1423              		.syntax unified
 1424              	.LBE369:
 1425              	.LBE368:
ARM GAS  C:\Users\shadi\AppData\Local\Temp\ccFNLhfz.s 			page 26


 1426              	.LBE367:
 1427              	.LBE366:
 1428              	.LBE365:
 1429              	.LBE364:
 1430              		.loc 1 260 0
 1431 0062 019A     		ldr	r2, [sp, #4]
 1432 0064 2B68     		ldr	r3, [r5]
 1433 0066 9A42     		cmp	r2, r3
 1434 0068 08D1     		bne	.L149
 1435 006a 03B0     		add	sp, sp, #12
 1436              		.cfi_remember_state
 1437              		.cfi_def_cfa_offset 20
 1438              		@ sp needed
 1439 006c F0BD     		pop	{r4, r5, r6, r7, pc}
 1440              	.LVL135:
 1441              	.L147:
 1442              		.cfi_restore_state
 1443              		.loc 1 254 0 discriminator 5
 1444 006e 002A     		cmp	r2, #0
 1445 0070 D3D1     		bne	.L133
 1446 0072 CFE7     		b	.L132
 1447              	.LVL136:
 1448              	.L148:
 1449              	.LBB372:
 1450              	.LBB371:
 1451              	.LBB370:
 1452              		.loc 4 367 0
 1453 0074 0548     		ldr	r0, .L150+12
 1454 0076 FFF7FEFF 		bl	chSysHalt
 1455              	.LVL137:
 1456 007a EFE7     		b	.L135
 1457              	.L149:
 1458              	.LBE370:
 1459              	.LBE371:
 1460              	.LBE372:
 1461              		.loc 1 260 0
 1462 007c FFF7FEFF 		bl	__stack_chk_fail
 1463              	.LVL138:
 1464              	.L151:
 1465              		.align	2
 1466              	.L150:
 1467 0080 00000000 		.word	__stack_chk_guard
 1468 0084 00000000 		.word	.LANCHOR8
 1469 0088 00000000 		.word	ch
 1470 008c 00000000 		.word	.LANCHOR1
 1471              		.cfi_endproc
 1472              	.LFE265:
 1473              		.size	spiStartReceive, .-spiStartReceive
 1474              		.section	.text.spiIgnore,"ax",%progbits
 1475              		.align	1
 1476              		.p2align 4,,15
 1477              		.global	spiIgnore
 1478              		.syntax unified
 1479              		.thumb
 1480              		.thumb_func
 1481              		.fpu fpv4-sp-d16
 1482              		.type	spiIgnore, %function
ARM GAS  C:\Users\shadi\AppData\Local\Temp\ccFNLhfz.s 			page 27


 1483              	spiIgnore:
 1484              	.LFB266:
 1485              		.loc 1 277 0
 1486              		.cfi_startproc
 1487              		@ args = 0, pretend = 0, frame = 8
 1488              		@ frame_needed = 0, uses_anonymous_args = 0
 1489              	.LVL139:
 1490 0000 70B5     		push	{r4, r5, r6, lr}
 1491              		.cfi_def_cfa_offset 16
 1492              		.cfi_offset 4, -16
 1493              		.cfi_offset 5, -12
 1494              		.cfi_offset 6, -8
 1495              		.cfi_offset 14, -4
 1496 0002 234D     		ldr	r5, .L171
 1497 0004 82B0     		sub	sp, sp, #8
 1498              		.cfi_def_cfa_offset 24
 1499              		.loc 1 277 0
 1500 0006 2B68     		ldr	r3, [r5]
 1501 0008 0193     		str	r3, [sp, #4]
 1502 000a 0E46     		mov	r6, r1
 1503              		.loc 1 279 0
 1504 000c 0446     		mov	r4, r0
 1505 000e 0028     		cmp	r0, #0
 1506 0010 33D0     		beq	.L153
 1507              		.loc 1 279 0 is_stmt 0 discriminator 3
 1508 0012 91B3     		cbz	r1, .L153
 1509              	.LVL140:
 1510              	.L154:
 1511              	.LBB388:
 1512              	.LBB389:
 1513              	.LBB390:
 1514              	.LBB391:
 1515              	.LBB392:
 1516              	.LBB393:
 1517              		.loc 3 546 0 is_stmt 1
 1518 0014 2023     		movs	r3, #32
 1519              		.syntax unified
 1520              	@ 546 "../../lib/e-puck2_main-processor/ChibiOS//os/ext/CMSIS/include/core_cmFunc.h" 1
 1521 0016 83F31188 		MSR basepri, r3
 1522              	@ 0 "" 2
 1523              	.LVL141:
 1524              		.thumb
 1525              		.syntax unified
 1526              	.LBE393:
 1527              	.LBE392:
 1528              	.LBE391:
 1529              		.loc 4 349 0
 1530 001a FFF7FEFF 		bl	_stats_start_measure_crit_thd
 1531              	.LVL142:
 1532              		.loc 4 350 0
 1533 001e FFF7FEFF 		bl	_dbg_check_lock
 1534              	.LVL143:
 1535              	.LBE390:
 1536              	.LBE389:
 1537              	.LBE388:
 1538              		.loc 1 282 0
 1539 0022 2378     		ldrb	r3, [r4]	@ zero_extendqisi2
ARM GAS  C:\Users\shadi\AppData\Local\Temp\ccFNLhfz.s 			page 28


 1540 0024 022B     		cmp	r3, #2
 1541 0026 02D0     		beq	.L155
 1542              		.loc 1 282 0 is_stmt 0 discriminator 2
 1543 0028 1A48     		ldr	r0, .L171+4
 1544 002a FFF7FEFF 		bl	chSysHalt
 1545              	.LVL144:
 1546              	.L155:
 1547              		.loc 1 283 0 is_stmt 1 discriminator 1
 1548 002e 6368     		ldr	r3, [r4, #4]
 1549 0030 1B68     		ldr	r3, [r3]
 1550 0032 13B1     		cbz	r3, .L156
 1551              		.loc 1 283 0 is_stmt 0 discriminator 2
 1552 0034 1748     		ldr	r0, .L171+4
 1553 0036 FFF7FEFF 		bl	chSysHalt
 1554              	.LVL145:
 1555              	.L156:
 1556              		.loc 1 284 0 is_stmt 1
 1557 003a 0323     		movs	r3, #3
 1558 003c 2370     		strb	r3, [r4]
 1559 003e 3146     		mov	r1, r6
 1560 0040 2046     		mov	r0, r4
 1561 0042 FFF7FEFF 		bl	spi_lld_ignore
 1562              	.LVL146:
 1563              	.LBB394:
 1564              	.LBB395:
 1565              		.loc 2 642 0
 1566 0046 04F10800 		add	r0, r4, #8
 1567              	.LVL147:
 1568 004a FFF7FEFF 		bl	chThdSuspendS
 1569              	.LVL148:
 1570              	.LBE395:
 1571              	.LBE394:
 1572              	.LBB396:
 1573              	.LBB397:
 1574              	.LBB398:
 1575              		.loc 4 360 0
 1576 004e FFF7FEFF 		bl	_dbg_check_unlock
 1577              	.LVL149:
 1578              		.loc 4 361 0
 1579 0052 FFF7FEFF 		bl	_stats_stop_measure_crit_thd
 1580              	.LVL150:
 1581              		.loc 4 367 0
 1582 0056 104B     		ldr	r3, .L171+8
 1583 0058 1A68     		ldr	r2, [r3]
 1584 005a 9A42     		cmp	r2, r3
 1585 005c 04D0     		beq	.L157
 1586 005e 9969     		ldr	r1, [r3, #24]
 1587 0060 9368     		ldr	r3, [r2, #8]
 1588 0062 8A68     		ldr	r2, [r1, #8]
 1589 0064 9A42     		cmp	r2, r3
 1590 0066 0CD3     		bcc	.L169
 1591              	.L157:
 1592              	.LVL151:
 1593              	.LBB399:
 1594              	.LBB400:
 1595              	.LBB401:
 1596              		.loc 3 546 0
ARM GAS  C:\Users\shadi\AppData\Local\Temp\ccFNLhfz.s 			page 29


 1597 0068 0023     		movs	r3, #0
 1598              		.syntax unified
 1599              	@ 546 "../../lib/e-puck2_main-processor/ChibiOS//os/ext/CMSIS/include/core_cmFunc.h" 1
 1600 006a 83F31188 		MSR basepri, r3
 1601              	@ 0 "" 2
 1602              	.LVL152:
 1603              		.thumb
 1604              		.syntax unified
 1605              	.LBE401:
 1606              	.LBE400:
 1607              	.LBE399:
 1608              	.LBE398:
 1609              	.LBE397:
 1610              	.LBE396:
 1611              		.loc 1 287 0
 1612 006e 019A     		ldr	r2, [sp, #4]
 1613 0070 2B68     		ldr	r3, [r5]
 1614 0072 9A42     		cmp	r2, r3
 1615 0074 09D1     		bne	.L170
 1616 0076 02B0     		add	sp, sp, #8
 1617              		.cfi_remember_state
 1618              		.cfi_def_cfa_offset 16
 1619              		@ sp needed
 1620 0078 70BD     		pop	{r4, r5, r6, pc}
 1621              	.LVL153:
 1622              	.L153:
 1623              		.cfi_restore_state
 1624              		.loc 1 279 0 discriminator 4
 1625 007a 0648     		ldr	r0, .L171+4
 1626              	.LVL154:
 1627 007c FFF7FEFF 		bl	chSysHalt
 1628              	.LVL155:
 1629 0080 C8E7     		b	.L154
 1630              	.L169:
 1631              	.LBB404:
 1632              	.LBB403:
 1633              	.LBB402:
 1634              		.loc 4 367 0
 1635 0082 0648     		ldr	r0, .L171+12
 1636 0084 FFF7FEFF 		bl	chSysHalt
 1637              	.LVL156:
 1638 0088 EEE7     		b	.L157
 1639              	.L170:
 1640              	.LBE402:
 1641              	.LBE403:
 1642              	.LBE404:
 1643              		.loc 1 287 0
 1644 008a FFF7FEFF 		bl	__stack_chk_fail
 1645              	.LVL157:
 1646              	.L172:
 1647 008e 00BF     		.align	2
 1648              	.L171:
 1649 0090 00000000 		.word	__stack_chk_guard
 1650 0094 00000000 		.word	.LANCHOR9
 1651 0098 00000000 		.word	ch
 1652 009c 00000000 		.word	.LANCHOR1
 1653              		.cfi_endproc
ARM GAS  C:\Users\shadi\AppData\Local\Temp\ccFNLhfz.s 			page 30


 1654              	.LFE266:
 1655              		.size	spiIgnore, .-spiIgnore
 1656              		.section	.text.spiExchange,"ax",%progbits
 1657              		.align	1
 1658              		.p2align 4,,15
 1659              		.global	spiExchange
 1660              		.syntax unified
 1661              		.thumb
 1662              		.thumb_func
 1663              		.fpu fpv4-sp-d16
 1664              		.type	spiExchange, %function
 1665              	spiExchange:
 1666              	.LFB267:
 1667              		.loc 1 308 0
 1668              		.cfi_startproc
 1669              		@ args = 0, pretend = 0, frame = 8
 1670              		@ frame_needed = 0, uses_anonymous_args = 0
 1671              	.LVL158:
 1672 0000 2DE9F041 		push	{r4, r5, r6, r7, r8, lr}
 1673              		.cfi_def_cfa_offset 24
 1674              		.cfi_offset 4, -24
 1675              		.cfi_offset 5, -20
 1676              		.cfi_offset 6, -16
 1677              		.cfi_offset 7, -12
 1678              		.cfi_offset 8, -8
 1679              		.cfi_offset 14, -4
 1680 0004 274D     		ldr	r5, .L199
 1681 0006 82B0     		sub	sp, sp, #8
 1682              		.cfi_def_cfa_offset 32
 1683              		.loc 1 308 0
 1684 0008 2C68     		ldr	r4, [r5]
 1685 000a 0194     		str	r4, [sp, #4]
 1686 000c 0E46     		mov	r6, r1
 1687 000e 9046     		mov	r8, r2
 1688 0010 1F46     		mov	r7, r3
 1689              		.loc 1 310 0
 1690 0012 0446     		mov	r4, r0
 1691 0014 08B1     		cbz	r0, .L174
 1692              		.loc 1 310 0 is_stmt 0 discriminator 3
 1693 0016 0029     		cmp	r1, #0
 1694 0018 38D1     		bne	.L196
 1695              	.L174:
 1696              		.loc 1 310 0 discriminator 8
 1697 001a 2348     		ldr	r0, .L199+4
 1698              	.LVL159:
 1699 001c FFF7FEFF 		bl	chSysHalt
 1700              	.LVL160:
 1701              	.L175:
 1702              	.LBB420:
 1703              	.LBB421:
 1704              	.LBB422:
 1705              	.LBB423:
 1706              	.LBB424:
 1707              	.LBB425:
 1708              		.loc 3 546 0 is_stmt 1
 1709 0020 2023     		movs	r3, #32
 1710              		.syntax unified
ARM GAS  C:\Users\shadi\AppData\Local\Temp\ccFNLhfz.s 			page 31


 1711              	@ 546 "../../lib/e-puck2_main-processor/ChibiOS//os/ext/CMSIS/include/core_cmFunc.h" 1
 1712 0022 83F31188 		MSR basepri, r3
 1713              	@ 0 "" 2
 1714              	.LVL161:
 1715              		.thumb
 1716              		.syntax unified
 1717              	.LBE425:
 1718              	.LBE424:
 1719              	.LBE423:
 1720              		.loc 4 349 0
 1721 0026 FFF7FEFF 		bl	_stats_start_measure_crit_thd
 1722              	.LVL162:
 1723              		.loc 4 350 0
 1724 002a FFF7FEFF 		bl	_dbg_check_lock
 1725              	.LVL163:
 1726              	.LBE422:
 1727              	.LBE421:
 1728              	.LBE420:
 1729              		.loc 1 314 0
 1730 002e 2378     		ldrb	r3, [r4]	@ zero_extendqisi2
 1731 0030 022B     		cmp	r3, #2
 1732 0032 02D0     		beq	.L176
 1733              		.loc 1 314 0 is_stmt 0 discriminator 2
 1734 0034 1C48     		ldr	r0, .L199+4
 1735 0036 FFF7FEFF 		bl	chSysHalt
 1736              	.LVL164:
 1737              	.L176:
 1738              		.loc 1 315 0 is_stmt 1 discriminator 1
 1739 003a 6368     		ldr	r3, [r4, #4]
 1740 003c 1B68     		ldr	r3, [r3]
 1741 003e 13B1     		cbz	r3, .L177
 1742              		.loc 1 315 0 is_stmt 0 discriminator 2
 1743 0040 1948     		ldr	r0, .L199+4
 1744 0042 FFF7FEFF 		bl	chSysHalt
 1745              	.LVL165:
 1746              	.L177:
 1747              		.loc 1 316 0 is_stmt 1
 1748 0046 0320     		movs	r0, #3
 1749 0048 3B46     		mov	r3, r7
 1750 004a 4246     		mov	r2, r8
 1751 004c 3146     		mov	r1, r6
 1752 004e 2070     		strb	r0, [r4]
 1753 0050 2046     		mov	r0, r4
 1754 0052 FFF7FEFF 		bl	spi_lld_exchange
 1755              	.LVL166:
 1756              	.LBB426:
 1757              	.LBB427:
 1758              		.loc 2 642 0
 1759 0056 04F10800 		add	r0, r4, #8
 1760              	.LVL167:
 1761 005a FFF7FEFF 		bl	chThdSuspendS
 1762              	.LVL168:
 1763              	.LBE427:
 1764              	.LBE426:
 1765              	.LBB428:
 1766              	.LBB429:
 1767              	.LBB430:
ARM GAS  C:\Users\shadi\AppData\Local\Temp\ccFNLhfz.s 			page 32


 1768              		.loc 4 360 0
 1769 005e FFF7FEFF 		bl	_dbg_check_unlock
 1770              	.LVL169:
 1771              		.loc 4 361 0
 1772 0062 FFF7FEFF 		bl	_stats_stop_measure_crit_thd
 1773              	.LVL170:
 1774              		.loc 4 367 0
 1775 0066 114B     		ldr	r3, .L199+8
 1776 0068 1A68     		ldr	r2, [r3]
 1777 006a 9A42     		cmp	r2, r3
 1778 006c 04D0     		beq	.L178
 1779 006e 9969     		ldr	r1, [r3, #24]
 1780 0070 9368     		ldr	r3, [r2, #8]
 1781 0072 8A68     		ldr	r2, [r1, #8]
 1782 0074 9A42     		cmp	r2, r3
 1783 0076 0ED3     		bcc	.L197
 1784              	.L178:
 1785              	.LVL171:
 1786              	.LBB431:
 1787              	.LBB432:
 1788              	.LBB433:
 1789              		.loc 3 546 0
 1790 0078 0023     		movs	r3, #0
 1791              		.syntax unified
 1792              	@ 546 "../../lib/e-puck2_main-processor/ChibiOS//os/ext/CMSIS/include/core_cmFunc.h" 1
 1793 007a 83F31188 		MSR basepri, r3
 1794              	@ 0 "" 2
 1795              	.LVL172:
 1796              		.thumb
 1797              		.syntax unified
 1798              	.LBE433:
 1799              	.LBE432:
 1800              	.LBE431:
 1801              	.LBE430:
 1802              	.LBE429:
 1803              	.LBE428:
 1804              		.loc 1 319 0
 1805 007e 019A     		ldr	r2, [sp, #4]
 1806 0080 2B68     		ldr	r3, [r5]
 1807 0082 9A42     		cmp	r2, r3
 1808 0084 0BD1     		bne	.L198
 1809 0086 02B0     		add	sp, sp, #8
 1810              		.cfi_remember_state
 1811              		.cfi_def_cfa_offset 24
 1812              		@ sp needed
 1813 0088 BDE8F081 		pop	{r4, r5, r6, r7, r8, pc}
 1814              	.LVL173:
 1815              	.L196:
 1816              		.cfi_restore_state
 1817              		.loc 1 310 0 discriminator 5
 1818 008c 002B     		cmp	r3, #0
 1819 008e C4D0     		beq	.L174
 1820              		.loc 1 310 0 is_stmt 0 discriminator 7
 1821 0090 002A     		cmp	r2, #0
 1822 0092 C5D1     		bne	.L175
 1823 0094 C1E7     		b	.L174
 1824              	.LVL174:
ARM GAS  C:\Users\shadi\AppData\Local\Temp\ccFNLhfz.s 			page 33


 1825              	.L197:
 1826              	.LBB436:
 1827              	.LBB435:
 1828              	.LBB434:
 1829              		.loc 4 367 0 is_stmt 1
 1830 0096 0648     		ldr	r0, .L199+12
 1831 0098 FFF7FEFF 		bl	chSysHalt
 1832              	.LVL175:
 1833 009c ECE7     		b	.L178
 1834              	.L198:
 1835              	.LBE434:
 1836              	.LBE435:
 1837              	.LBE436:
 1838              		.loc 1 319 0
 1839 009e FFF7FEFF 		bl	__stack_chk_fail
 1840              	.LVL176:
 1841              	.L200:
 1842 00a2 00BF     		.align	2
 1843              	.L199:
 1844 00a4 00000000 		.word	__stack_chk_guard
 1845 00a8 00000000 		.word	.LANCHOR10
 1846 00ac 00000000 		.word	ch
 1847 00b0 00000000 		.word	.LANCHOR1
 1848              		.cfi_endproc
 1849              	.LFE267:
 1850              		.size	spiExchange, .-spiExchange
 1851              		.section	.text.spiSend,"ax",%progbits
 1852              		.align	1
 1853              		.p2align 4,,15
 1854              		.global	spiSend
 1855              		.syntax unified
 1856              		.thumb
 1857              		.thumb_func
 1858              		.fpu fpv4-sp-d16
 1859              		.type	spiSend, %function
 1860              	spiSend:
 1861              	.LFB268:
 1862              		.loc 1 337 0
 1863              		.cfi_startproc
 1864              		@ args = 0, pretend = 0, frame = 8
 1865              		@ frame_needed = 0, uses_anonymous_args = 0
 1866              	.LVL177:
 1867 0000 F0B5     		push	{r4, r5, r6, r7, lr}
 1868              		.cfi_def_cfa_offset 20
 1869              		.cfi_offset 4, -20
 1870              		.cfi_offset 5, -16
 1871              		.cfi_offset 6, -12
 1872              		.cfi_offset 7, -8
 1873              		.cfi_offset 14, -4
 1874 0002 254D     		ldr	r5, .L224
 1875 0004 83B0     		sub	sp, sp, #12
 1876              		.cfi_def_cfa_offset 32
 1877              		.loc 1 337 0
 1878 0006 2B68     		ldr	r3, [r5]
 1879 0008 0193     		str	r3, [sp, #4]
 1880 000a 0E46     		mov	r6, r1
 1881 000c 1746     		mov	r7, r2
ARM GAS  C:\Users\shadi\AppData\Local\Temp\ccFNLhfz.s 			page 34


 1882              		.loc 1 339 0
 1883 000e 0446     		mov	r4, r0
 1884 0010 08B1     		cbz	r0, .L202
 1885              		.loc 1 339 0 is_stmt 0 discriminator 3
 1886 0012 0029     		cmp	r1, #0
 1887 0014 36D1     		bne	.L221
 1888              	.L202:
 1889              		.loc 1 339 0 discriminator 6
 1890 0016 2148     		ldr	r0, .L224+4
 1891              	.LVL178:
 1892 0018 FFF7FEFF 		bl	chSysHalt
 1893              	.LVL179:
 1894              	.L203:
 1895              	.LBB452:
 1896              	.LBB453:
 1897              	.LBB454:
 1898              	.LBB455:
 1899              	.LBB456:
 1900              	.LBB457:
 1901              		.loc 3 546 0 is_stmt 1
 1902 001c 2023     		movs	r3, #32
 1903              		.syntax unified
 1904              	@ 546 "../../lib/e-puck2_main-processor/ChibiOS//os/ext/CMSIS/include/core_cmFunc.h" 1
 1905 001e 83F31188 		MSR basepri, r3
 1906              	@ 0 "" 2
 1907              	.LVL180:
 1908              		.thumb
 1909              		.syntax unified
 1910              	.LBE457:
 1911              	.LBE456:
 1912              	.LBE455:
 1913              		.loc 4 349 0
 1914 0022 FFF7FEFF 		bl	_stats_start_measure_crit_thd
 1915              	.LVL181:
 1916              		.loc 4 350 0
 1917 0026 FFF7FEFF 		bl	_dbg_check_lock
 1918              	.LVL182:
 1919              	.LBE454:
 1920              	.LBE453:
 1921              	.LBE452:
 1922              		.loc 1 342 0
 1923 002a 2378     		ldrb	r3, [r4]	@ zero_extendqisi2
 1924 002c 022B     		cmp	r3, #2
 1925 002e 02D0     		beq	.L204
 1926              		.loc 1 342 0 is_stmt 0 discriminator 2
 1927 0030 1A48     		ldr	r0, .L224+4
 1928 0032 FFF7FEFF 		bl	chSysHalt
 1929              	.LVL183:
 1930              	.L204:
 1931              		.loc 1 343 0 is_stmt 1 discriminator 1
 1932 0036 6368     		ldr	r3, [r4, #4]
 1933 0038 1B68     		ldr	r3, [r3]
 1934 003a 13B1     		cbz	r3, .L205
 1935              		.loc 1 343 0 is_stmt 0 discriminator 2
 1936 003c 1748     		ldr	r0, .L224+4
 1937 003e FFF7FEFF 		bl	chSysHalt
 1938              	.LVL184:
ARM GAS  C:\Users\shadi\AppData\Local\Temp\ccFNLhfz.s 			page 35


 1939              	.L205:
 1940              		.loc 1 344 0 is_stmt 1
 1941 0042 0323     		movs	r3, #3
 1942 0044 3A46     		mov	r2, r7
 1943 0046 2370     		strb	r3, [r4]
 1944 0048 3146     		mov	r1, r6
 1945 004a 2046     		mov	r0, r4
 1946 004c FFF7FEFF 		bl	spi_lld_send
 1947              	.LVL185:
 1948              	.LBB458:
 1949              	.LBB459:
 1950              		.loc 2 642 0
 1951 0050 04F10800 		add	r0, r4, #8
 1952              	.LVL186:
 1953 0054 FFF7FEFF 		bl	chThdSuspendS
 1954              	.LVL187:
 1955              	.LBE459:
 1956              	.LBE458:
 1957              	.LBB460:
 1958              	.LBB461:
 1959              	.LBB462:
 1960              		.loc 4 360 0
 1961 0058 FFF7FEFF 		bl	_dbg_check_unlock
 1962              	.LVL188:
 1963              		.loc 4 361 0
 1964 005c FFF7FEFF 		bl	_stats_stop_measure_crit_thd
 1965              	.LVL189:
 1966              		.loc 4 367 0
 1967 0060 0F4B     		ldr	r3, .L224+8
 1968 0062 1A68     		ldr	r2, [r3]
 1969 0064 9A42     		cmp	r2, r3
 1970 0066 04D0     		beq	.L206
 1971 0068 9969     		ldr	r1, [r3, #24]
 1972 006a 9368     		ldr	r3, [r2, #8]
 1973 006c 8A68     		ldr	r2, [r1, #8]
 1974 006e 9A42     		cmp	r2, r3
 1975 0070 0BD3     		bcc	.L222
 1976              	.L206:
 1977              	.LVL190:
 1978              	.LBB463:
 1979              	.LBB464:
 1980              	.LBB465:
 1981              		.loc 3 546 0
 1982 0072 0023     		movs	r3, #0
 1983              		.syntax unified
 1984              	@ 546 "../../lib/e-puck2_main-processor/ChibiOS//os/ext/CMSIS/include/core_cmFunc.h" 1
 1985 0074 83F31188 		MSR basepri, r3
 1986              	@ 0 "" 2
 1987              	.LVL191:
 1988              		.thumb
 1989              		.syntax unified
 1990              	.LBE465:
 1991              	.LBE464:
 1992              	.LBE463:
 1993              	.LBE462:
 1994              	.LBE461:
 1995              	.LBE460:
ARM GAS  C:\Users\shadi\AppData\Local\Temp\ccFNLhfz.s 			page 36


 1996              		.loc 1 347 0
 1997 0078 019A     		ldr	r2, [sp, #4]
 1998 007a 2B68     		ldr	r3, [r5]
 1999 007c 9A42     		cmp	r2, r3
 2000 007e 08D1     		bne	.L223
 2001 0080 03B0     		add	sp, sp, #12
 2002              		.cfi_remember_state
 2003              		.cfi_def_cfa_offset 20
 2004              		@ sp needed
 2005 0082 F0BD     		pop	{r4, r5, r6, r7, pc}
 2006              	.LVL192:
 2007              	.L221:
 2008              		.cfi_restore_state
 2009              		.loc 1 339 0 discriminator 5
 2010 0084 002A     		cmp	r2, #0
 2011 0086 C9D1     		bne	.L203
 2012 0088 C5E7     		b	.L202
 2013              	.LVL193:
 2014              	.L222:
 2015              	.LBB468:
 2016              	.LBB467:
 2017              	.LBB466:
 2018              		.loc 4 367 0
 2019 008a 0648     		ldr	r0, .L224+12
 2020 008c FFF7FEFF 		bl	chSysHalt
 2021              	.LVL194:
 2022 0090 EFE7     		b	.L206
 2023              	.L223:
 2024              	.LBE466:
 2025              	.LBE467:
 2026              	.LBE468:
 2027              		.loc 1 347 0
 2028 0092 FFF7FEFF 		bl	__stack_chk_fail
 2029              	.LVL195:
 2030              	.L225:
 2031 0096 00BF     		.align	2
 2032              	.L224:
 2033 0098 00000000 		.word	__stack_chk_guard
 2034 009c 00000000 		.word	.LANCHOR11
 2035 00a0 00000000 		.word	ch
 2036 00a4 00000000 		.word	.LANCHOR1
 2037              		.cfi_endproc
 2038              	.LFE268:
 2039              		.size	spiSend, .-spiSend
 2040              		.section	.text.spiReceive,"ax",%progbits
 2041              		.align	1
 2042              		.p2align 4,,15
 2043              		.global	spiReceive
 2044              		.syntax unified
 2045              		.thumb
 2046              		.thumb_func
 2047              		.fpu fpv4-sp-d16
 2048              		.type	spiReceive, %function
 2049              	spiReceive:
 2050              	.LFB269:
 2051              		.loc 1 365 0
 2052              		.cfi_startproc
ARM GAS  C:\Users\shadi\AppData\Local\Temp\ccFNLhfz.s 			page 37


 2053              		@ args = 0, pretend = 0, frame = 8
 2054              		@ frame_needed = 0, uses_anonymous_args = 0
 2055              	.LVL196:
 2056 0000 F0B5     		push	{r4, r5, r6, r7, lr}
 2057              		.cfi_def_cfa_offset 20
 2058              		.cfi_offset 4, -20
 2059              		.cfi_offset 5, -16
 2060              		.cfi_offset 6, -12
 2061              		.cfi_offset 7, -8
 2062              		.cfi_offset 14, -4
 2063 0002 254D     		ldr	r5, .L249
 2064 0004 83B0     		sub	sp, sp, #12
 2065              		.cfi_def_cfa_offset 32
 2066              		.loc 1 365 0
 2067 0006 2B68     		ldr	r3, [r5]
 2068 0008 0193     		str	r3, [sp, #4]
 2069 000a 0E46     		mov	r6, r1
 2070 000c 1746     		mov	r7, r2
 2071              		.loc 1 367 0
 2072 000e 0446     		mov	r4, r0
 2073 0010 08B1     		cbz	r0, .L227
 2074              		.loc 1 367 0 is_stmt 0 discriminator 3
 2075 0012 0029     		cmp	r1, #0
 2076 0014 36D1     		bne	.L246
 2077              	.L227:
 2078              		.loc 1 367 0 discriminator 6
 2079 0016 2148     		ldr	r0, .L249+4
 2080              	.LVL197:
 2081 0018 FFF7FEFF 		bl	chSysHalt
 2082              	.LVL198:
 2083              	.L228:
 2084              	.LBB484:
 2085              	.LBB485:
 2086              	.LBB486:
 2087              	.LBB487:
 2088              	.LBB488:
 2089              	.LBB489:
 2090              		.loc 3 546 0 is_stmt 1
 2091 001c 2023     		movs	r3, #32
 2092              		.syntax unified
 2093              	@ 546 "../../lib/e-puck2_main-processor/ChibiOS//os/ext/CMSIS/include/core_cmFunc.h" 1
 2094 001e 83F31188 		MSR basepri, r3
 2095              	@ 0 "" 2
 2096              	.LVL199:
 2097              		.thumb
 2098              		.syntax unified
 2099              	.LBE489:
 2100              	.LBE488:
 2101              	.LBE487:
 2102              		.loc 4 349 0
 2103 0022 FFF7FEFF 		bl	_stats_start_measure_crit_thd
 2104              	.LVL200:
 2105              		.loc 4 350 0
 2106 0026 FFF7FEFF 		bl	_dbg_check_lock
 2107              	.LVL201:
 2108              	.LBE486:
 2109              	.LBE485:
ARM GAS  C:\Users\shadi\AppData\Local\Temp\ccFNLhfz.s 			page 38


 2110              	.LBE484:
 2111              		.loc 1 370 0
 2112 002a 2378     		ldrb	r3, [r4]	@ zero_extendqisi2
 2113 002c 022B     		cmp	r3, #2
 2114 002e 02D0     		beq	.L229
 2115              		.loc 1 370 0 is_stmt 0 discriminator 2
 2116 0030 1A48     		ldr	r0, .L249+4
 2117 0032 FFF7FEFF 		bl	chSysHalt
 2118              	.LVL202:
 2119              	.L229:
 2120              		.loc 1 371 0 is_stmt 1 discriminator 1
 2121 0036 6368     		ldr	r3, [r4, #4]
 2122 0038 1B68     		ldr	r3, [r3]
 2123 003a 13B1     		cbz	r3, .L230
 2124              		.loc 1 371 0 is_stmt 0 discriminator 2
 2125 003c 1748     		ldr	r0, .L249+4
 2126 003e FFF7FEFF 		bl	chSysHalt
 2127              	.LVL203:
 2128              	.L230:
 2129              		.loc 1 372 0 is_stmt 1
 2130 0042 0323     		movs	r3, #3
 2131 0044 3A46     		mov	r2, r7
 2132 0046 2370     		strb	r3, [r4]
 2133 0048 3146     		mov	r1, r6
 2134 004a 2046     		mov	r0, r4
 2135 004c FFF7FEFF 		bl	spi_lld_receive
 2136              	.LVL204:
 2137              	.LBB490:
 2138              	.LBB491:
 2139              		.loc 2 642 0
 2140 0050 04F10800 		add	r0, r4, #8
 2141              	.LVL205:
 2142 0054 FFF7FEFF 		bl	chThdSuspendS
 2143              	.LVL206:
 2144              	.LBE491:
 2145              	.LBE490:
 2146              	.LBB492:
 2147              	.LBB493:
 2148              	.LBB494:
 2149              		.loc 4 360 0
 2150 0058 FFF7FEFF 		bl	_dbg_check_unlock
 2151              	.LVL207:
 2152              		.loc 4 361 0
 2153 005c FFF7FEFF 		bl	_stats_stop_measure_crit_thd
 2154              	.LVL208:
 2155              		.loc 4 367 0
 2156 0060 0F4B     		ldr	r3, .L249+8
 2157 0062 1A68     		ldr	r2, [r3]
 2158 0064 9A42     		cmp	r2, r3
 2159 0066 04D0     		beq	.L231
 2160 0068 9969     		ldr	r1, [r3, #24]
 2161 006a 9368     		ldr	r3, [r2, #8]
 2162 006c 8A68     		ldr	r2, [r1, #8]
 2163 006e 9A42     		cmp	r2, r3
 2164 0070 0BD3     		bcc	.L247
 2165              	.L231:
 2166              	.LVL209:
ARM GAS  C:\Users\shadi\AppData\Local\Temp\ccFNLhfz.s 			page 39


 2167              	.LBB495:
 2168              	.LBB496:
 2169              	.LBB497:
 2170              		.loc 3 546 0
 2171 0072 0023     		movs	r3, #0
 2172              		.syntax unified
 2173              	@ 546 "../../lib/e-puck2_main-processor/ChibiOS//os/ext/CMSIS/include/core_cmFunc.h" 1
 2174 0074 83F31188 		MSR basepri, r3
 2175              	@ 0 "" 2
 2176              	.LVL210:
 2177              		.thumb
 2178              		.syntax unified
 2179              	.LBE497:
 2180              	.LBE496:
 2181              	.LBE495:
 2182              	.LBE494:
 2183              	.LBE493:
 2184              	.LBE492:
 2185              		.loc 1 375 0
 2186 0078 019A     		ldr	r2, [sp, #4]
 2187 007a 2B68     		ldr	r3, [r5]
 2188 007c 9A42     		cmp	r2, r3
 2189 007e 08D1     		bne	.L248
 2190 0080 03B0     		add	sp, sp, #12
 2191              		.cfi_remember_state
 2192              		.cfi_def_cfa_offset 20
 2193              		@ sp needed
 2194 0082 F0BD     		pop	{r4, r5, r6, r7, pc}
 2195              	.LVL211:
 2196              	.L246:
 2197              		.cfi_restore_state
 2198              		.loc 1 367 0 discriminator 5
 2199 0084 002A     		cmp	r2, #0
 2200 0086 C9D1     		bne	.L228
 2201 0088 C5E7     		b	.L227
 2202              	.LVL212:
 2203              	.L247:
 2204              	.LBB500:
 2205              	.LBB499:
 2206              	.LBB498:
 2207              		.loc 4 367 0
 2208 008a 0648     		ldr	r0, .L249+12
 2209 008c FFF7FEFF 		bl	chSysHalt
 2210              	.LVL213:
 2211 0090 EFE7     		b	.L231
 2212              	.L248:
 2213              	.LBE498:
 2214              	.LBE499:
 2215              	.LBE500:
 2216              		.loc 1 375 0
 2217 0092 FFF7FEFF 		bl	__stack_chk_fail
 2218              	.LVL214:
 2219              	.L250:
 2220 0096 00BF     		.align	2
 2221              	.L249:
 2222 0098 00000000 		.word	__stack_chk_guard
 2223 009c 00000000 		.word	.LANCHOR12
ARM GAS  C:\Users\shadi\AppData\Local\Temp\ccFNLhfz.s 			page 40


 2224 00a0 00000000 		.word	ch
 2225 00a4 00000000 		.word	.LANCHOR1
 2226              		.cfi_endproc
 2227              	.LFE269:
 2228              		.size	spiReceive, .-spiReceive
 2229              		.section	.text.spiAcquireBus,"ax",%progbits
 2230              		.align	1
 2231              		.p2align 4,,15
 2232              		.global	spiAcquireBus
 2233              		.syntax unified
 2234              		.thumb
 2235              		.thumb_func
 2236              		.fpu fpv4-sp-d16
 2237              		.type	spiAcquireBus, %function
 2238              	spiAcquireBus:
 2239              	.LFB270:
 2240              		.loc 1 390 0
 2241              		.cfi_startproc
 2242              		@ args = 0, pretend = 0, frame = 8
 2243              		@ frame_needed = 0, uses_anonymous_args = 0
 2244              	.LVL215:
 2245 0000 30B5     		push	{r4, r5, lr}
 2246              		.cfi_def_cfa_offset 12
 2247              		.cfi_offset 4, -12
 2248              		.cfi_offset 5, -8
 2249              		.cfi_offset 14, -4
 2250 0002 0B4C     		ldr	r4, .L258
 2251 0004 83B0     		sub	sp, sp, #12
 2252              		.cfi_def_cfa_offset 24
 2253              		.loc 1 390 0
 2254 0006 2368     		ldr	r3, [r4]
 2255 0008 0193     		str	r3, [sp, #4]
 2256              		.loc 1 392 0
 2257 000a 0546     		mov	r5, r0
 2258 000c 50B1     		cbz	r0, .L256
 2259              	.LVL216:
 2260              	.L252:
 2261              	.LBB501:
 2262              	.LBB502:
 2263              		.loc 2 861 0
 2264 000e 019A     		ldr	r2, [sp, #4]
 2265 0010 2368     		ldr	r3, [r4]
 2266 0012 9A42     		cmp	r2, r3
 2267 0014 0AD1     		bne	.L257
 2268 0016 05F10C00 		add	r0, r5, #12
 2269              	.LVL217:
 2270              	.LBE502:
 2271              	.LBE501:
 2272              		.loc 1 395 0
 2273 001a 03B0     		add	sp, sp, #12
 2274              		.cfi_remember_state
 2275              		.cfi_def_cfa_offset 12
 2276              		@ sp needed
 2277 001c BDE83040 		pop	{r4, r5, lr}
 2278              		.cfi_restore 14
 2279              		.cfi_restore 5
 2280              		.cfi_restore 4
ARM GAS  C:\Users\shadi\AppData\Local\Temp\ccFNLhfz.s 			page 41


 2281              		.cfi_def_cfa_offset 0
 2282              	.LVL218:
 2283              	.LBB505:
 2284              	.LBB503:
 2285              		.loc 2 861 0
 2286 0020 FFF7FEBF 		b	chMtxLock
 2287              	.LVL219:
 2288              	.L256:
 2289              		.cfi_restore_state
 2290              	.LBE503:
 2291              	.LBE505:
 2292              		.loc 1 392 0 discriminator 2
 2293 0024 0348     		ldr	r0, .L258+4
 2294              	.LVL220:
 2295 0026 FFF7FEFF 		bl	chSysHalt
 2296              	.LVL221:
 2297 002a F0E7     		b	.L252
 2298              	.LVL222:
 2299              	.L257:
 2300              	.LBB506:
 2301              	.LBB504:
 2302              		.loc 2 861 0
 2303 002c FFF7FEFF 		bl	__stack_chk_fail
 2304              	.LVL223:
 2305              	.L259:
 2306              		.align	2
 2307              	.L258:
 2308 0030 00000000 		.word	__stack_chk_guard
 2309 0034 00000000 		.word	.LANCHOR13
 2310              	.LBE504:
 2311              	.LBE506:
 2312              		.cfi_endproc
 2313              	.LFE270:
 2314              		.size	spiAcquireBus, .-spiAcquireBus
 2315              		.section	.text.spiReleaseBus,"ax",%progbits
 2316              		.align	1
 2317              		.p2align 4,,15
 2318              		.global	spiReleaseBus
 2319              		.syntax unified
 2320              		.thumb
 2321              		.thumb_func
 2322              		.fpu fpv4-sp-d16
 2323              		.type	spiReleaseBus, %function
 2324              	spiReleaseBus:
 2325              	.LFB271:
 2326              		.loc 1 406 0
 2327              		.cfi_startproc
 2328              		@ args = 0, pretend = 0, frame = 8
 2329              		@ frame_needed = 0, uses_anonymous_args = 0
 2330              	.LVL224:
 2331 0000 30B5     		push	{r4, r5, lr}
 2332              		.cfi_def_cfa_offset 12
 2333              		.cfi_offset 4, -12
 2334              		.cfi_offset 5, -8
 2335              		.cfi_offset 14, -4
 2336 0002 0B4C     		ldr	r4, .L267
 2337 0004 83B0     		sub	sp, sp, #12
ARM GAS  C:\Users\shadi\AppData\Local\Temp\ccFNLhfz.s 			page 42


 2338              		.cfi_def_cfa_offset 24
 2339              		.loc 1 406 0
 2340 0006 2368     		ldr	r3, [r4]
 2341 0008 0193     		str	r3, [sp, #4]
 2342              		.loc 1 408 0
 2343 000a 0546     		mov	r5, r0
 2344 000c 50B1     		cbz	r0, .L265
 2345              	.LVL225:
 2346              	.L261:
 2347              	.LBB507:
 2348              	.LBB508:
 2349              		.loc 2 885 0
 2350 000e 019A     		ldr	r2, [sp, #4]
 2351 0010 2368     		ldr	r3, [r4]
 2352 0012 9A42     		cmp	r2, r3
 2353 0014 0AD1     		bne	.L266
 2354 0016 05F10C00 		add	r0, r5, #12
 2355              	.LVL226:
 2356              	.LBE508:
 2357              	.LBE507:
 2358              		.loc 1 411 0
 2359 001a 03B0     		add	sp, sp, #12
 2360              		.cfi_remember_state
 2361              		.cfi_def_cfa_offset 12
 2362              		@ sp needed
 2363 001c BDE83040 		pop	{r4, r5, lr}
 2364              		.cfi_restore 14
 2365              		.cfi_restore 5
 2366              		.cfi_restore 4
 2367              		.cfi_def_cfa_offset 0
 2368              	.LVL227:
 2369              	.LBB511:
 2370              	.LBB509:
 2371              		.loc 2 885 0
 2372 0020 FFF7FEBF 		b	chMtxUnlock
 2373              	.LVL228:
 2374              	.L265:
 2375              		.cfi_restore_state
 2376              	.LBE509:
 2377              	.LBE511:
 2378              		.loc 1 408 0 discriminator 2
 2379 0024 0348     		ldr	r0, .L267+4
 2380              	.LVL229:
 2381 0026 FFF7FEFF 		bl	chSysHalt
 2382              	.LVL230:
 2383 002a F0E7     		b	.L261
 2384              	.LVL231:
 2385              	.L266:
 2386              	.LBB512:
 2387              	.LBB510:
 2388              		.loc 2 885 0
 2389 002c FFF7FEFF 		bl	__stack_chk_fail
 2390              	.LVL232:
 2391              	.L268:
 2392              		.align	2
 2393              	.L267:
 2394 0030 00000000 		.word	__stack_chk_guard
ARM GAS  C:\Users\shadi\AppData\Local\Temp\ccFNLhfz.s 			page 43


 2395 0034 00000000 		.word	.LANCHOR14
 2396              	.LBE510:
 2397              	.LBE512:
 2398              		.cfi_endproc
 2399              	.LFE271:
 2400              		.size	spiReleaseBus, .-spiReleaseBus
 2401              		.section	.rodata.__func__.7153,"a",%progbits
 2402              		.align	2
 2403              		.set	.LANCHOR1,. + 0
 2404              		.type	__func__.7153, %object
 2405              		.size	__func__.7153, 12
 2406              	__func__.7153:
 2407 0000 63685379 		.ascii	"chSysUnlock\000"
 2407      73556E6C 
 2407      6F636B00 
 2408              		.section	.rodata.__func__.9848,"a",%progbits
 2409              		.align	2
 2410              		.set	.LANCHOR0,. + 0
 2411              		.type	__func__.9848, %object
 2412              		.size	__func__.9848, 9
 2413              	__func__.9848:
 2414 0000 73706953 		.ascii	"spiStart\000"
 2414      74617274 
 2414      00
 2415              		.section	.rodata.__func__.9852,"a",%progbits
 2416              		.align	2
 2417              		.set	.LANCHOR2,. + 0
 2418              		.type	__func__.9852, %object
 2419              		.size	__func__.9852, 8
 2420              	__func__.9852:
 2421 0000 73706953 		.ascii	"spiStop\000"
 2421      746F7000 
 2422              		.section	.rodata.__func__.9856,"a",%progbits
 2423              		.align	2
 2424              		.set	.LANCHOR3,. + 0
 2425              		.type	__func__.9856, %object
 2426              		.size	__func__.9856, 10
 2427              	__func__.9856:
 2428 0000 73706953 		.ascii	"spiSelect\000"
 2428      656C6563 
 2428      7400
 2429              		.section	.rodata.__func__.9860,"a",%progbits
 2430              		.align	2
 2431              		.set	.LANCHOR4,. + 0
 2432              		.type	__func__.9860, %object
 2433              		.size	__func__.9860, 12
 2434              	__func__.9860:
 2435 0000 73706955 		.ascii	"spiUnselect\000"
 2435      6E73656C 
 2435      65637400 
 2436              		.section	.rodata.__func__.9865,"a",%progbits
 2437              		.align	2
 2438              		.set	.LANCHOR5,. + 0
 2439              		.type	__func__.9865, %object
 2440              		.size	__func__.9865, 15
 2441              	__func__.9865:
 2442 0000 73706953 		.ascii	"spiStartIgnore\000"
ARM GAS  C:\Users\shadi\AppData\Local\Temp\ccFNLhfz.s 			page 44


 2442      74617274 
 2442      49676E6F 
 2442      726500
 2443              		.section	.rodata.__func__.9872,"a",%progbits
 2444              		.align	2
 2445              		.set	.LANCHOR6,. + 0
 2446              		.type	__func__.9872, %object
 2447              		.size	__func__.9872, 17
 2448              	__func__.9872:
 2449 0000 73706953 		.ascii	"spiStartExchange\000"
 2449      74617274 
 2449      45786368 
 2449      616E6765 
 2449      00
 2450              		.section	.rodata.__func__.9878,"a",%progbits
 2451              		.align	2
 2452              		.set	.LANCHOR7,. + 0
 2453              		.type	__func__.9878, %object
 2454              		.size	__func__.9878, 13
 2455              	__func__.9878:
 2456 0000 73706953 		.ascii	"spiStartSend\000"
 2456      74617274 
 2456      53656E64 
 2456      00
 2457              		.section	.rodata.__func__.9884,"a",%progbits
 2458              		.align	2
 2459              		.set	.LANCHOR8,. + 0
 2460              		.type	__func__.9884, %object
 2461              		.size	__func__.9884, 16
 2462              	__func__.9884:
 2463 0000 73706953 		.ascii	"spiStartReceive\000"
 2463      74617274 
 2463      52656365 
 2463      69766500 
 2464              		.section	.rodata.__func__.9889,"a",%progbits
 2465              		.align	2
 2466              		.set	.LANCHOR9,. + 0
 2467              		.type	__func__.9889, %object
 2468              		.size	__func__.9889, 10
 2469              	__func__.9889:
 2470 0000 73706949 		.ascii	"spiIgnore\000"
 2470      676E6F72 
 2470      6500
 2471              		.section	.rodata.__func__.9896,"a",%progbits
 2472              		.align	2
 2473              		.set	.LANCHOR10,. + 0
 2474              		.type	__func__.9896, %object
 2475              		.size	__func__.9896, 12
 2476              	__func__.9896:
 2477 0000 73706945 		.ascii	"spiExchange\000"
 2477      78636861 
 2477      6E676500 
 2478              		.section	.rodata.__func__.9902,"a",%progbits
 2479              		.align	2
 2480              		.set	.LANCHOR11,. + 0
 2481              		.type	__func__.9902, %object
 2482              		.size	__func__.9902, 8
ARM GAS  C:\Users\shadi\AppData\Local\Temp\ccFNLhfz.s 			page 45


 2483              	__func__.9902:
 2484 0000 73706953 		.ascii	"spiSend\000"
 2484      656E6400 
 2485              		.section	.rodata.__func__.9908,"a",%progbits
 2486              		.align	2
 2487              		.set	.LANCHOR12,. + 0
 2488              		.type	__func__.9908, %object
 2489              		.size	__func__.9908, 11
 2490              	__func__.9908:
 2491 0000 73706952 		.ascii	"spiReceive\000"
 2491      65636569 
 2491      766500
 2492              		.section	.rodata.__func__.9912,"a",%progbits
 2493              		.align	2
 2494              		.set	.LANCHOR13,. + 0
 2495              		.type	__func__.9912, %object
 2496              		.size	__func__.9912, 14
 2497              	__func__.9912:
 2498 0000 73706941 		.ascii	"spiAcquireBus\000"
 2498      63717569 
 2498      72654275 
 2498      7300
 2499              		.section	.rodata.__func__.9916,"a",%progbits
 2500              		.align	2
 2501              		.set	.LANCHOR14,. + 0
 2502              		.type	__func__.9916, %object
 2503              		.size	__func__.9916, 14
 2504              	__func__.9916:
 2505 0000 73706952 		.ascii	"spiReleaseBus\000"
 2505      656C6561 
 2505      73654275 
 2505      7300
 2506              		.text
 2507              	.Letext0:
 2508              		.file 5 "c:\\users\\shadi\\downloads\\eclipse_e-puck2\\tools\\gcc-arm-none-eabi-7-2017-q4-major-wi
 2509              		.file 6 "c:\\users\\shadi\\downloads\\eclipse_e-puck2\\tools\\gcc-arm-none-eabi-7-2017-q4-major-wi
 2510              		.file 7 "c:\\users\\shadi\\downloads\\eclipse_e-puck2\\tools\\gcc-arm-none-eabi-7-2017-q4-major-wi
 2511              		.file 8 "../../lib/e-puck2_main-processor/ChibiOS//os/rt/ports/ARMCMx/compilers/GCC/chtypes.h"
 2512              		.file 9 "../../lib/e-puck2_main-processor/ChibiOS//os/rt/include/chsystypes.h"
 2513              		.file 10 "../../lib/e-puck2_main-processor/ChibiOS//os/rt/include/chschd.h"
 2514              		.file 11 "../../lib/e-puck2_main-processor/ChibiOS//os/ext/CMSIS/include/core_cm4.h"
 2515              		.file 12 "../../lib/e-puck2_main-processor/ChibiOS//os/ext/CMSIS/ST/system_stm32f4xx.h"
 2516              		.file 13 "../../lib/e-puck2_main-processor/ChibiOS//os/ext/CMSIS/ST/stm32f407xx.h"
 2517              		.file 14 "../../lib/e-puck2_main-processor/ChibiOS//os/rt/ports/ARMCMx/chcore.h"
 2518              		.file 15 "../../lib/e-puck2_main-processor/ChibiOS//os/rt/ports/ARMCMx/chcore_v7m.h"
 2519              		.file 16 "../../lib/e-puck2_main-processor/ChibiOS//os/rt/include/chdebug.h"
 2520              		.file 17 "../../lib/e-puck2_main-processor/ChibiOS//os/rt/include/chtm.h"
 2521              		.file 18 "../../lib/e-puck2_main-processor/ChibiOS//os/rt/include/chstats.h"
 2522              		.file 19 "../../lib/e-puck2_main-processor/ChibiOS//os/rt/include/chsem.h"
 2523              		.file 20 "../../lib/e-puck2_main-processor/ChibiOS//os/rt/include/chmtx.h"
 2524              		.file 21 "../../lib/e-puck2_main-processor/ChibiOS//os/rt/include/chregistry.h"
 2525              		.file 22 "../../lib/e-puck2_main-processor/ChibiOS//os/rt/include/chevents.h"
 2526              		.file 23 "../../lib/e-puck2_main-processor/ChibiOS//os/rt/include/chqueues.h"
 2527              		.file 24 "../../lib/e-puck2_main-processor/ChibiOS//os/hal/ports/STM32/STM32F4xx/stm32_dma.h"
 2528              		.file 25 "../../lib/e-puck2_main-processor/ChibiOS//os/hal/include/hal_ioblock.h"
 2529              		.file 26 "../../lib/e-puck2_main-processor/ChibiOS//os/hal/ports/STM32/LLD/GPIOv2/pal_lld.h"
 2530              		.file 27 "../../lib/e-puck2_main-processor/ChibiOS//os/hal/include/adc.h"
ARM GAS  C:\Users\shadi\AppData\Local\Temp\ccFNLhfz.s 			page 46


 2531              		.file 28 "../../lib/e-puck2_main-processor/ChibiOS//os/hal/ports/STM32/STM32F4xx/adc_lld.h"
 2532              		.file 29 "../../lib/e-puck2_main-processor/ChibiOS//os/hal/include/can.h"
 2533              		.file 30 "../../lib/e-puck2_main-processor/ChibiOS//os/hal/ports/STM32/LLD/can_lld.h"
 2534              		.file 31 "../../lib/e-puck2_main-processor/ChibiOS//os/hal/include/dac.h"
 2535              		.file 32 "../../lib/e-puck2_main-processor/ChibiOS//os/hal/ports/STM32/LLD/DACv1/dac_lld.h"
 2536              		.file 33 "../../lib/e-puck2_main-processor/ChibiOS//os/hal/include/ext.h"
 2537              		.file 34 "../../lib/e-puck2_main-processor/ChibiOS//os/hal/ports/STM32/LLD/ext_lld.h"
 2538              		.file 35 "../../lib/e-puck2_main-processor/ChibiOS//os/hal/include/gpt.h"
 2539              		.file 36 "../../lib/e-puck2_main-processor/ChibiOS//os/hal/ports/STM32/LLD/TIMv1/gpt_lld.h"
 2540              		.file 37 "../../lib/e-puck2_main-processor/ChibiOS//os/hal/ports/STM32/LLD/TIMv1/stm32_tim.h"
 2541              		.file 38 "../../lib/e-puck2_main-processor/ChibiOS//os/hal/include/i2c.h"
 2542              		.file 39 "../../lib/e-puck2_main-processor/ChibiOS//os/hal/ports/STM32/LLD/I2Cv1/i2c_lld.h"
 2543              		.file 40 "../../lib/e-puck2_main-processor/ChibiOS//os/hal/include/i2s.h"
 2544              		.file 41 "../../lib/e-puck2_main-processor/ChibiOS//os/hal/ports/STM32/LLD/SPIv1/i2s_lld.h"
 2545              		.file 42 "../../lib/e-puck2_main-processor/ChibiOS//os/hal/include/pwm.h"
 2546              		.file 43 "../../lib/e-puck2_main-processor/ChibiOS//os/hal/ports/STM32/LLD/TIMv1/pwm_lld.h"
 2547              		.file 44 "../../lib/e-puck2_main-processor/ChibiOS//os/hal/include/serial.h"
 2548              		.file 45 "../../lib/e-puck2_main-processor/ChibiOS//os/hal/ports/STM32/LLD/USARTv1/serial_lld.h"
 2549              		.file 46 "../../lib/e-puck2_main-processor/ChibiOS//os/hal/include/sdc.h"
 2550              		.file 47 "../../lib/e-puck2_main-processor/ChibiOS//os/hal/ports/STM32/LLD/sdc_lld.h"
 2551              		.file 48 "../../lib/e-puck2_main-processor/ChibiOS//os/hal/include/spi.h"
 2552              		.file 49 "../../lib/e-puck2_main-processor/ChibiOS//os/hal/ports/STM32/LLD/SPIv1/spi_lld.h"
 2553              		.file 50 "../../lib/e-puck2_main-processor/ChibiOS//os/hal/include/usb.h"
 2554              		.file 51 "../../lib/e-puck2_main-processor/ChibiOS//os/hal/ports/STM32/LLD/OTGv1/usb_lld.h"
 2555              		.file 52 "../../lib/e-puck2_main-processor/ChibiOS//os/hal/ports/STM32/LLD/OTGv1/stm32_otg.h"
 2556              		.file 53 "../../lib/e-puck2_main-processor/ChibiOS//os/rt/include/chthreads.h"