ARM GAS  C:\Users\shadi\AppData\Local\Temp\ccclYXkJ.s 			page 1


   1              		.cpu cortex-m4
   2              		.eabi_attribute 27, 1
   3              		.eabi_attribute 28, 1
   4              		.eabi_attribute 20, 1
   5              		.eabi_attribute 21, 1
   6              		.eabi_attribute 23, 3
   7              		.eabi_attribute 24, 1
   8              		.eabi_attribute 25, 1
   9              		.eabi_attribute 26, 1
  10              		.eabi_attribute 30, 2
  11              		.eabi_attribute 34, 1
  12              		.eabi_attribute 18, 4
  13              		.file	"spi_lld.c"
  14              		.text
  15              	.Ltext0:
  16              		.cfi_sections	.debug_frame
  17              		.section	.text.spi_lld_serve_tx_interrupt,"ax",%progbits
  18              		.align	1
  19              		.p2align 4,,15
  20              		.syntax unified
  21              		.thumb
  22              		.thumb_func
  23              		.fpu fpv4-sp-d16
  24              		.type	spi_lld_serve_tx_interrupt, %function
  25              	spi_lld_serve_tx_interrupt:
  26              	.LFB257:
  27              		.file 1 "../../lib/e-puck2_main-processor/ChibiOS//os/hal/ports/STM32/LLD/SPIv1/spi_lld.c"
  28              		.loc 1 158 0
  29              		.cfi_startproc
  30              		@ args = 0, pretend = 0, frame = 8
  31              		@ frame_needed = 0, uses_anonymous_args = 0
  32              	.LVL0:
  33 0000 00B5     		push	{lr}
  34              		.cfi_def_cfa_offset 4
  35              		.cfi_offset 14, -4
  36 0002 0C4B     		ldr	r3, .L9
  37 0004 83B0     		sub	sp, sp, #12
  38              		.cfi_def_cfa_offset 16
  39              		.loc 1 158 0
  40 0006 1A68     		ldr	r2, [r3]
  41 0008 0192     		str	r2, [sp, #4]
  42              		.loc 1 163 0
  43 000a 11F00C0F 		tst	r1, #12
  44              	.LBB58:
  45              	.LBB59:
  46              		.file 2 "../../lib/e-puck2_main-processor/ChibiOS//os/hal/osal/rt/osal.h"
  47              		.loc 2 416 0
  48 000e 019A     		ldr	r2, [sp, #4]
  49 0010 1B68     		ldr	r3, [r3]
  50              	.LBE59:
  51              	.LBE58:
  52              		.loc 1 163 0
  53 0012 04D1     		bne	.L8
  54              		.loc 1 170 0
  55 0014 9A42     		cmp	r2, r3
  56 0016 0AD1     		bne	.L6
  57 0018 03B0     		add	sp, sp, #12
ARM GAS  C:\Users\shadi\AppData\Local\Temp\ccclYXkJ.s 			page 2


  58              		.cfi_remember_state
  59              		.cfi_def_cfa_offset 4
  60              		@ sp needed
  61 001a 5DF804FB 		ldr	pc, [sp], #4
  62              	.L8:
  63              		.cfi_restore_state
  64              	.LVL1:
  65              	.LBB62:
  66              	.LBB60:
  67              		.loc 2 416 0
  68 001e 9A42     		cmp	r2, r3
  69 0020 05D1     		bne	.L6
  70 0022 0548     		ldr	r0, .L9+4
  71              	.LVL2:
  72              	.LBE60:
  73              	.LBE62:
  74              		.loc 1 170 0
  75 0024 03B0     		add	sp, sp, #12
  76              		.cfi_remember_state
  77              		.cfi_def_cfa_offset 4
  78              		@ sp needed
  79 0026 5DF804EB 		ldr	lr, [sp], #4
  80              		.cfi_restore 14
  81              		.cfi_def_cfa_offset 0
  82              	.LBB63:
  83              	.LBB61:
  84              		.loc 2 416 0
  85 002a FFF7FEBF 		b	chSysHalt
  86              	.LVL3:
  87              	.L6:
  88              		.cfi_restore_state
  89              	.LBE61:
  90              	.LBE63:
  91              		.loc 1 170 0
  92 002e FFF7FEFF 		bl	__stack_chk_fail
  93              	.LVL4:
  94              	.L10:
  95 0032 00BF     		.align	2
  96              	.L9:
  97 0034 00000000 		.word	__stack_chk_guard
  98 0038 00000000 		.word	.LC0
  99              		.cfi_endproc
 100              	.LFE257:
 101              		.size	spi_lld_serve_tx_interrupt, .-spi_lld_serve_tx_interrupt
 102              		.section	.text.spi_lld_serve_rx_interrupt,"ax",%progbits
 103              		.align	1
 104              		.p2align 4,,15
 105              		.syntax unified
 106              		.thumb
 107              		.thumb_func
 108              		.fpu fpv4-sp-d16
 109              		.type	spi_lld_serve_rx_interrupt, %function
 110              	spi_lld_serve_rx_interrupt:
 111              	.LFB256:
 112              		.loc 1 132 0
 113              		.cfi_startproc
 114              		@ args = 0, pretend = 0, frame = 8
ARM GAS  C:\Users\shadi\AppData\Local\Temp\ccclYXkJ.s 			page 3


 115              		@ frame_needed = 0, uses_anonymous_args = 0
 116              	.LVL5:
 117 0000 30B5     		push	{r4, r5, lr}
 118              		.cfi_def_cfa_offset 12
 119              		.cfi_offset 4, -12
 120              		.cfi_offset 5, -8
 121              		.cfi_offset 14, -4
 122 0002 2A4D     		ldr	r5, .L29
 123 0004 83B0     		sub	sp, sp, #12
 124              		.cfi_def_cfa_offset 24
 125              		.loc 1 132 0
 126 0006 2B68     		ldr	r3, [r5]
 127 0008 0193     		str	r3, [sp, #4]
 128              		.loc 1 136 0
 129 000a 11F00C0F 		tst	r1, #12
 130              		.loc 1 132 0
 131 000e 0446     		mov	r4, r0
 132              		.loc 1 136 0
 133 0010 46D1     		bne	.L27
 134              	.LVL6:
 135              	.L12:
 136              		.loc 1 144 0
 137 0012 A36A     		ldr	r3, [r4, #40]
 138 0014 1A68     		ldr	r2, [r3]
 139 0016 1368     		ldr	r3, [r2]
 140 0018 23F01F03 		bic	r3, r3, #31
 141 001c 1360     		str	r3, [r2]
 142 001e A16A     		ldr	r1, [r4, #40]
 143 0020 0A68     		ldr	r2, [r1]
 144              	.L13:
 145              		.loc 1 144 0 is_stmt 0 discriminator 2
 146 0022 1368     		ldr	r3, [r2]
 147 0024 D807     		lsls	r0, r3, #31
 148 0026 FCD4     		bmi	.L13
 149              		.loc 1 144 0 discriminator 3
 150 0028 087A     		ldrb	r0, [r1, #8]	@ zero_extendqisi2
 151 002a 4A68     		ldr	r2, [r1, #4]
 152 002c 3D23     		movs	r3, #61
 153 002e 8340     		lsls	r3, r3, r0
 154 0030 1360     		str	r3, [r2]
 155              		.loc 1 145 0 is_stmt 1 discriminator 3
 156 0032 636A     		ldr	r3, [r4, #36]
 157 0034 1A68     		ldr	r2, [r3]
 158 0036 1368     		ldr	r3, [r2]
 159 0038 23F01F03 		bic	r3, r3, #31
 160 003c 1360     		str	r3, [r2]
 161 003e 616A     		ldr	r1, [r4, #36]
 162 0040 0A68     		ldr	r2, [r1]
 163              	.L14:
 164              		.loc 1 145 0 is_stmt 0 discriminator 2
 165 0042 1368     		ldr	r3, [r2]
 166 0044 DB07     		lsls	r3, r3, #31
 167 0046 FCD4     		bmi	.L14
 168              		.loc 1 145 0 discriminator 3
 169 0048 087A     		ldrb	r0, [r1, #8]	@ zero_extendqisi2
 170 004a 4A68     		ldr	r2, [r1, #4]
 171 004c 3D23     		movs	r3, #61
ARM GAS  C:\Users\shadi\AppData\Local\Temp\ccclYXkJ.s 			page 4


 172 004e 8340     		lsls	r3, r3, r0
 173 0050 1360     		str	r3, [r2]
 174              		.loc 1 149 0 is_stmt 1 discriminator 3
 175 0052 6368     		ldr	r3, [r4, #4]
 176 0054 1A68     		ldr	r2, [r3]
 177 0056 02B3     		cbz	r2, .L15
 178              		.loc 1 149 0 is_stmt 0 discriminator 1
 179 0058 0422     		movs	r2, #4
 180 005a 2270     		strb	r2, [r4]
 181 005c 1B68     		ldr	r3, [r3]
 182 005e 2046     		mov	r0, r4
 183 0060 9847     		blx	r3
 184              	.LVL7:
 185 0062 2378     		ldrb	r3, [r4]	@ zero_extendqisi2
 186 0064 042B     		cmp	r3, #4
 187 0066 18D0     		beq	.L15
 188              	.L16:
 189              	.LVL8:
 190              	.LBB64:
 191              	.LBB65:
 192              	.LBB66:
 193              	.LBB67:
 194              	.LBB68:
 195              	.LBB69:
 196              	.LBB70:
 197              		.file 3 "../../lib/e-puck2_main-processor/ChibiOS//os/ext/CMSIS/include/core_cmFunc.h"
 198              		.loc 3 546 0 is_stmt 1 discriminator 4
 199 0068 2023     		movs	r3, #32
 200              		.syntax unified
 201              	@ 546 "../../lib/e-puck2_main-processor/ChibiOS//os/ext/CMSIS/include/core_cmFunc.h" 1
 202 006a 83F31188 		MSR basepri, r3
 203              	@ 0 "" 2
 204              	.LVL9:
 205              		.thumb
 206              		.syntax unified
 207              	.LBE70:
 208              	.LBE69:
 209              	.LBE68:
 210              	.LBE67:
 211              		.file 4 "../../lib/e-puck2_main-processor/ChibiOS//os/rt/include/chsys.h"
 212              		.loc 4 389 0 discriminator 4
 213 006e FFF7FEFF 		bl	_stats_start_measure_crit_isr
 214              	.LVL10:
 215              		.loc 4 390 0 discriminator 4
 216 0072 FFF7FEFF 		bl	_dbg_check_lock_from_isr
 217              	.LVL11:
 218              	.LBE66:
 219              	.LBE65:
 220              	.LBE64:
 221              	.LBB71:
 222              	.LBB72:
 223              		.loc 2 682 0 discriminator 4
 224 0076 04F10800 		add	r0, r4, #8
 225              	.LVL12:
 226 007a 0021     		movs	r1, #0
 227 007c FFF7FEFF 		bl	chThdResumeI
 228              	.LVL13:
ARM GAS  C:\Users\shadi\AppData\Local\Temp\ccclYXkJ.s 			page 5


 229              	.LBE72:
 230              	.LBE71:
 231              	.LBB73:
 232              	.LBB74:
 233              	.LBB75:
 234              		.loc 4 408 0 discriminator 4
 235 0080 FFF7FEFF 		bl	_dbg_check_unlock_from_isr
 236              	.LVL14:
 237              		.loc 4 409 0 discriminator 4
 238 0084 FFF7FEFF 		bl	_stats_stop_measure_crit_isr
 239              	.LVL15:
 240              	.LBB76:
 241              	.LBB77:
 242              	.LBB78:
 243              	.LBB79:
 244              		.loc 3 546 0 discriminator 4
 245 0088 0023     		movs	r3, #0
 246              		.syntax unified
 247              	@ 546 "../../lib/e-puck2_main-processor/ChibiOS//os/ext/CMSIS/include/core_cmFunc.h" 1
 248 008a 83F31188 		MSR basepri, r3
 249              	@ 0 "" 2
 250              	.LVL16:
 251              		.thumb
 252              		.syntax unified
 253              	.LBE79:
 254              	.LBE78:
 255              	.LBE77:
 256              	.LBE76:
 257              	.LBE75:
 258              	.LBE74:
 259              	.LBE73:
 260              		.loc 1 150 0 discriminator 4
 261 008e 019A     		ldr	r2, [sp, #4]
 262 0090 2B68     		ldr	r3, [r5]
 263 0092 9A42     		cmp	r2, r3
 264 0094 08D1     		bne	.L28
 265              		.loc 1 150 0 is_stmt 0
 266 0096 03B0     		add	sp, sp, #12
 267              		.cfi_remember_state
 268              		.cfi_def_cfa_offset 12
 269              		@ sp needed
 270 0098 30BD     		pop	{r4, r5, pc}
 271              	.LVL17:
 272              	.L15:
 273              		.cfi_restore_state
 274              		.loc 1 149 0 is_stmt 1 discriminator 3
 275 009a 0223     		movs	r3, #2
 276 009c 2370     		strb	r3, [r4]
 277 009e E3E7     		b	.L16
 278              	.LVL18:
 279              	.L27:
 280              	.LBB80:
 281              	.LBB81:
 282              		.loc 2 416 0
 283 00a0 0348     		ldr	r0, .L29+4
 284              	.LVL19:
 285 00a2 FFF7FEFF 		bl	chSysHalt
ARM GAS  C:\Users\shadi\AppData\Local\Temp\ccclYXkJ.s 			page 6


 286              	.LVL20:
 287 00a6 B4E7     		b	.L12
 288              	.LVL21:
 289              	.L28:
 290              	.LBE81:
 291              	.LBE80:
 292              		.loc 1 150 0
 293 00a8 FFF7FEFF 		bl	__stack_chk_fail
 294              	.LVL22:
 295              	.L30:
 296              		.align	2
 297              	.L29:
 298 00ac 00000000 		.word	__stack_chk_guard
 299 00b0 00000000 		.word	.LC0
 300              		.cfi_endproc
 301              	.LFE256:
 302              		.size	spi_lld_serve_rx_interrupt, .-spi_lld_serve_rx_interrupt
 303              		.section	.text.spi_lld_init,"ax",%progbits
 304              		.align	1
 305              		.p2align 4,,15
 306              		.global	spi_lld_init
 307              		.syntax unified
 308              		.thumb
 309              		.thumb_func
 310              		.fpu fpv4-sp-d16
 311              		.type	spi_lld_init, %function
 312              	spi_lld_init:
 313              	.LFB258:
 314              		.loc 1 185 0
 315              		.cfi_startproc
 316              		@ args = 0, pretend = 0, frame = 8
 317              		@ frame_needed = 0, uses_anonymous_args = 0
 318 0000 30B5     		push	{r4, r5, lr}
 319              		.cfi_def_cfa_offset 12
 320              		.cfi_offset 4, -12
 321              		.cfi_offset 5, -8
 322              		.cfi_offset 14, -4
 323 0002 0F4D     		ldr	r5, .L35
 324              		.loc 1 190 0
 325 0004 0F4C     		ldr	r4, .L35+4
 326              		.loc 1 185 0
 327 0006 2A68     		ldr	r2, [r5]
 328              		.loc 1 187 0
 329 0008 0F4B     		ldr	r3, .L35+8
 330              		.loc 1 185 0
 331 000a 83B0     		sub	sp, sp, #12
 332              		.cfi_def_cfa_offset 24
 333              		.loc 1 190 0
 334 000c 2046     		mov	r0, r4
 335              		.loc 1 185 0
 336 000e 0192     		str	r2, [sp, #4]
 337              		.loc 1 187 0
 338 0010 4FF6FF72 		movw	r2, #65535
 339 0014 1A80     		strh	r2, [r3]	@ movhi
 340              		.loc 1 190 0
 341 0016 FFF7FEFF 		bl	spiObjectInit
 342              	.LVL23:
ARM GAS  C:\Users\shadi\AppData\Local\Temp\ccclYXkJ.s 			page 7


 343              		.loc 1 192 0
 344 001a 0C4B     		ldr	r3, .L35+12
 345              		.loc 1 296 0
 346 001c 0199     		ldr	r1, [sp, #4]
 347 001e 2A68     		ldr	r2, [r5]
 348              		.loc 1 194 0
 349 0020 0B48     		ldr	r0, .L35+16
 350              		.loc 1 191 0
 351 0022 0C4D     		ldr	r5, .L35+20
 352 0024 2562     		str	r5, [r4, #32]
 353              		.loc 1 192 0
 354 0026 6362     		str	r3, [r4, #36]
 355              		.loc 1 193 0
 356 0028 03F13C05 		add	r5, r3, #60
 357              		.loc 1 296 0
 358 002c 9142     		cmp	r1, r2
 359              		.loc 1 200 0
 360 002e 0A4B     		ldr	r3, .L35+24
 361 0030 2363     		str	r3, [r4, #48]
 362              		.loc 1 194 0
 363 0032 C4E90A50 		strd	r5, r0, [r4, #40]
 364              		.loc 1 296 0
 365 0036 01D1     		bne	.L34
 366 0038 03B0     		add	sp, sp, #12
 367              		.cfi_remember_state
 368              		.cfi_def_cfa_offset 12
 369              		@ sp needed
 370 003a 30BD     		pop	{r4, r5, pc}
 371              	.L34:
 372              		.cfi_restore_state
 373 003c FFF7FEFF 		bl	__stack_chk_fail
 374              	.LVL24:
 375              	.L36:
 376              		.align	2
 377              	.L35:
 378 0040 00000000 		.word	__stack_chk_guard
 379 0044 00000000 		.word	.LANCHOR1
 380 0048 00000000 		.word	.LANCHOR0
 381 004c 60000000 		.word	_stm32_dma_streams+96
 382 0050 16000106 		.word	100728854
 383 0054 00300140 		.word	1073819648
 384 0058 46000106 		.word	100728902
 385              		.cfi_endproc
 386              	.LFE258:
 387              		.size	spi_lld_init, .-spi_lld_init
 388              		.section	.text.spi_lld_start,"ax",%progbits
 389              		.align	1
 390              		.p2align 4,,15
 391              		.global	spi_lld_start
 392              		.syntax unified
 393              		.thumb
 394              		.thumb_func
 395              		.fpu fpv4-sp-d16
 396              		.type	spi_lld_start, %function
 397              	spi_lld_start:
 398              	.LFB259:
 399              		.loc 1 305 0
ARM GAS  C:\Users\shadi\AppData\Local\Temp\ccclYXkJ.s 			page 8


 400              		.cfi_startproc
 401              		@ args = 0, pretend = 0, frame = 8
 402              		@ frame_needed = 0, uses_anonymous_args = 0
 403              	.LVL25:
 404 0000 70B5     		push	{r4, r5, r6, lr}
 405              		.cfi_def_cfa_offset 16
 406              		.cfi_offset 4, -16
 407              		.cfi_offset 5, -12
 408              		.cfi_offset 6, -8
 409              		.cfi_offset 14, -4
 410 0002 2D4D     		ldr	r5, .L58
 411              		.loc 1 308 0
 412 0004 0378     		ldrb	r3, [r0]	@ zero_extendqisi2
 413              		.loc 1 305 0
 414 0006 2A68     		ldr	r2, [r5]
 415 0008 82B0     		sub	sp, sp, #8
 416              		.cfi_def_cfa_offset 24
 417              		.loc 1 308 0
 418 000a 012B     		cmp	r3, #1
 419              		.loc 1 305 0
 420 000c 0446     		mov	r4, r0
 421 000e 0192     		str	r2, [sp, #4]
 422              		.loc 1 308 0
 423 0010 26D0     		beq	.L53
 424              	.LVL26:
 425              	.L38:
 426              		.loc 1 412 0
 427 0012 6368     		ldr	r3, [r4, #4]
 428 0014 E26A     		ldr	r2, [r4, #44]
 429 0016 5989     		ldrh	r1, [r3, #10]
 430 0018 236B     		ldr	r3, [r4, #48]
 431 001a 22F4F042 		bic	r2, r2, #30720
 432 001e 23F4F043 		bic	r3, r3, #30720
 433 0022 0905     		lsls	r1, r1, #20
 434              		.loc 1 422 0
 435 0024 44BF     		itt	mi
 436 0026 42F42052 		orrmi	r2, r2, #10240
 437              		.loc 1 424 0
 438 002a 43F42053 		orrmi	r3, r3, #10240
 439              		.loc 1 423 0
 440 002e C4E90B23 		strd	r2, r3, [r4, #44]
 441              		.loc 1 427 0
 442 0032 236A     		ldr	r3, [r4, #32]
 443 0034 0022     		movs	r2, #0
 444 0036 1A60     		str	r2, [r3]
 445              		.loc 1 428 0
 446 0038 6368     		ldr	r3, [r4, #4]
 447 003a 226A     		ldr	r2, [r4, #32]
 448 003c 5B89     		ldrh	r3, [r3, #10]
 449 003e 43F44173 		orr	r3, r3, #772
 450 0042 1360     		str	r3, [r2]
 451              		.loc 1 430 0
 452 0044 236A     		ldr	r3, [r4, #32]
 453 0046 0722     		movs	r2, #7
 454 0048 5A60     		str	r2, [r3, #4]
 455              		.loc 1 431 0
 456 004a 226A     		ldr	r2, [r4, #32]
ARM GAS  C:\Users\shadi\AppData\Local\Temp\ccclYXkJ.s 			page 9


 457 004c 1368     		ldr	r3, [r2]
 458 004e 43F04003 		orr	r3, r3, #64
 459 0052 1360     		str	r3, [r2]
 460              		.loc 1 432 0
 461 0054 019A     		ldr	r2, [sp, #4]
 462 0056 2B68     		ldr	r3, [r5]
 463 0058 9A42     		cmp	r2, r3
 464 005a 2BD1     		bne	.L54
 465 005c 02B0     		add	sp, sp, #8
 466              		.cfi_remember_state
 467              		.cfi_def_cfa_offset 16
 468              		@ sp needed
 469 005e 70BD     		pop	{r4, r5, r6, pc}
 470              	.LVL27:
 471              	.L53:
 472              		.cfi_restore_state
 473              		.loc 1 310 0
 474 0060 164E     		ldr	r6, .L58+4
 475 0062 B042     		cmp	r0, r6
 476 0064 0AD0     		beq	.L55
 477              	.LVL28:
 478              	.L39:
 479              		.loc 1 407 0
 480 0066 D4E90832 		ldrd	r3, r2, [r4, #32]
 481 006a 1268     		ldr	r2, [r2]
 482 006c 0C33     		adds	r3, r3, #12
 483 006e 9360     		str	r3, [r2, #8]
 484              		.loc 1 408 0
 485 0070 A26A     		ldr	r2, [r4, #40]
 486 0072 236A     		ldr	r3, [r4, #32]
 487 0074 1268     		ldr	r2, [r2]
 488 0076 0C33     		adds	r3, r3, #12
 489 0078 9360     		str	r3, [r2, #8]
 490 007a CAE7     		b	.L38
 491              	.LVL29:
 492              	.L55:
 493              	.LBB82:
 494              		.loc 1 312 0
 495 007c 0346     		mov	r3, r0
 496 007e 104A     		ldr	r2, .L58+8
 497 0080 406A     		ldr	r0, [r0, #36]
 498              	.LVL30:
 499 0082 0A21     		movs	r1, #10
 500 0084 FFF7FEFF 		bl	dmaStreamAllocate
 501              	.LVL31:
 502              		.loc 1 316 0
 503 0088 80B9     		cbnz	r0, .L56
 504              	.LVL32:
 505              	.L40:
 506              		.loc 1 317 0
 507 008a B06A     		ldr	r0, [r6, #40]
 508 008c 0B4B     		ldr	r3, .L58+4
 509 008e 0D4A     		ldr	r2, .L58+12
 510 0090 0A21     		movs	r1, #10
 511 0092 FFF7FEFF 		bl	dmaStreamAllocate
 512              	.LVL33:
 513              		.loc 1 321 0
ARM GAS  C:\Users\shadi\AppData\Local\Temp\ccclYXkJ.s 			page 10


 514 0096 28B9     		cbnz	r0, .L57
 515              	.LVL34:
 516              	.L41:
 517              		.loc 1 322 0
 518 0098 0B4A     		ldr	r2, .L58+16
 519 009a 536C     		ldr	r3, [r2, #68]
 520 009c 43F48053 		orr	r3, r3, #4096
 521 00a0 5364     		str	r3, [r2, #68]
 522 00a2 E0E7     		b	.L39
 523              	.LVL35:
 524              	.L57:
 525              		.loc 1 321 0 discriminator 2
 526 00a4 0948     		ldr	r0, .L58+20
 527              	.LVL36:
 528 00a6 FFF7FEFF 		bl	chSysHalt
 529              	.LVL37:
 530 00aa F5E7     		b	.L41
 531              	.LVL38:
 532              	.L56:
 533              		.loc 1 316 0 discriminator 2
 534 00ac 0748     		ldr	r0, .L58+20
 535              	.LVL39:
 536 00ae FFF7FEFF 		bl	chSysHalt
 537              	.LVL40:
 538 00b2 EAE7     		b	.L40
 539              	.L54:
 540              	.LBE82:
 541              		.loc 1 432 0
 542 00b4 FFF7FEFF 		bl	__stack_chk_fail
 543              	.LVL41:
 544              	.L59:
 545              		.align	2
 546              	.L58:
 547 00b8 00000000 		.word	__stack_chk_guard
 548 00bc 00000000 		.word	.LANCHOR1
 549 00c0 00000000 		.word	spi_lld_serve_rx_interrupt
 550 00c4 00000000 		.word	spi_lld_serve_tx_interrupt
 551 00c8 00380240 		.word	1073887232
 552 00cc 00000000 		.word	.LANCHOR2
 553              		.cfi_endproc
 554              	.LFE259:
 555              		.size	spi_lld_start, .-spi_lld_start
 556              		.section	.text.spi_lld_stop,"ax",%progbits
 557              		.align	1
 558              		.p2align 4,,15
 559              		.global	spi_lld_stop
 560              		.syntax unified
 561              		.thumb
 562              		.thumb_func
 563              		.fpu fpv4-sp-d16
 564              		.type	spi_lld_stop, %function
 565              	spi_lld_stop:
 566              	.LFB260:
 567              		.loc 1 441 0
 568              		.cfi_startproc
 569              		@ args = 0, pretend = 0, frame = 8
 570              		@ frame_needed = 0, uses_anonymous_args = 0
ARM GAS  C:\Users\shadi\AppData\Local\Temp\ccclYXkJ.s 			page 11


 571              	.LVL42:
 572 0000 30B5     		push	{r4, r5, lr}
 573              		.cfi_def_cfa_offset 12
 574              		.cfi_offset 4, -12
 575              		.cfi_offset 5, -8
 576              		.cfi_offset 14, -4
 577 0002 124D     		ldr	r5, .L68
 578              		.loc 1 444 0
 579 0004 0378     		ldrb	r3, [r0]	@ zero_extendqisi2
 580              		.loc 1 441 0
 581 0006 2A68     		ldr	r2, [r5]
 582 0008 83B0     		sub	sp, sp, #12
 583              		.cfi_def_cfa_offset 24
 584              		.loc 1 444 0
 585 000a 022B     		cmp	r3, #2
 586              		.loc 1 441 0
 587 000c 0192     		str	r2, [sp, #4]
 588              		.loc 1 444 0
 589 000e 05D0     		beq	.L66
 590              	.LVL43:
 591              	.L60:
 592              		.loc 1 477 0
 593 0010 019A     		ldr	r2, [sp, #4]
 594 0012 2B68     		ldr	r3, [r5]
 595 0014 9A42     		cmp	r2, r3
 596 0016 16D1     		bne	.L67
 597 0018 03B0     		add	sp, sp, #12
 598              		.cfi_remember_state
 599              		.cfi_def_cfa_offset 12
 600              		@ sp needed
 601 001a 30BD     		pop	{r4, r5, pc}
 602              	.LVL44:
 603              	.L66:
 604              		.cfi_restore_state
 605              		.loc 1 447 0
 606 001c 026A     		ldr	r2, [r0, #32]
 607 001e 0023     		movs	r3, #0
 608 0020 1360     		str	r3, [r2]
 609              		.loc 1 448 0
 610 0022 026A     		ldr	r2, [r0, #32]
 611 0024 0446     		mov	r4, r0
 612 0026 5360     		str	r3, [r2, #4]
 613              		.loc 1 449 0
 614 0028 406A     		ldr	r0, [r0, #36]
 615              	.LVL45:
 616 002a FFF7FEFF 		bl	dmaStreamRelease
 617              	.LVL46:
 618              		.loc 1 450 0
 619 002e A06A     		ldr	r0, [r4, #40]
 620 0030 FFF7FEFF 		bl	dmaStreamRelease
 621              	.LVL47:
 622              		.loc 1 453 0
 623 0034 064B     		ldr	r3, .L68+4
 624 0036 9C42     		cmp	r4, r3
 625 0038 EAD1     		bne	.L60
 626              		.loc 1 454 0
 627 003a 064A     		ldr	r2, .L68+8
ARM GAS  C:\Users\shadi\AppData\Local\Temp\ccclYXkJ.s 			page 12


 628 003c 536C     		ldr	r3, [r2, #68]
 629 003e 23F48053 		bic	r3, r3, #4096
 630 0042 5364     		str	r3, [r2, #68]
 631              		.loc 1 477 0
 632 0044 E4E7     		b	.L60
 633              	.LVL48:
 634              	.L67:
 635 0046 FFF7FEFF 		bl	__stack_chk_fail
 636              	.LVL49:
 637              	.L69:
 638 004a 00BF     		.align	2
 639              	.L68:
 640 004c 00000000 		.word	__stack_chk_guard
 641 0050 00000000 		.word	.LANCHOR1
 642 0054 00380240 		.word	1073887232
 643              		.cfi_endproc
 644              	.LFE260:
 645              		.size	spi_lld_stop, .-spi_lld_stop
 646              		.section	.text.spi_lld_select,"ax",%progbits
 647              		.align	1
 648              		.p2align 4,,15
 649              		.global	spi_lld_select
 650              		.syntax unified
 651              		.thumb
 652              		.thumb_func
 653              		.fpu fpv4-sp-d16
 654              		.type	spi_lld_select, %function
 655              	spi_lld_select:
 656              	.LFB261:
 657              		.loc 1 486 0
 658              		.cfi_startproc
 659              		@ args = 0, pretend = 0, frame = 8
 660              		@ frame_needed = 0, uses_anonymous_args = 0
 661              	.LVL50:
 662 0000 00B5     		push	{lr}
 663              		.cfi_def_cfa_offset 4
 664              		.cfi_offset 14, -4
 665 0002 0A4A     		ldr	r2, .L74
 666              		.loc 1 488 0
 667 0004 4168     		ldr	r1, [r0, #4]
 668              		.loc 1 486 0
 669 0006 1368     		ldr	r3, [r2]
 670              		.loc 1 488 0
 671 0008 0889     		ldrh	r0, [r1, #8]
 672              	.LVL51:
 673 000a 4968     		ldr	r1, [r1, #4]
 674              		.loc 1 486 0
 675 000c 83B0     		sub	sp, sp, #12
 676              		.cfi_def_cfa_offset 16
 677              		.loc 1 486 0
 678 000e 0193     		str	r3, [sp, #4]
 679              		.loc 1 488 0
 680 0010 0123     		movs	r3, #1
 681 0012 8340     		lsls	r3, r3, r0
 682 0014 9BB2     		uxth	r3, r3
 683 0016 4B83     		strh	r3, [r1, #26]	@ movhi
 684              		.loc 1 489 0
ARM GAS  C:\Users\shadi\AppData\Local\Temp\ccclYXkJ.s 			page 13


 685 0018 0199     		ldr	r1, [sp, #4]
 686 001a 1368     		ldr	r3, [r2]
 687 001c 9942     		cmp	r1, r3
 688 001e 02D1     		bne	.L73
 689 0020 03B0     		add	sp, sp, #12
 690              		.cfi_remember_state
 691              		.cfi_def_cfa_offset 4
 692              		@ sp needed
 693 0022 5DF804FB 		ldr	pc, [sp], #4
 694              	.L73:
 695              		.cfi_restore_state
 696 0026 FFF7FEFF 		bl	__stack_chk_fail
 697              	.LVL52:
 698              	.L75:
 699 002a 00BF     		.align	2
 700              	.L74:
 701 002c 00000000 		.word	__stack_chk_guard
 702              		.cfi_endproc
 703              	.LFE261:
 704              		.size	spi_lld_select, .-spi_lld_select
 705              		.section	.text.spi_lld_unselect,"ax",%progbits
 706              		.align	1
 707              		.p2align 4,,15
 708              		.global	spi_lld_unselect
 709              		.syntax unified
 710              		.thumb
 711              		.thumb_func
 712              		.fpu fpv4-sp-d16
 713              		.type	spi_lld_unselect, %function
 714              	spi_lld_unselect:
 715              	.LFB262:
 716              		.loc 1 499 0
 717              		.cfi_startproc
 718              		@ args = 0, pretend = 0, frame = 8
 719              		@ frame_needed = 0, uses_anonymous_args = 0
 720              	.LVL53:
 721 0000 00B5     		push	{lr}
 722              		.cfi_def_cfa_offset 4
 723              		.cfi_offset 14, -4
 724 0002 0A4A     		ldr	r2, .L80
 725              		.loc 1 501 0
 726 0004 4168     		ldr	r1, [r0, #4]
 727              		.loc 1 499 0
 728 0006 1368     		ldr	r3, [r2]
 729              		.loc 1 501 0
 730 0008 0889     		ldrh	r0, [r1, #8]
 731              	.LVL54:
 732 000a 4968     		ldr	r1, [r1, #4]
 733              		.loc 1 499 0
 734 000c 83B0     		sub	sp, sp, #12
 735              		.cfi_def_cfa_offset 16
 736              		.loc 1 499 0
 737 000e 0193     		str	r3, [sp, #4]
 738              		.loc 1 501 0
 739 0010 0123     		movs	r3, #1
 740 0012 8340     		lsls	r3, r3, r0
 741 0014 9BB2     		uxth	r3, r3
ARM GAS  C:\Users\shadi\AppData\Local\Temp\ccclYXkJ.s 			page 14


 742 0016 0B83     		strh	r3, [r1, #24]	@ movhi
 743              		.loc 1 502 0
 744 0018 0199     		ldr	r1, [sp, #4]
 745 001a 1368     		ldr	r3, [r2]
 746 001c 9942     		cmp	r1, r3
 747 001e 02D1     		bne	.L79
 748 0020 03B0     		add	sp, sp, #12
 749              		.cfi_remember_state
 750              		.cfi_def_cfa_offset 4
 751              		@ sp needed
 752 0022 5DF804FB 		ldr	pc, [sp], #4
 753              	.L79:
 754              		.cfi_restore_state
 755 0026 FFF7FEFF 		bl	__stack_chk_fail
 756              	.LVL55:
 757              	.L81:
 758 002a 00BF     		.align	2
 759              	.L80:
 760 002c 00000000 		.word	__stack_chk_guard
 761              		.cfi_endproc
 762              	.LFE262:
 763              		.size	spi_lld_unselect, .-spi_lld_unselect
 764              		.section	.text.spi_lld_ignore,"ax",%progbits
 765              		.align	1
 766              		.p2align 4,,15
 767              		.global	spi_lld_ignore
 768              		.syntax unified
 769              		.thumb
 770              		.thumb_func
 771              		.fpu fpv4-sp-d16
 772              		.type	spi_lld_ignore, %function
 773              	spi_lld_ignore:
 774              	.LFB263:
 775              		.loc 1 515 0
 776              		.cfi_startproc
 777              		@ args = 0, pretend = 0, frame = 8
 778              		@ frame_needed = 0, uses_anonymous_args = 0
 779              	.LVL56:
 780 0000 30B5     		push	{r4, r5, lr}
 781              		.cfi_def_cfa_offset 12
 782              		.cfi_offset 4, -12
 783              		.cfi_offset 5, -8
 784              		.cfi_offset 14, -4
 785              		.loc 1 517 0
 786 0002 436A     		ldr	r3, [r0, #36]
 787              		.loc 1 515 0
 788 0004 164A     		ldr	r2, .L86
 789              		.loc 1 517 0
 790 0006 1B68     		ldr	r3, [r3]
 791              		.loc 1 515 0
 792 0008 1568     		ldr	r5, [r2]
 793              		.loc 1 517 0
 794 000a 164C     		ldr	r4, .L86+4
 795              		.loc 1 515 0
 796 000c 83B0     		sub	sp, sp, #12
 797              		.cfi_def_cfa_offset 24
 798              		.loc 1 515 0
ARM GAS  C:\Users\shadi\AppData\Local\Temp\ccclYXkJ.s 			page 15


 799 000e 0195     		str	r5, [sp, #4]
 800              		.loc 1 517 0
 801 0010 DC60     		str	r4, [r3, #12]
 802              		.loc 1 518 0
 803 0012 436A     		ldr	r3, [r0, #36]
 804              		.loc 1 521 0
 805 0014 144C     		ldr	r4, .L86+8
 806              		.loc 1 518 0
 807 0016 1B68     		ldr	r3, [r3]
 808 0018 5960     		str	r1, [r3, #4]
 809              		.loc 1 519 0
 810 001a 436A     		ldr	r3, [r0, #36]
 811 001c C56A     		ldr	r5, [r0, #44]
 812 001e 1B68     		ldr	r3, [r3]
 813 0020 1D60     		str	r5, [r3]
 814              		.loc 1 521 0
 815 0022 836A     		ldr	r3, [r0, #40]
 816 0024 1B68     		ldr	r3, [r3]
 817 0026 DC60     		str	r4, [r3, #12]
 818              		.loc 1 522 0
 819 0028 836A     		ldr	r3, [r0, #40]
 820 002a 1B68     		ldr	r3, [r3]
 821 002c 5960     		str	r1, [r3, #4]
 822              		.loc 1 523 0
 823 002e 836A     		ldr	r3, [r0, #40]
 824 0030 016B     		ldr	r1, [r0, #48]
 825              	.LVL57:
 826 0032 1B68     		ldr	r3, [r3]
 827 0034 1960     		str	r1, [r3]
 828              		.loc 1 525 0
 829 0036 436A     		ldr	r3, [r0, #36]
 830 0038 1968     		ldr	r1, [r3]
 831 003a 0B68     		ldr	r3, [r1]
 832 003c 43F00103 		orr	r3, r3, #1
 833 0040 0B60     		str	r3, [r1]
 834              		.loc 1 526 0
 835 0042 836A     		ldr	r3, [r0, #40]
 836 0044 1968     		ldr	r1, [r3]
 837 0046 0B68     		ldr	r3, [r1]
 838 0048 43F00103 		orr	r3, r3, #1
 839 004c 0B60     		str	r3, [r1]
 840              		.loc 1 527 0
 841 004e 0199     		ldr	r1, [sp, #4]
 842 0050 1368     		ldr	r3, [r2]
 843 0052 9942     		cmp	r1, r3
 844 0054 01D1     		bne	.L85
 845 0056 03B0     		add	sp, sp, #12
 846              		.cfi_remember_state
 847              		.cfi_def_cfa_offset 12
 848              		@ sp needed
 849 0058 30BD     		pop	{r4, r5, pc}
 850              	.L85:
 851              		.cfi_restore_state
 852 005a FFF7FEFF 		bl	__stack_chk_fail
 853              	.LVL58:
 854              	.L87:
 855 005e 00BF     		.align	2
ARM GAS  C:\Users\shadi\AppData\Local\Temp\ccclYXkJ.s 			page 16


 856              	.L86:
 857 0060 00000000 		.word	__stack_chk_guard
 858 0064 00000000 		.word	.LANCHOR3
 859 0068 00000000 		.word	.LANCHOR0
 860              		.cfi_endproc
 861              	.LFE263:
 862              		.size	spi_lld_ignore, .-spi_lld_ignore
 863              		.section	.text.spi_lld_exchange,"ax",%progbits
 864              		.align	1
 865              		.p2align 4,,15
 866              		.global	spi_lld_exchange
 867              		.syntax unified
 868              		.thumb
 869              		.thumb_func
 870              		.fpu fpv4-sp-d16
 871              		.type	spi_lld_exchange, %function
 872              	spi_lld_exchange:
 873              	.LFB264:
 874              		.loc 1 545 0
 875              		.cfi_startproc
 876              		@ args = 0, pretend = 0, frame = 8
 877              		@ frame_needed = 0, uses_anonymous_args = 0
 878              	.LVL59:
 879 0000 70B5     		push	{r4, r5, r6, lr}
 880              		.cfi_def_cfa_offset 16
 881              		.cfi_offset 4, -16
 882              		.cfi_offset 5, -12
 883              		.cfi_offset 6, -8
 884              		.cfi_offset 14, -4
 885              		.loc 1 547 0
 886 0002 456A     		ldr	r5, [r0, #36]
 887              		.loc 1 545 0
 888 0004 174C     		ldr	r4, .L92
 889              		.loc 1 547 0
 890 0006 2D68     		ldr	r5, [r5]
 891              		.loc 1 545 0
 892 0008 2668     		ldr	r6, [r4]
 893 000a 82B0     		sub	sp, sp, #8
 894              		.cfi_def_cfa_offset 24
 895              		.loc 1 545 0
 896 000c 0196     		str	r6, [sp, #4]
 897              		.loc 1 547 0
 898 000e EB60     		str	r3, [r5, #12]
 899              		.loc 1 548 0
 900 0010 436A     		ldr	r3, [r0, #36]
 901              	.LVL60:
 902 0012 1B68     		ldr	r3, [r3]
 903 0014 5960     		str	r1, [r3, #4]
 904              	.LVL61:
 905              		.loc 1 549 0
 906 0016 456A     		ldr	r5, [r0, #36]
 907 0018 C36A     		ldr	r3, [r0, #44]
 908 001a 2D68     		ldr	r5, [r5]
 909 001c 43F48063 		orr	r3, r3, #1024
 910 0020 2B60     		str	r3, [r5]
 911              		.loc 1 551 0
 912 0022 836A     		ldr	r3, [r0, #40]
ARM GAS  C:\Users\shadi\AppData\Local\Temp\ccclYXkJ.s 			page 17


 913 0024 1B68     		ldr	r3, [r3]
 914 0026 DA60     		str	r2, [r3, #12]
 915              		.loc 1 552 0
 916 0028 836A     		ldr	r3, [r0, #40]
 917 002a 1B68     		ldr	r3, [r3]
 918 002c 5960     		str	r1, [r3, #4]
 919              		.loc 1 553 0
 920 002e 826A     		ldr	r2, [r0, #40]
 921              	.LVL62:
 922 0030 036B     		ldr	r3, [r0, #48]
 923 0032 1268     		ldr	r2, [r2]
 924 0034 43F48063 		orr	r3, r3, #1024
 925 0038 1360     		str	r3, [r2]
 926              		.loc 1 555 0
 927 003a 436A     		ldr	r3, [r0, #36]
 928 003c 1A68     		ldr	r2, [r3]
 929 003e 1368     		ldr	r3, [r2]
 930 0040 43F00103 		orr	r3, r3, #1
 931 0044 1360     		str	r3, [r2]
 932              		.loc 1 556 0
 933 0046 836A     		ldr	r3, [r0, #40]
 934 0048 1A68     		ldr	r2, [r3]
 935 004a 1368     		ldr	r3, [r2]
 936 004c 43F00103 		orr	r3, r3, #1
 937 0050 1360     		str	r3, [r2]
 938              		.loc 1 557 0
 939 0052 019A     		ldr	r2, [sp, #4]
 940 0054 2368     		ldr	r3, [r4]
 941 0056 9A42     		cmp	r2, r3
 942 0058 01D1     		bne	.L91
 943 005a 02B0     		add	sp, sp, #8
 944              		.cfi_remember_state
 945              		.cfi_def_cfa_offset 16
 946              		@ sp needed
 947 005c 70BD     		pop	{r4, r5, r6, pc}
 948              	.L91:
 949              		.cfi_restore_state
 950 005e FFF7FEFF 		bl	__stack_chk_fail
 951              	.LVL63:
 952              	.L93:
 953 0062 00BF     		.align	2
 954              	.L92:
 955 0064 00000000 		.word	__stack_chk_guard
 956              		.cfi_endproc
 957              	.LFE264:
 958              		.size	spi_lld_exchange, .-spi_lld_exchange
 959              		.section	.text.spi_lld_send,"ax",%progbits
 960              		.align	1
 961              		.p2align 4,,15
 962              		.global	spi_lld_send
 963              		.syntax unified
 964              		.thumb
 965              		.thumb_func
 966              		.fpu fpv4-sp-d16
 967              		.type	spi_lld_send, %function
 968              	spi_lld_send:
 969              	.LFB265:
ARM GAS  C:\Users\shadi\AppData\Local\Temp\ccclYXkJ.s 			page 18


 970              		.loc 1 572 0
 971              		.cfi_startproc
 972              		@ args = 0, pretend = 0, frame = 8
 973              		@ frame_needed = 0, uses_anonymous_args = 0
 974              	.LVL64:
 975 0000 70B5     		push	{r4, r5, r6, lr}
 976              		.cfi_def_cfa_offset 16
 977              		.cfi_offset 4, -16
 978              		.cfi_offset 5, -12
 979              		.cfi_offset 6, -8
 980              		.cfi_offset 14, -4
 981              		.loc 1 574 0
 982 0002 436A     		ldr	r3, [r0, #36]
 983              		.loc 1 572 0
 984 0004 164C     		ldr	r4, .L98
 985              		.loc 1 574 0
 986 0006 1B68     		ldr	r3, [r3]
 987              		.loc 1 572 0
 988 0008 2668     		ldr	r6, [r4]
 989              		.loc 1 574 0
 990 000a 164D     		ldr	r5, .L98+4
 991              		.loc 1 572 0
 992 000c 82B0     		sub	sp, sp, #8
 993              		.cfi_def_cfa_offset 24
 994              		.loc 1 572 0
 995 000e 0196     		str	r6, [sp, #4]
 996              		.loc 1 574 0
 997 0010 DD60     		str	r5, [r3, #12]
 998              		.loc 1 575 0
 999 0012 436A     		ldr	r3, [r0, #36]
 1000 0014 1B68     		ldr	r3, [r3]
 1001 0016 5960     		str	r1, [r3, #4]
 1002              		.loc 1 576 0
 1003 0018 436A     		ldr	r3, [r0, #36]
 1004 001a C56A     		ldr	r5, [r0, #44]
 1005 001c 1B68     		ldr	r3, [r3]
 1006 001e 1D60     		str	r5, [r3]
 1007              		.loc 1 578 0
 1008 0020 836A     		ldr	r3, [r0, #40]
 1009 0022 1B68     		ldr	r3, [r3]
 1010 0024 DA60     		str	r2, [r3, #12]
 1011              		.loc 1 579 0
 1012 0026 836A     		ldr	r3, [r0, #40]
 1013 0028 1B68     		ldr	r3, [r3]
 1014 002a 5960     		str	r1, [r3, #4]
 1015              		.loc 1 580 0
 1016 002c 826A     		ldr	r2, [r0, #40]
 1017              	.LVL65:
 1018 002e 036B     		ldr	r3, [r0, #48]
 1019 0030 1268     		ldr	r2, [r2]
 1020 0032 43F48063 		orr	r3, r3, #1024
 1021 0036 1360     		str	r3, [r2]
 1022              		.loc 1 582 0
 1023 0038 436A     		ldr	r3, [r0, #36]
 1024 003a 1A68     		ldr	r2, [r3]
 1025 003c 1368     		ldr	r3, [r2]
 1026 003e 43F00103 		orr	r3, r3, #1
ARM GAS  C:\Users\shadi\AppData\Local\Temp\ccclYXkJ.s 			page 19


 1027 0042 1360     		str	r3, [r2]
 1028              		.loc 1 583 0
 1029 0044 836A     		ldr	r3, [r0, #40]
 1030 0046 1A68     		ldr	r2, [r3]
 1031 0048 1368     		ldr	r3, [r2]
 1032 004a 43F00103 		orr	r3, r3, #1
 1033 004e 1360     		str	r3, [r2]
 1034              		.loc 1 584 0
 1035 0050 019A     		ldr	r2, [sp, #4]
 1036 0052 2368     		ldr	r3, [r4]
 1037 0054 9A42     		cmp	r2, r3
 1038 0056 01D1     		bne	.L97
 1039 0058 02B0     		add	sp, sp, #8
 1040              		.cfi_remember_state
 1041              		.cfi_def_cfa_offset 16
 1042              		@ sp needed
 1043 005a 70BD     		pop	{r4, r5, r6, pc}
 1044              	.L97:
 1045              		.cfi_restore_state
 1046 005c FFF7FEFF 		bl	__stack_chk_fail
 1047              	.LVL66:
 1048              	.L99:
 1049              		.align	2
 1050              	.L98:
 1051 0060 00000000 		.word	__stack_chk_guard
 1052 0064 00000000 		.word	.LANCHOR3
 1053              		.cfi_endproc
 1054              	.LFE265:
 1055              		.size	spi_lld_send, .-spi_lld_send
 1056              		.section	.text.spi_lld_receive,"ax",%progbits
 1057              		.align	1
 1058              		.p2align 4,,15
 1059              		.global	spi_lld_receive
 1060              		.syntax unified
 1061              		.thumb
 1062              		.thumb_func
 1063              		.fpu fpv4-sp-d16
 1064              		.type	spi_lld_receive, %function
 1065              	spi_lld_receive:
 1066              	.LFB266:
 1067              		.loc 1 599 0
 1068              		.cfi_startproc
 1069              		@ args = 0, pretend = 0, frame = 8
 1070              		@ frame_needed = 0, uses_anonymous_args = 0
 1071              	.LVL67:
 1072 0000 30B5     		push	{r4, r5, lr}
 1073              		.cfi_def_cfa_offset 12
 1074              		.cfi_offset 4, -12
 1075              		.cfi_offset 5, -8
 1076              		.cfi_offset 14, -4
 1077              		.loc 1 601 0
 1078 0002 436A     		ldr	r3, [r0, #36]
 1079              		.loc 1 599 0
 1080 0004 164C     		ldr	r4, .L104
 1081              		.loc 1 601 0
 1082 0006 1B68     		ldr	r3, [r3]
 1083              		.loc 1 599 0
ARM GAS  C:\Users\shadi\AppData\Local\Temp\ccclYXkJ.s 			page 20


 1084 0008 2568     		ldr	r5, [r4]
 1085 000a 83B0     		sub	sp, sp, #12
 1086              		.cfi_def_cfa_offset 24
 1087              		.loc 1 599 0
 1088 000c 0195     		str	r5, [sp, #4]
 1089              		.loc 1 601 0
 1090 000e DA60     		str	r2, [r3, #12]
 1091              		.loc 1 602 0
 1092 0010 436A     		ldr	r3, [r0, #36]
 1093              		.loc 1 605 0
 1094 0012 144A     		ldr	r2, .L104+4
 1095              	.LVL68:
 1096              		.loc 1 602 0
 1097 0014 1B68     		ldr	r3, [r3]
 1098 0016 5960     		str	r1, [r3, #4]
 1099              		.loc 1 603 0
 1100 0018 456A     		ldr	r5, [r0, #36]
 1101 001a C36A     		ldr	r3, [r0, #44]
 1102 001c 2D68     		ldr	r5, [r5]
 1103 001e 43F48063 		orr	r3, r3, #1024
 1104 0022 2B60     		str	r3, [r5]
 1105              		.loc 1 605 0
 1106 0024 836A     		ldr	r3, [r0, #40]
 1107 0026 1B68     		ldr	r3, [r3]
 1108 0028 DA60     		str	r2, [r3, #12]
 1109              		.loc 1 606 0
 1110 002a 836A     		ldr	r3, [r0, #40]
 1111 002c 1B68     		ldr	r3, [r3]
 1112 002e 5960     		str	r1, [r3, #4]
 1113              		.loc 1 607 0
 1114 0030 836A     		ldr	r3, [r0, #40]
 1115 0032 026B     		ldr	r2, [r0, #48]
 1116 0034 1B68     		ldr	r3, [r3]
 1117 0036 1A60     		str	r2, [r3]
 1118              		.loc 1 609 0
 1119 0038 436A     		ldr	r3, [r0, #36]
 1120 003a 1A68     		ldr	r2, [r3]
 1121 003c 1368     		ldr	r3, [r2]
 1122 003e 43F00103 		orr	r3, r3, #1
 1123 0042 1360     		str	r3, [r2]
 1124              		.loc 1 610 0
 1125 0044 836A     		ldr	r3, [r0, #40]
 1126 0046 1A68     		ldr	r2, [r3]
 1127 0048 1368     		ldr	r3, [r2]
 1128 004a 43F00103 		orr	r3, r3, #1
 1129 004e 1360     		str	r3, [r2]
 1130              		.loc 1 611 0
 1131 0050 019A     		ldr	r2, [sp, #4]
 1132 0052 2368     		ldr	r3, [r4]
 1133 0054 9A42     		cmp	r2, r3
 1134 0056 01D1     		bne	.L103
 1135 0058 03B0     		add	sp, sp, #12
 1136              		.cfi_remember_state
 1137              		.cfi_def_cfa_offset 12
 1138              		@ sp needed
 1139 005a 30BD     		pop	{r4, r5, pc}
 1140              	.L103:
ARM GAS  C:\Users\shadi\AppData\Local\Temp\ccclYXkJ.s 			page 21


 1141              		.cfi_restore_state
 1142 005c FFF7FEFF 		bl	__stack_chk_fail
 1143              	.LVL69:
 1144              	.L105:
 1145              		.align	2
 1146              	.L104:
 1147 0060 00000000 		.word	__stack_chk_guard
 1148 0064 00000000 		.word	.LANCHOR0
 1149              		.cfi_endproc
 1150              	.LFE266:
 1151              		.size	spi_lld_receive, .-spi_lld_receive
 1152              		.section	.text.spi_lld_polled_exchange,"ax",%progbits
 1153              		.align	1
 1154              		.p2align 4,,15
 1155              		.global	spi_lld_polled_exchange
 1156              		.syntax unified
 1157              		.thumb
 1158              		.thumb_func
 1159              		.fpu fpv4-sp-d16
 1160              		.type	spi_lld_polled_exchange, %function
 1161              	spi_lld_polled_exchange:
 1162              	.LFB267:
 1163              		.loc 1 625 0
 1164              		.cfi_startproc
 1165              		@ args = 0, pretend = 0, frame = 8
 1166              		@ frame_needed = 0, uses_anonymous_args = 0
 1167              	.LVL70:
 1168 0000 10B5     		push	{r4, lr}
 1169              		.cfi_def_cfa_offset 8
 1170              		.cfi_offset 4, -8
 1171              		.cfi_offset 14, -4
 1172 0002 0A4C     		ldr	r4, .L113
 1173              		.loc 1 627 0
 1174 0004 036A     		ldr	r3, [r0, #32]
 1175              		.loc 1 625 0
 1176 0006 2268     		ldr	r2, [r4]
 1177 0008 82B0     		sub	sp, sp, #8
 1178              		.cfi_def_cfa_offset 16
 1179              		.loc 1 625 0
 1180 000a 0192     		str	r2, [sp, #4]
 1181              		.loc 1 627 0
 1182 000c D960     		str	r1, [r3, #12]
 1183              		.loc 1 628 0
 1184 000e 026A     		ldr	r2, [r0, #32]
 1185              	.L107:
 1186              		.loc 1 628 0 is_stmt 0 discriminator 1
 1187 0010 9368     		ldr	r3, [r2, #8]
 1188 0012 DB07     		lsls	r3, r3, #31
 1189 0014 FCD5     		bpl	.L107
 1190              		.loc 1 630 0 is_stmt 1
 1191 0016 D068     		ldr	r0, [r2, #12]
 1192              	.LVL71:
 1193              		.loc 1 631 0
 1194 0018 019A     		ldr	r2, [sp, #4]
 1195 001a 2368     		ldr	r3, [r4]
 1196 001c 9A42     		cmp	r2, r3
 1197 001e 80B2     		uxth	r0, r0
ARM GAS  C:\Users\shadi\AppData\Local\Temp\ccclYXkJ.s 			page 22


 1198 0020 01D1     		bne	.L112
 1199 0022 02B0     		add	sp, sp, #8
 1200              		.cfi_remember_state
 1201              		.cfi_def_cfa_offset 8
 1202              		@ sp needed
 1203 0024 10BD     		pop	{r4, pc}
 1204              	.L112:
 1205              		.cfi_restore_state
 1206 0026 FFF7FEFF 		bl	__stack_chk_fail
 1207              	.LVL72:
 1208              	.L114:
 1209 002a 00BF     		.align	2
 1210              	.L113:
 1211 002c 00000000 		.word	__stack_chk_guard
 1212              		.cfi_endproc
 1213              	.LFE267:
 1214              		.size	spi_lld_polled_exchange, .-spi_lld_polled_exchange
 1215              		.global	SPID1
 1216              		.section	.bss.SPID1,"aw",%nobits
 1217              		.align	2
 1218              		.set	.LANCHOR1,. + 0
 1219              		.type	SPID1, %object
 1220              		.size	SPID1, 52
 1221              	SPID1:
 1222 0000 00000000 		.space	52
 1222      00000000 
 1222      00000000 
 1222      00000000 
 1222      00000000 
 1223              		.section	.bss.dummyrx,"aw",%nobits
 1224              		.align	1
 1225              		.set	.LANCHOR3,. + 0
 1226              		.type	dummyrx, %object
 1227              		.size	dummyrx, 2
 1228              	dummyrx:
 1229 0000 0000     		.space	2
 1230              		.section	.bss.dummytx,"aw",%nobits
 1231              		.align	1
 1232              		.set	.LANCHOR0,. + 0
 1233              		.type	dummytx, %object
 1234              		.size	dummytx, 2
 1235              	dummytx:
 1236 0000 0000     		.space	2
 1237              		.section	.rodata.__func__.9862,"a",%progbits
 1238              		.align	2
 1239              		.set	.LANCHOR2,. + 0
 1240              		.type	__func__.9862, %object
 1241              		.size	__func__.9862, 14
 1242              	__func__.9862:
 1243 0000 7370695F 		.ascii	"spi_lld_start\000"
 1243      6C6C645F 
 1243      73746172 
 1243      7400
 1244              		.section	.rodata.spi_lld_serve_tx_interrupt.str1.4,"aMS",%progbits,1
 1245              		.align	2
 1246              	.LC0:
 1247 0000 444D4120 		.ascii	"DMA failure\000"
ARM GAS  C:\Users\shadi\AppData\Local\Temp\ccclYXkJ.s 			page 23


 1247      6661696C 
 1247      75726500 
 1248              		.text
 1249              	.Letext0:
 1250              		.file 5 "c:\\users\\shadi\\downloads\\eclipse_e-puck2\\tools\\gcc-arm-none-eabi-7-2017-q4-major-wi
 1251              		.file 6 "c:\\users\\shadi\\downloads\\eclipse_e-puck2\\tools\\gcc-arm-none-eabi-7-2017-q4-major-wi
 1252              		.file 7 "c:\\users\\shadi\\downloads\\eclipse_e-puck2\\tools\\gcc-arm-none-eabi-7-2017-q4-major-wi
 1253              		.file 8 "../../lib/e-puck2_main-processor/ChibiOS//os/rt/ports/ARMCMx/compilers/GCC/chtypes.h"
 1254              		.file 9 "../../lib/e-puck2_main-processor/ChibiOS//os/rt/include/chsystypes.h"
 1255              		.file 10 "../../lib/e-puck2_main-processor/ChibiOS//os/rt/include/chschd.h"
 1256              		.file 11 "../../lib/e-puck2_main-processor/ChibiOS//os/ext/CMSIS/include/core_cm4.h"
 1257              		.file 12 "../../lib/e-puck2_main-processor/ChibiOS//os/ext/CMSIS/ST/system_stm32f4xx.h"
 1258              		.file 13 "../../lib/e-puck2_main-processor/ChibiOS//os/ext/CMSIS/ST/stm32f407xx.h"
 1259              		.file 14 "../../lib/e-puck2_main-processor/ChibiOS//os/rt/ports/ARMCMx/chcore.h"
 1260              		.file 15 "../../lib/e-puck2_main-processor/ChibiOS//os/rt/ports/ARMCMx/chcore_v7m.h"
 1261              		.file 16 "../../lib/e-puck2_main-processor/ChibiOS//os/rt/include/chdebug.h"
 1262              		.file 17 "../../lib/e-puck2_main-processor/ChibiOS//os/rt/include/chtm.h"
 1263              		.file 18 "../../lib/e-puck2_main-processor/ChibiOS//os/rt/include/chstats.h"
 1264              		.file 19 "../../lib/e-puck2_main-processor/ChibiOS//os/rt/include/chsem.h"
 1265              		.file 20 "../../lib/e-puck2_main-processor/ChibiOS//os/rt/include/chmtx.h"
 1266              		.file 21 "../../lib/e-puck2_main-processor/ChibiOS//os/rt/include/chregistry.h"
 1267              		.file 22 "../../lib/e-puck2_main-processor/ChibiOS//os/rt/include/chevents.h"
 1268              		.file 23 "../../lib/e-puck2_main-processor/ChibiOS//os/rt/include/chqueues.h"
 1269              		.file 24 "../../lib/e-puck2_main-processor/ChibiOS//os/hal/ports/STM32/STM32F4xx/stm32_dma.h"
 1270              		.file 25 "../../lib/e-puck2_main-processor/ChibiOS//os/hal/include/hal_ioblock.h"
 1271              		.file 26 "../../lib/e-puck2_main-processor/ChibiOS//os/hal/ports/STM32/LLD/GPIOv2/pal_lld.h"
 1272              		.file 27 "../../lib/e-puck2_main-processor/ChibiOS//os/hal/include/adc.h"
 1273              		.file 28 "../../lib/e-puck2_main-processor/ChibiOS//os/hal/ports/STM32/STM32F4xx/adc_lld.h"
 1274              		.file 29 "../../lib/e-puck2_main-processor/ChibiOS//os/hal/include/can.h"
 1275              		.file 30 "../../lib/e-puck2_main-processor/ChibiOS//os/hal/ports/STM32/LLD/can_lld.h"
 1276              		.file 31 "../../lib/e-puck2_main-processor/ChibiOS//os/hal/include/dac.h"
 1277              		.file 32 "../../lib/e-puck2_main-processor/ChibiOS//os/hal/ports/STM32/LLD/DACv1/dac_lld.h"
 1278              		.file 33 "../../lib/e-puck2_main-processor/ChibiOS//os/hal/include/ext.h"
 1279              		.file 34 "../../lib/e-puck2_main-processor/ChibiOS//os/hal/ports/STM32/LLD/ext_lld.h"
 1280              		.file 35 "../../lib/e-puck2_main-processor/ChibiOS//os/hal/include/gpt.h"
 1281              		.file 36 "../../lib/e-puck2_main-processor/ChibiOS//os/hal/ports/STM32/LLD/TIMv1/gpt_lld.h"
 1282              		.file 37 "../../lib/e-puck2_main-processor/ChibiOS//os/hal/ports/STM32/LLD/TIMv1/stm32_tim.h"
 1283              		.file 38 "../../lib/e-puck2_main-processor/ChibiOS//os/hal/include/i2c.h"
 1284              		.file 39 "../../lib/e-puck2_main-processor/ChibiOS//os/hal/ports/STM32/LLD/I2Cv1/i2c_lld.h"
 1285              		.file 40 "../../lib/e-puck2_main-processor/ChibiOS//os/hal/include/i2s.h"
 1286              		.file 41 "../../lib/e-puck2_main-processor/ChibiOS//os/hal/ports/STM32/LLD/SPIv1/i2s_lld.h"
 1287              		.file 42 "../../lib/e-puck2_main-processor/ChibiOS//os/hal/include/pwm.h"
 1288              		.file 43 "../../lib/e-puck2_main-processor/ChibiOS//os/hal/ports/STM32/LLD/TIMv1/pwm_lld.h"
 1289              		.file 44 "../../lib/e-puck2_main-processor/ChibiOS//os/hal/include/serial.h"
 1290              		.file 45 "../../lib/e-puck2_main-processor/ChibiOS//os/hal/ports/STM32/LLD/USARTv1/serial_lld.h"
 1291              		.file 46 "../../lib/e-puck2_main-processor/ChibiOS//os/hal/include/sdc.h"
 1292              		.file 47 "../../lib/e-puck2_main-processor/ChibiOS//os/hal/ports/STM32/LLD/sdc_lld.h"
 1293              		.file 48 "../../lib/e-puck2_main-processor/ChibiOS//os/hal/include/spi.h"
 1294              		.file 49 "../../lib/e-puck2_main-processor/ChibiOS//os/hal/ports/STM32/LLD/SPIv1/spi_lld.h"
 1295              		.file 50 "../../lib/e-puck2_main-processor/ChibiOS//os/hal/include/usb.h"
 1296              		.file 51 "../../lib/e-puck2_main-processor/ChibiOS//os/hal/ports/STM32/LLD/OTGv1/usb_lld.h"
 1297              		.file 52 "../../lib/e-puck2_main-processor/ChibiOS//os/hal/ports/STM32/LLD/OTGv1/stm32_otg.h"
 1298              		.file 53 "../../lib/e-puck2_main-processor/ChibiOS//os/rt/include/chthreads.h"