ARM GAS  C:\Users\shadi\AppData\Local\Temp\ccMFDghW.s 			page 1


   1              		.cpu cortex-m4
   2              		.eabi_attribute 27, 1
   3              		.eabi_attribute 28, 1
   4              		.eabi_attribute 20, 1
   5              		.eabi_attribute 21, 1
   6              		.eabi_attribute 23, 3
   7              		.eabi_attribute 24, 1
   8              		.eabi_attribute 25, 1
   9              		.eabi_attribute 26, 1
  10              		.eabi_attribute 30, 2
  11              		.eabi_attribute 34, 1
  12              		.eabi_attribute 18, 4
  13              		.file	"utility.c"
  14              		.text
  15              	.Ltext0:
  16              		.cfi_sections	.debug_frame
  17              		.section	.text.wait,"ax",%progbits
  18              		.align	1
  19              		.p2align 4,,15
  20              		.global	wait
  21              		.syntax unified
  22              		.thumb
  23              		.thumb_func
  24              		.fpu fpv4-sp-d16
  25              		.type	wait, %function
  26              	wait:
  27              	.LFB256:
  28              		.file 1 "../../lib/e-puck2_main-processor/src/epuck1x/utility/utility.c"
  29              		.loc 1 12 0
  30              		.cfi_startproc
  31              		@ args = 0, pretend = 0, frame = 8
  32              		@ frame_needed = 0, uses_anonymous_args = 0
  33              	.LVL0:
  34 0000 00B5     		push	{lr}
  35              		.cfi_def_cfa_offset 4
  36              		.cfi_offset 14, -4
  37 0002 0C4A     		ldr	r2, .L9
  38 0004 83B0     		sub	sp, sp, #12
  39              		.cfi_def_cfa_offset 16
  40              		.loc 1 12 0
  41 0006 1168     		ldr	r1, [r2]
  42 0008 0191     		str	r1, [sp, #4]
  43              		.loc 1 14 0
  44 000a 0023     		movs	r3, #0
  45 000c 0093     		str	r3, [sp]
  46 000e 009B     		ldr	r3, [sp]
  47 0010 9842     		cmp	r0, r3
  48 0012 05DD     		ble	.L1
  49              	.L3:
  50              		.loc 1 14 0 is_stmt 0 discriminator 3
  51 0014 009B     		ldr	r3, [sp]
  52 0016 0133     		adds	r3, r3, #1
  53 0018 0093     		str	r3, [sp]
  54 001a 009B     		ldr	r3, [sp]
  55 001c 8342     		cmp	r3, r0
  56 001e F9DB     		blt	.L3
  57              	.L1:
ARM GAS  C:\Users\shadi\AppData\Local\Temp\ccMFDghW.s 			page 2


  58              		.loc 1 15 0 is_stmt 1
  59 0020 0199     		ldr	r1, [sp, #4]
  60 0022 1368     		ldr	r3, [r2]
  61 0024 9942     		cmp	r1, r3
  62 0026 02D1     		bne	.L8
  63 0028 03B0     		add	sp, sp, #12
  64              		.cfi_remember_state
  65              		.cfi_def_cfa_offset 4
  66              		@ sp needed
  67 002a 5DF804FB 		ldr	pc, [sp], #4
  68              	.L8:
  69              		.cfi_restore_state
  70 002e FFF7FEFF 		bl	__stack_chk_fail
  71              	.LVL1:
  72              	.L10:
  73 0032 00BF     		.align	2
  74              	.L9:
  75 0034 00000000 		.word	__stack_chk_guard
  76              		.cfi_endproc
  77              	.LFE256:
  78              		.size	wait, .-wait
  79              		.section	.text.getselector,"ax",%progbits
  80              		.align	1
  81              		.p2align 4,,15
  82              		.global	getselector
  83              		.syntax unified
  84              		.thumb
  85              		.thumb_func
  86              		.fpu fpv4-sp-d16
  87              		.type	getselector, %function
  88              	getselector:
  89              	.LFB257:
  90              		.loc 1 17 0
  91              		.cfi_startproc
  92              		@ args = 0, pretend = 0, frame = 8
  93              		@ frame_needed = 0, uses_anonymous_args = 0
  94 0000 00B5     		push	{lr}
  95              		.cfi_def_cfa_offset 4
  96              		.cfi_offset 14, -4
  97 0002 074B     		ldr	r3, .L16
  98 0004 83B0     		sub	sp, sp, #12
  99              		.cfi_def_cfa_offset 16
 100              		.loc 1 17 0
 101 0006 1A68     		ldr	r2, [r3]
 102 0008 0192     		str	r2, [sp, #4]
 103              		.loc 1 18 0
 104 000a 019A     		ldr	r2, [sp, #4]
 105 000c 1B68     		ldr	r3, [r3]
 106 000e 9A42     		cmp	r2, r3
 107 0010 04D1     		bne	.L15
 108              		.loc 1 19 0
 109 0012 03B0     		add	sp, sp, #12
 110              		.cfi_remember_state
 111              		.cfi_def_cfa_offset 4
 112              		@ sp needed
 113 0014 5DF804EB 		ldr	lr, [sp], #4
 114              		.cfi_restore 14
ARM GAS  C:\Users\shadi\AppData\Local\Temp\ccMFDghW.s 			page 3


 115              		.cfi_def_cfa_offset 0
 116              		.loc 1 18 0
 117 0018 FFF7FEBF 		b	get_selector
 118              	.LVL2:
 119              	.L15:
 120              		.cfi_restore_state
 121 001c FFF7FEFF 		bl	__stack_chk_fail
 122              	.LVL3:
 123              	.L17:
 124              		.align	2
 125              	.L16:
 126 0020 00000000 		.word	__stack_chk_guard
 127              		.cfi_endproc
 128              	.LFE257:
 129              		.size	getselector, .-getselector
 130              		.section	.text.getBatteryValueRaw,"ax",%progbits
 131              		.align	1
 132              		.p2align 4,,15
 133              		.global	getBatteryValueRaw
 134              		.syntax unified
 135              		.thumb
 136              		.thumb_func
 137              		.fpu fpv4-sp-d16
 138              		.type	getBatteryValueRaw, %function
 139              	getBatteryValueRaw:
 140              	.LFB258:
 141              		.loc 1 21 0
 142              		.cfi_startproc
 143              		@ args = 0, pretend = 0, frame = 8
 144              		@ frame_needed = 0, uses_anonymous_args = 0
 145 0000 10B5     		push	{r4, lr}
 146              		.cfi_def_cfa_offset 8
 147              		.cfi_offset 4, -8
 148              		.cfi_offset 14, -4
 149 0002 074C     		ldr	r4, .L22
 150 0004 82B0     		sub	sp, sp, #8
 151              		.cfi_def_cfa_offset 16
 152              		.loc 1 21 0
 153 0006 2368     		ldr	r3, [r4]
 154 0008 0193     		str	r3, [sp, #4]
 155              		.loc 1 22 0
 156 000a FFF7FEFF 		bl	get_battery_raw
 157              	.LVL4:
 158              		.loc 1 23 0
 159 000e 019A     		ldr	r2, [sp, #4]
 160 0010 2368     		ldr	r3, [r4]
 161 0012 9A42     		cmp	r2, r3
 162 0014 01D1     		bne	.L21
 163 0016 02B0     		add	sp, sp, #8
 164              		.cfi_remember_state
 165              		.cfi_def_cfa_offset 8
 166              		@ sp needed
 167 0018 10BD     		pop	{r4, pc}
 168              	.L21:
 169              		.cfi_restore_state
 170 001a FFF7FEFF 		bl	__stack_chk_fail
 171              	.LVL5:
ARM GAS  C:\Users\shadi\AppData\Local\Temp\ccMFDghW.s 			page 4


 172              	.L23:
 173 001e 00BF     		.align	2
 174              	.L22:
 175 0020 00000000 		.word	__stack_chk_guard
 176              		.cfi_endproc
 177              	.LFE258:
 178              		.size	getBatteryValueRaw, .-getBatteryValueRaw
 179              		.section	.text.getBatteryValueVoltage,"ax",%progbits
 180              		.align	1
 181              		.p2align 4,,15
 182              		.global	getBatteryValueVoltage
 183              		.syntax unified
 184              		.thumb
 185              		.thumb_func
 186              		.fpu fpv4-sp-d16
 187              		.type	getBatteryValueVoltage, %function
 188              	getBatteryValueVoltage:
 189              	.LFB259:
 190              		.loc 1 25 0
 191              		.cfi_startproc
 192              		@ args = 0, pretend = 0, frame = 8
 193              		@ frame_needed = 0, uses_anonymous_args = 0
 194 0000 00B5     		push	{lr}
 195              		.cfi_def_cfa_offset 4
 196              		.cfi_offset 14, -4
 197 0002 074B     		ldr	r3, .L29
 198 0004 83B0     		sub	sp, sp, #12
 199              		.cfi_def_cfa_offset 16
 200              		.loc 1 25 0
 201 0006 1A68     		ldr	r2, [r3]
 202 0008 0192     		str	r2, [sp, #4]
 203              		.loc 1 26 0
 204 000a 019A     		ldr	r2, [sp, #4]
 205 000c 1B68     		ldr	r3, [r3]
 206 000e 9A42     		cmp	r2, r3
 207 0010 04D1     		bne	.L28
 208              		.loc 1 27 0
 209 0012 03B0     		add	sp, sp, #12
 210              		.cfi_remember_state
 211              		.cfi_def_cfa_offset 4
 212              		@ sp needed
 213 0014 5DF804EB 		ldr	lr, [sp], #4
 214              		.cfi_restore 14
 215              		.cfi_def_cfa_offset 0
 216              		.loc 1 26 0
 217 0018 FFF7FEBF 		b	get_battery_voltage
 218              	.LVL6:
 219              	.L28:
 220              		.cfi_restore_state
 221 001c FFF7FEFF 		bl	__stack_chk_fail
 222              	.LVL7:
 223              	.L30:
 224              		.align	2
 225              	.L29:
 226 0020 00000000 		.word	__stack_chk_guard
 227              		.cfi_endproc
 228              	.LFE259:
ARM GAS  C:\Users\shadi\AppData\Local\Temp\ccMFDghW.s 			page 5


 229              		.size	getBatteryValueVoltage, .-getBatteryValueVoltage
 230              		.section	.text.getBatteryValuePercentage,"ax",%progbits
 231              		.align	1
 232              		.p2align 4,,15
 233              		.global	getBatteryValuePercentage
 234              		.syntax unified
 235              		.thumb
 236              		.thumb_func
 237              		.fpu fpv4-sp-d16
 238              		.type	getBatteryValuePercentage, %function
 239              	getBatteryValuePercentage:
 240              	.LFB260:
 241              		.loc 1 29 0
 242              		.cfi_startproc
 243              		@ args = 0, pretend = 0, frame = 8
 244              		@ frame_needed = 0, uses_anonymous_args = 0
 245 0000 10B5     		push	{r4, lr}
 246              		.cfi_def_cfa_offset 8
 247              		.cfi_offset 4, -8
 248              		.cfi_offset 14, -4
 249 0002 094C     		ldr	r4, .L35
 250 0004 82B0     		sub	sp, sp, #8
 251              		.cfi_def_cfa_offset 16
 252              		.loc 1 29 0
 253 0006 2368     		ldr	r3, [r4]
 254 0008 0193     		str	r3, [sp, #4]
 255              		.loc 1 30 0
 256 000a FFF7FEFF 		bl	get_battery_percentage
 257              	.LVL8:
 258              		.loc 1 31 0
 259 000e 019A     		ldr	r2, [sp, #4]
 260 0010 2368     		ldr	r3, [r4]
 261 0012 9A42     		cmp	r2, r3
 262 0014 05D1     		bne	.L34
 263 0016 FCEEC07A 		vcvt.u32.f32	s15, s0
 264 001a 17EE900A 		vmov	r0, s15	@ int
 265 001e 02B0     		add	sp, sp, #8
 266              		.cfi_remember_state
 267              		.cfi_def_cfa_offset 8
 268              		@ sp needed
 269 0020 10BD     		pop	{r4, pc}
 270              	.L34:
 271              		.cfi_restore_state
 272 0022 FFF7FEFF 		bl	__stack_chk_fail
 273              	.LVL9:
 274              	.L36:
 275 0026 00BF     		.align	2
 276              	.L35:
 277 0028 00000000 		.word	__stack_chk_guard
 278              		.cfi_endproc
 279              	.LFE260:
 280              		.size	getBatteryValuePercentage, .-getBatteryValuePercentage
 281              		.section	.text.resetTime,"ax",%progbits
 282              		.align	1
 283              		.p2align 4,,15
 284              		.global	resetTime
 285              		.syntax unified
ARM GAS  C:\Users\shadi\AppData\Local\Temp\ccMFDghW.s 			page 6


 286              		.thumb
 287              		.thumb_func
 288              		.fpu fpv4-sp-d16
 289              		.type	resetTime, %function
 290              	resetTime:
 291              	.LFB261:
 292              		.loc 1 33 0
 293              		.cfi_startproc
 294              		@ args = 0, pretend = 0, frame = 8
 295              		@ frame_needed = 0, uses_anonymous_args = 0
 296 0000 00B5     		push	{lr}
 297              		.cfi_def_cfa_offset 4
 298              		.cfi_offset 14, -4
 299 0002 084B     		ldr	r3, .L41
 300              	.LBB10:
 301              	.LBB11:
 302              		.file 2 "../../lib/e-puck2_main-processor/ChibiOS//os/rt/ports/ARMCMx/chcore_v7m.h"
 303              		.loc 2 548 0
 304 0004 084A     		ldr	r2, .L41+4
 305              	.LBE11:
 306              	.LBE10:
 307              		.loc 1 33 0
 308 0006 1968     		ldr	r1, [r3]
 309 0008 83B0     		sub	sp, sp, #12
 310              		.cfi_def_cfa_offset 16
 311              		.loc 1 33 0
 312 000a 0191     		str	r1, [sp, #4]
 313              	.LBB13:
 314              	.LBB12:
 315              		.loc 2 548 0
 316 000c 5068     		ldr	r0, [r2, #4]
 317              	.LBE12:
 318              	.LBE13:
 319              		.loc 1 35 0
 320 000e 019A     		ldr	r2, [sp, #4]
 321 0010 1B68     		ldr	r3, [r3]
 322              		.loc 1 34 0
 323 0012 0649     		ldr	r1, .L41+8
 324              		.loc 1 35 0
 325 0014 9A42     		cmp	r2, r3
 326              		.loc 1 34 0
 327 0016 0860     		str	r0, [r1]
 328              		.loc 1 35 0
 329 0018 02D1     		bne	.L40
 330 001a 03B0     		add	sp, sp, #12
 331              		.cfi_remember_state
 332              		.cfi_def_cfa_offset 4
 333              		@ sp needed
 334 001c 5DF804FB 		ldr	pc, [sp], #4
 335              	.L40:
 336              		.cfi_restore_state
 337 0020 FFF7FEFF 		bl	__stack_chk_fail
 338              	.LVL10:
 339              	.L42:
 340              		.align	2
 341              	.L41:
 342 0024 00000000 		.word	__stack_chk_guard
ARM GAS  C:\Users\shadi\AppData\Local\Temp\ccMFDghW.s 			page 7


 343 0028 001000E0 		.word	-536866816
 344 002c 00000000 		.word	.LANCHOR0
 345              		.cfi_endproc
 346              	.LFE261:
 347              		.size	resetTime, .-resetTime
 348              		.section	.text.getDiffTimeMs,"ax",%progbits
 349              		.align	1
 350              		.p2align 4,,15
 351              		.global	getDiffTimeMs
 352              		.syntax unified
 353              		.thumb
 354              		.thumb_func
 355              		.fpu fpv4-sp-d16
 356              		.type	getDiffTimeMs, %function
 357              	getDiffTimeMs:
 358              	.LFB262:
 359              		.loc 1 38 0
 360              		.cfi_startproc
 361              		@ args = 0, pretend = 0, frame = 8
 362              		@ frame_needed = 0, uses_anonymous_args = 0
 363 0000 10B5     		push	{r4, lr}
 364              		.cfi_def_cfa_offset 8
 365              		.cfi_offset 4, -8
 366              		.cfi_offset 14, -4
 367 0002 104A     		ldr	r2, .L47
 368              	.LBB14:
 369              	.LBB15:
 370              		.loc 2 548 0
 371 0004 104B     		ldr	r3, .L47+4
 372              	.LBE15:
 373              	.LBE14:
 374              		.loc 1 38 0
 375 0006 1168     		ldr	r1, [r2]
 376              		.loc 1 39 0
 377 0008 1048     		ldr	r0, .L47+8
 378 000a DFED117A 		vldr.32	s15, .L47+12
 379              		.loc 1 38 0
 380 000e 82B0     		sub	sp, sp, #8
 381              		.cfi_def_cfa_offset 16
 382              		.loc 1 38 0
 383 0010 0191     		str	r1, [sp, #4]
 384              		.loc 1 39 0
 385 0012 1049     		ldr	r1, .L47+16
 386              	.LBB17:
 387              	.LBB16:
 388              		.loc 2 548 0
 389 0014 5B68     		ldr	r3, [r3, #4]
 390              	.LBE16:
 391              	.LBE17:
 392              		.loc 1 39 0
 393 0016 0C68     		ldr	r4, [r1]
 394              		.loc 1 40 0
 395 0018 0199     		ldr	r1, [sp, #4]
 396 001a 1268     		ldr	r2, [r2]
 397              		.loc 1 39 0
 398 001c 013B     		subs	r3, r3, #1
 399 001e 1B1B     		subs	r3, r3, r4
ARM GAS  C:\Users\shadi\AppData\Local\Temp\ccMFDghW.s 			page 8


 400 0020 DB08     		lsrs	r3, r3, #3
 401 0022 A0FB0303 		umull	r0, r3, r0, r3
 402 0026 5B08     		lsrs	r3, r3, #1
 403 0028 0133     		adds	r3, r3, #1
 404 002a 00EE103A 		vmov	s0, r3	@ int
 405 002e B8EEC00A 		vcvt.f32.s32	s0, s0
 406              		.loc 1 40 0
 407 0032 9142     		cmp	r1, r2
 408 0034 80EE270A 		vdiv.f32	s0, s0, s15
 409 0038 01D1     		bne	.L46
 410 003a 02B0     		add	sp, sp, #8
 411              		.cfi_remember_state
 412              		.cfi_def_cfa_offset 8
 413              		@ sp needed
 414 003c 10BD     		pop	{r4, pc}
 415              	.L46:
 416              		.cfi_restore_state
 417 003e FFF7FEFF 		bl	__stack_chk_fail
 418              	.LVL11:
 419              	.L48:
 420 0042 00BF     		.align	2
 421              	.L47:
 422 0044 00000000 		.word	__stack_chk_guard
 423 0048 001000E0 		.word	-536866816
 424 004c 19866118 		.word	409044505
 425 0050 00007A44 		.word	1148846080
 426 0054 00000000 		.word	.LANCHOR0
 427              		.cfi_endproc
 428              	.LFE262:
 429              		.size	getDiffTimeMs, .-getDiffTimeMs
 430              		.section	.text.getDiffTimeMsAndReset,"ax",%progbits
 431              		.align	1
 432              		.p2align 4,,15
 433              		.global	getDiffTimeMsAndReset
 434              		.syntax unified
 435              		.thumb
 436              		.thumb_func
 437              		.fpu fpv4-sp-d16
 438              		.type	getDiffTimeMsAndReset, %function
 439              	getDiffTimeMsAndReset:
 440              	.LFB263:
 441              		.loc 1 42 0
 442              		.cfi_startproc
 443              		@ args = 0, pretend = 0, frame = 8
 444              		@ frame_needed = 0, uses_anonymous_args = 0
 445 0000 10B5     		push	{r4, lr}
 446              		.cfi_def_cfa_offset 8
 447              		.cfi_offset 4, -8
 448              		.cfi_offset 14, -4
 449 0002 114A     		ldr	r2, .L53
 450              	.LBB18:
 451              	.LBB19:
 452              		.loc 2 548 0
 453 0004 1148     		ldr	r0, .L53+4
 454              	.LBE19:
 455              	.LBE18:
 456              		.loc 1 42 0
ARM GAS  C:\Users\shadi\AppData\Local\Temp\ccMFDghW.s 			page 9


 457 0006 1368     		ldr	r3, [r2]
 458              		.loc 1 43 0
 459 0008 1149     		ldr	r1, .L53+8
 460 000a DFED127A 		vldr.32	s15, .L53+12
 461 000e 0C68     		ldr	r4, [r1]
 462              		.loc 1 42 0
 463 0010 82B0     		sub	sp, sp, #8
 464              		.cfi_def_cfa_offset 16
 465              		.loc 1 42 0
 466 0012 0193     		str	r3, [sp, #4]
 467              	.LBB21:
 468              	.LBB20:
 469              		.loc 2 548 0
 470 0014 4368     		ldr	r3, [r0, #4]
 471              	.LBE20:
 472              	.LBE21:
 473              	.LBB22:
 474              	.LBB23:
 475 0016 4068     		ldr	r0, [r0, #4]
 476              	.LBE23:
 477              	.LBE22:
 478              		.loc 1 44 0
 479 0018 0860     		str	r0, [r1]
 480              		.loc 1 43 0
 481 001a 013B     		subs	r3, r3, #1
 482 001c 1B1B     		subs	r3, r3, r4
 483 001e 0E48     		ldr	r0, .L53+16
 484              		.loc 1 46 0
 485 0020 0199     		ldr	r1, [sp, #4]
 486 0022 1268     		ldr	r2, [r2]
 487              		.loc 1 43 0
 488 0024 DB08     		lsrs	r3, r3, #3
 489 0026 A0FB0303 		umull	r0, r3, r0, r3
 490 002a 5B08     		lsrs	r3, r3, #1
 491 002c 0133     		adds	r3, r3, #1
 492 002e 00EE103A 		vmov	s0, r3	@ int
 493 0032 B8EEC00A 		vcvt.f32.s32	s0, s0
 494              	.LVL12:
 495              		.loc 1 46 0
 496 0036 9142     		cmp	r1, r2
 497 0038 80EE270A 		vdiv.f32	s0, s0, s15
 498              	.LVL13:
 499 003c 01D1     		bne	.L52
 500 003e 02B0     		add	sp, sp, #8
 501              		.cfi_remember_state
 502              		.cfi_def_cfa_offset 8
 503              		@ sp needed
 504 0040 10BD     		pop	{r4, pc}
 505              	.L52:
 506              		.cfi_restore_state
 507 0042 FFF7FEFF 		bl	__stack_chk_fail
 508              	.LVL14:
 509              	.L54:
 510 0046 00BF     		.align	2
 511              	.L53:
 512 0048 00000000 		.word	__stack_chk_guard
 513 004c 001000E0 		.word	-536866816
ARM GAS  C:\Users\shadi\AppData\Local\Temp\ccMFDghW.s 			page 10


 514 0050 00000000 		.word	.LANCHOR0
 515 0054 00007A44 		.word	1148846080
 516 0058 19866118 		.word	409044505
 517              		.cfi_endproc
 518              	.LFE263:
 519              		.size	getDiffTimeMsAndReset, .-getDiffTimeMsAndReset
 520              		.global	tickAdcIsr
 521              		.section	.bss.tickAdcIsr,"aw",%nobits
 522              		.align	2
 523              		.set	.LANCHOR0,. + 0
 524              		.type	tickAdcIsr, %object
 525              		.size	tickAdcIsr, 4
 526              	tickAdcIsr:
 527 0000 00000000 		.space	4
 528              		.text
 529              	.Letext0:
 530              		.file 3 "c:\\users\\shadi\\downloads\\eclipse_e-puck2\\tools\\gcc-arm-none-eabi-7-2017-q4-major-wi
 531              		.file 4 "c:\\users\\shadi\\downloads\\eclipse_e-puck2\\tools\\gcc-arm-none-eabi-7-2017-q4-major-wi
 532              		.file 5 "c:\\users\\shadi\\downloads\\eclipse_e-puck2\\tools\\gcc-arm-none-eabi-7-2017-q4-major-wi
 533              		.file 6 "../../lib/e-puck2_main-processor/ChibiOS//os/rt/ports/ARMCMx/compilers/GCC/chtypes.h"
 534              		.file 7 "../../lib/e-puck2_main-processor/ChibiOS//os/rt/include/chsystypes.h"
 535              		.file 8 "../../lib/e-puck2_main-processor/ChibiOS//os/rt/include/chschd.h"
 536              		.file 9 "../../lib/e-puck2_main-processor/ChibiOS//os/ext/CMSIS/include/core_cm4.h"
 537              		.file 10 "../../lib/e-puck2_main-processor/ChibiOS//os/ext/CMSIS/ST/system_stm32f4xx.h"
 538              		.file 11 "../../lib/e-puck2_main-processor/ChibiOS//os/ext/CMSIS/ST/stm32f407xx.h"
 539              		.file 12 "../../lib/e-puck2_main-processor/ChibiOS//os/rt/ports/ARMCMx/chcore.h"
 540              		.file 13 "../../lib/e-puck2_main-processor/ChibiOS//os/rt/include/chdebug.h"
 541              		.file 14 "../../lib/e-puck2_main-processor/ChibiOS//os/rt/include/chtm.h"
 542              		.file 15 "../../lib/e-puck2_main-processor/ChibiOS//os/rt/include/chstats.h"
 543              		.file 16 "../../lib/e-puck2_main-processor/ChibiOS//os/rt/include/chsem.h"
 544              		.file 17 "../../lib/e-puck2_main-processor/ChibiOS//os/rt/include/chmtx.h"
 545              		.file 18 "../../lib/e-puck2_main-processor/ChibiOS//os/rt/include/chregistry.h"
 546              		.file 19 "../../lib/e-puck2_main-processor/ChibiOS//os/rt/include/chevents.h"
 547              		.file 20 "../../lib/e-puck2_main-processor/ChibiOS//os/rt/include/chqueues.h"
 548              		.file 21 "../../lib/e-puck2_main-processor/ChibiOS//os/hal/ports/STM32/STM32F4xx/stm32_dma.h"
 549              		.file 22 "../../lib/e-puck2_main-processor/ChibiOS//os/hal/include/hal_ioblock.h"
 550              		.file 23 "../../lib/e-puck2_main-processor/ChibiOS//os/hal/ports/STM32/LLD/GPIOv2/pal_lld.h"
 551              		.file 24 "../../lib/e-puck2_main-processor/ChibiOS//os/hal/include/adc.h"
 552              		.file 25 "../../lib/e-puck2_main-processor/ChibiOS//os/hal/ports/STM32/STM32F4xx/adc_lld.h"
 553              		.file 26 "../../lib/e-puck2_main-processor/ChibiOS//os/hal/include/can.h"
 554              		.file 27 "../../lib/e-puck2_main-processor/ChibiOS//os/hal/ports/STM32/LLD/can_lld.h"
 555              		.file 28 "../../lib/e-puck2_main-processor/ChibiOS//os/hal/include/dac.h"
 556              		.file 29 "../../lib/e-puck2_main-processor/ChibiOS//os/hal/ports/STM32/LLD/DACv1/dac_lld.h"
 557              		.file 30 "../../lib/e-puck2_main-processor/ChibiOS//os/hal/include/ext.h"
 558              		.file 31 "../../lib/e-puck2_main-processor/ChibiOS//os/hal/ports/STM32/LLD/ext_lld.h"
 559              		.file 32 "../../lib/e-puck2_main-processor/ChibiOS//os/hal/include/gpt.h"
 560              		.file 33 "../../lib/e-puck2_main-processor/ChibiOS//os/hal/ports/STM32/LLD/TIMv1/gpt_lld.h"
 561              		.file 34 "../../lib/e-puck2_main-processor/ChibiOS//os/hal/ports/STM32/LLD/TIMv1/stm32_tim.h"
 562              		.file 35 "../../lib/e-puck2_main-processor/ChibiOS//os/hal/include/i2c.h"
 563              		.file 36 "../../lib/e-puck2_main-processor/ChibiOS//os/hal/ports/STM32/LLD/I2Cv1/i2c_lld.h"
 564              		.file 37 "../../lib/e-puck2_main-processor/ChibiOS//os/hal/include/i2s.h"
 565              		.file 38 "../../lib/e-puck2_main-processor/ChibiOS//os/hal/ports/STM32/LLD/SPIv1/i2s_lld.h"
 566              		.file 39 "../../lib/e-puck2_main-processor/ChibiOS//os/hal/include/pwm.h"
 567              		.file 40 "../../lib/e-puck2_main-processor/ChibiOS//os/hal/ports/STM32/LLD/TIMv1/pwm_lld.h"
 568              		.file 41 "../../lib/e-puck2_main-processor/ChibiOS//os/hal/include/serial.h"
 569              		.file 42 "../../lib/e-puck2_main-processor/ChibiOS//os/hal/ports/STM32/LLD/USARTv1/serial_lld.h"
 570              		.file 43 "../../lib/e-puck2_main-processor/ChibiOS//os/hal/include/sdc.h"
ARM GAS  C:\Users\shadi\AppData\Local\Temp\ccMFDghW.s 			page 11


 571              		.file 44 "../../lib/e-puck2_main-processor/ChibiOS//os/hal/ports/STM32/LLD/sdc_lld.h"
 572              		.file 45 "../../lib/e-puck2_main-processor/ChibiOS//os/hal/include/spi.h"
 573              		.file 46 "../../lib/e-puck2_main-processor/ChibiOS//os/hal/ports/STM32/LLD/SPIv1/spi_lld.h"
 574              		.file 47 "../../lib/e-puck2_main-processor/ChibiOS//os/hal/include/usb.h"
 575              		.file 48 "../../lib/e-puck2_main-processor/ChibiOS//os/hal/ports/STM32/LLD/OTGv1/usb_lld.h"
 576              		.file 49 "../../lib/e-puck2_main-processor/ChibiOS//os/hal/ports/STM32/LLD/OTGv1/stm32_otg.h"
 577              		.file 50 "../../lib/e-puck2_main-processor/src/epuck1x/../sensors/battery_level.h"
 578              		.file 51 "../../lib/e-puck2_main-processor/src/epuck1x/../selector.h"