ARM GAS  C:\Users\shadi\AppData\Local\Temp\ccNtNRPv.s 			page 1


   1              		.cpu cortex-m4
   2              		.eabi_attribute 27, 1
   3              		.eabi_attribute 28, 1
   4              		.eabi_attribute 20, 1
   5              		.eabi_attribute 21, 1
   6              		.eabi_attribute 23, 3
   7              		.eabi_attribute 24, 1
   8              		.eabi_attribute 25, 1
   9              		.eabi_attribute 26, 1
  10              		.eabi_attribute 30, 2
  11              		.eabi_attribute 34, 1
  12              		.eabi_attribute 18, 4
  13              		.file	"vl53l0x_i2c_platform.c"
  14              		.text
  15              	.Ltext0:
  16              		.cfi_sections	.debug_frame
  17              		.section	.text.VL53L0X_write_multi,"ax",%progbits
  18              		.align	1
  19              		.p2align 4,,15
  20              		.global	VL53L0X_write_multi
  21              		.syntax unified
  22              		.thumb
  23              		.thumb_func
  24              		.fpu fpv4-sp-d16
  25              		.type	VL53L0X_write_multi, %function
  26              	VL53L0X_write_multi:
  27              	.LFB256:
  28              		.file 1 "../../lib/e-puck2_main-processor/src/sensors/VL53L0X/Api/platform/src/vl53l0x_i2c_platfor
  29              		.loc 1 8 0
  30              		.cfi_startproc
  31              		@ args = 0, pretend = 0, frame = 40
  32              		@ frame_needed = 0, uses_anonymous_args = 0
  33              	.LVL0:
  34 0000 2DE9F043 		push	{r4, r5, r6, r7, r8, r9, lr}
  35              		.cfi_def_cfa_offset 28
  36              		.cfi_offset 4, -28
  37              		.cfi_offset 5, -24
  38              		.cfi_offset 6, -20
  39              		.cfi_offset 7, -16
  40              		.cfi_offset 8, -12
  41              		.cfi_offset 9, -8
  42              		.cfi_offset 14, -4
  43 0004 214E     		ldr	r6, .L17
  44 0006 8FB0     		sub	sp, sp, #60
  45              		.cfi_def_cfa_offset 88
  46              		.loc 1 15 0
  47 0008 5C1C     		adds	r4, r3, #1
  48              		.loc 1 17 0
  49 000a 8DF81410 		strb	r1, [sp, #20]
  50              		.loc 1 8 0
  51 000e 3168     		ldr	r1, [r6]
  52              	.LVL1:
  53 0010 0D91     		str	r1, [sp, #52]
  54 0012 0746     		mov	r7, r0
  55              	.LVL2:
  56              		.loc 1 15 0
  57 0014 5FFA84F9 		uxtb	r9, r4
ARM GAS  C:\Users\shadi\AppData\Local\Temp\ccNtNRPv.s 			page 2


  58              	.LVL3:
  59 0018 0DF11408 		add	r8, sp, #20
  60              	.LVL4:
  61              		.loc 1 19 0
  62 001c 3BB1     		cbz	r3, .L2
  63 001e D018     		adds	r0, r2, r3
  64              	.LVL5:
  65 0020 4444     		add	r4, r4, r8
  66              	.LVL6:
  67              	.L3:
  68              		.loc 1 20 0
  69 0022 10F8015D 		ldrb	r5, [r0, #-1]!	@ zero_extendqisi2
  70              	.LVL7:
  71 0026 04F8015D 		strb	r5, [r4, #-1]!
  72              	.LVL8:
  73              		.loc 1 19 0
  74 002a 9042     		cmp	r0, r2
  75 002c F9D1     		bne	.L3
  76              	.LVL9:
  77              	.L2:
  78              		.loc 1 23 0
  79 002e 184D     		ldr	r5, .L17+4
  80              		.loc 1 24 0
  81 0030 3224     		movs	r4, #50
  82              		.loc 1 23 0
  83 0032 2846     		mov	r0, r5
  84 0034 FFF7FEFF 		bl	i2cAcquireBus
  85              	.LVL10:
  86              		.loc 1 24 0
  87 0038 4FF0000C 		mov	ip, #0
  88 003c 0294     		str	r4, [sp, #8]
  89 003e 04AC     		add	r4, sp, #16
  90 0040 CDE9004C 		strd	r4, ip, [sp]
  91 0044 4B46     		mov	r3, r9
  92 0046 4246     		mov	r2, r8
  93 0048 7908     		lsrs	r1, r7, #1
  94 004a 2846     		mov	r0, r5
  95 004c FFF7FEFF 		bl	i2cMasterTransmitTimeout
  96              	.LVL11:
  97              		.loc 1 26 0
  98 0050 0446     		mov	r4, r0
  99 0052 50B9     		cbnz	r0, .L14
 100              		.loc 1 34 0
 101 0054 2846     		mov	r0, r5
 102              	.LVL12:
 103 0056 FFF7FEFF 		bl	i2cReleaseBus
 104              	.LVL13:
 105              		.loc 1 35 0
 106 005a 2046     		mov	r0, r4
 107              	.L1:
 108              		.loc 1 36 0
 109 005c 0D9A     		ldr	r2, [sp, #52]
 110 005e 3368     		ldr	r3, [r6]
 111 0060 9A42     		cmp	r2, r3
 112 0062 10D1     		bne	.L15
 113 0064 0FB0     		add	sp, sp, #60
 114              		.cfi_remember_state
ARM GAS  C:\Users\shadi\AppData\Local\Temp\ccNtNRPv.s 			page 3


 115              		.cfi_def_cfa_offset 28
 116              		@ sp needed
 117 0066 BDE8F083 		pop	{r4, r5, r6, r7, r8, r9, pc}
 118              	.LVL14:
 119              	.L14:
 120              		.cfi_restore_state
 121              	.LBB4:
 122              	.LBB5:
 123              		.loc 1 27 0
 124 006a 2B78     		ldrb	r3, [r5]	@ zero_extendqisi2
 125 006c 052B     		cmp	r3, #5
 126 006e 05D0     		beq	.L16
 127              	.LVL15:
 128              	.L5:
 129              		.loc 1 31 0
 130 0070 0748     		ldr	r0, .L17+4
 131 0072 FFF7FEFF 		bl	i2cReleaseBus
 132              	.LVL16:
 133 0076 6FF01300 		mvn	r0, #19
 134 007a EFE7     		b	.L1
 135              	.LVL17:
 136              	.L16:
 137              		.loc 1 28 0
 138 007c FFF7FEFF 		bl	i2c_stop
 139              	.LVL18:
 140              		.loc 1 29 0
 141 0080 FFF7FEFF 		bl	i2c_start
 142              	.LVL19:
 143 0084 F4E7     		b	.L5
 144              	.LVL20:
 145              	.L15:
 146              	.LBE5:
 147              	.LBE4:
 148              		.loc 1 36 0
 149 0086 FFF7FEFF 		bl	__stack_chk_fail
 150              	.LVL21:
 151              	.L18:
 152 008a 00BF     		.align	2
 153              	.L17:
 154 008c 00000000 		.word	__stack_chk_guard
 155 0090 00000000 		.word	I2CD1
 156              		.cfi_endproc
 157              	.LFE256:
 158              		.size	VL53L0X_write_multi, .-VL53L0X_write_multi
 159              		.section	.text.VL53L0X_read_multi,"ax",%progbits
 160              		.align	1
 161              		.p2align 4,,15
 162              		.global	VL53L0X_read_multi
 163              		.syntax unified
 164              		.thumb
 165              		.thumb_func
 166              		.fpu fpv4-sp-d16
 167              		.type	VL53L0X_read_multi, %function
 168              	VL53L0X_read_multi:
 169              	.LFB257:
 170              		.loc 1 38 0
 171              		.cfi_startproc
ARM GAS  C:\Users\shadi\AppData\Local\Temp\ccNtNRPv.s 			page 4


 172              		@ args = 0, pretend = 0, frame = 8
 173              		@ frame_needed = 0, uses_anonymous_args = 0
 174              	.LVL22:
 175 0000 2DE9F047 		push	{r4, r5, r6, r7, r8, r9, r10, lr}
 176              		.cfi_def_cfa_offset 32
 177              		.cfi_offset 4, -32
 178              		.cfi_offset 5, -28
 179              		.cfi_offset 6, -24
 180              		.cfi_offset 7, -20
 181              		.cfi_offset 8, -16
 182              		.cfi_offset 9, -12
 183              		.cfi_offset 10, -8
 184              		.cfi_offset 14, -4
 185 0004 1B4E     		ldr	r6, .L28
 186              		.loc 1 45 0
 187 0006 1C4D     		ldr	r5, .L28+4
 188              		.loc 1 38 0
 189 0008 3468     		ldr	r4, [r6]
 190 000a 86B0     		sub	sp, sp, #24
 191              		.cfi_def_cfa_offset 56
 192              		.loc 1 38 0
 193 000c 9146     		mov	r9, r2
 194 000e 0594     		str	r4, [sp, #20]
 195              		.loc 1 43 0
 196 0010 06AC     		add	r4, sp, #24
 197              		.loc 1 38 0
 198 0012 9A46     		mov	r10, r3
 199              		.loc 1 43 0
 200 0014 04F8081D 		strb	r1, [r4, #-8]!
 201              		.loc 1 38 0
 202 0018 8046     		mov	r8, r0
 203              	.LVL23:
 204              		.loc 1 46 0
 205 001a 3227     		movs	r7, #50
 206              		.loc 1 45 0
 207 001c 2846     		mov	r0, r5
 208              	.LVL24:
 209 001e FFF7FEFF 		bl	i2cAcquireBus
 210              	.LVL25:
 211              		.loc 1 46 0
 212 0022 CDF804A0 		str	r10, [sp, #4]
 213 0026 2246     		mov	r2, r4
 214 0028 CDF80090 		str	r9, [sp]
 215 002c 4FEA5801 		lsr	r1, r8, #1
 216 0030 2846     		mov	r0, r5
 217 0032 0297     		str	r7, [sp, #8]
 218 0034 0123     		movs	r3, #1
 219 0036 FFF7FEFF 		bl	i2cMasterTransmitTimeout
 220              	.LVL26:
 221              		.loc 1 48 0
 222 003a 58B9     		cbnz	r0, .L25
 223 003c 0446     		mov	r4, r0
 224              		.loc 1 56 0
 225 003e 2846     		mov	r0, r5
 226              	.LVL27:
 227 0040 FFF7FEFF 		bl	i2cReleaseBus
 228              	.LVL28:
ARM GAS  C:\Users\shadi\AppData\Local\Temp\ccNtNRPv.s 			page 5


 229              		.loc 1 57 0
 230 0044 2046     		mov	r0, r4
 231              	.LVL29:
 232              	.L19:
 233              		.loc 1 58 0
 234 0046 059A     		ldr	r2, [sp, #20]
 235 0048 3368     		ldr	r3, [r6]
 236 004a 9A42     		cmp	r2, r3
 237 004c 10D1     		bne	.L26
 238 004e 06B0     		add	sp, sp, #24
 239              		.cfi_remember_state
 240              		.cfi_def_cfa_offset 32
 241              		@ sp needed
 242 0050 BDE8F087 		pop	{r4, r5, r6, r7, r8, r9, r10, pc}
 243              	.LVL30:
 244              	.L25:
 245              		.cfi_restore_state
 246              	.LBB8:
 247              	.LBB9:
 248              		.loc 1 49 0
 249 0054 2B78     		ldrb	r3, [r5]	@ zero_extendqisi2
 250 0056 052B     		cmp	r3, #5
 251 0058 05D0     		beq	.L27
 252              	.LVL31:
 253              	.L21:
 254              		.loc 1 53 0
 255 005a 0748     		ldr	r0, .L28+4
 256 005c FFF7FEFF 		bl	i2cReleaseBus
 257              	.LVL32:
 258 0060 6FF01300 		mvn	r0, #19
 259 0064 EFE7     		b	.L19
 260              	.LVL33:
 261              	.L27:
 262              		.loc 1 50 0
 263 0066 FFF7FEFF 		bl	i2c_stop
 264              	.LVL34:
 265              		.loc 1 51 0
 266 006a FFF7FEFF 		bl	i2c_start
 267              	.LVL35:
 268 006e F4E7     		b	.L21
 269              	.LVL36:
 270              	.L26:
 271              	.LBE9:
 272              	.LBE8:
 273              		.loc 1 58 0
 274 0070 FFF7FEFF 		bl	__stack_chk_fail
 275              	.LVL37:
 276              	.L29:
 277              		.align	2
 278              	.L28:
 279 0074 00000000 		.word	__stack_chk_guard
 280 0078 00000000 		.word	I2CD1
 281              		.cfi_endproc
 282              	.LFE257:
 283              		.size	VL53L0X_read_multi, .-VL53L0X_read_multi
 284              		.section	.text.VL53L0X_write_byte,"ax",%progbits
 285              		.align	1
ARM GAS  C:\Users\shadi\AppData\Local\Temp\ccNtNRPv.s 			page 6


 286              		.p2align 4,,15
 287              		.global	VL53L0X_write_byte
 288              		.syntax unified
 289              		.thumb
 290              		.thumb_func
 291              		.fpu fpv4-sp-d16
 292              		.type	VL53L0X_write_byte, %function
 293              	VL53L0X_write_byte:
 294              	.LFB258:
 295              		.loc 1 60 0
 296              		.cfi_startproc
 297              		@ args = 0, pretend = 0, frame = 16
 298              		@ frame_needed = 0, uses_anonymous_args = 0
 299              	.LVL38:
 300 0000 10B5     		push	{r4, lr}
 301              		.cfi_def_cfa_offset 8
 302              		.cfi_offset 4, -8
 303              		.cfi_offset 14, -4
 304 0002 094C     		ldr	r4, .L34
 305 0004 84B0     		sub	sp, sp, #16
 306              		.cfi_def_cfa_offset 24
 307              		.loc 1 60 0
 308 0006 2368     		ldr	r3, [r4]
 309 0008 8DF80720 		strb	r2, [sp, #7]
 310 000c 0393     		str	r3, [sp, #12]
 311              		.loc 1 61 0
 312 000e 0DF10702 		add	r2, sp, #7
 313              	.LVL39:
 314 0012 0123     		movs	r3, #1
 315 0014 FFF7FEFF 		bl	VL53L0X_write_multi
 316              	.LVL40:
 317              		.loc 1 62 0
 318 0018 039A     		ldr	r2, [sp, #12]
 319 001a 2368     		ldr	r3, [r4]
 320 001c 9A42     		cmp	r2, r3
 321 001e 01D1     		bne	.L33
 322 0020 04B0     		add	sp, sp, #16
 323              		.cfi_remember_state
 324              		.cfi_def_cfa_offset 8
 325              		@ sp needed
 326 0022 10BD     		pop	{r4, pc}
 327              	.L33:
 328              		.cfi_restore_state
 329 0024 FFF7FEFF 		bl	__stack_chk_fail
 330              	.LVL41:
 331              	.L35:
 332              		.align	2
 333              	.L34:
 334 0028 00000000 		.word	__stack_chk_guard
 335              		.cfi_endproc
 336              	.LFE258:
 337              		.size	VL53L0X_write_byte, .-VL53L0X_write_byte
 338              		.section	.text.VL53L0X_write_word,"ax",%progbits
 339              		.align	1
 340              		.p2align 4,,15
 341              		.global	VL53L0X_write_word
 342              		.syntax unified
ARM GAS  C:\Users\shadi\AppData\Local\Temp\ccNtNRPv.s 			page 7


 343              		.thumb
 344              		.thumb_func
 345              		.fpu fpv4-sp-d16
 346              		.type	VL53L0X_write_word, %function
 347              	VL53L0X_write_word:
 348              	.LFB259:
 349              		.loc 1 64 0
 350              		.cfi_startproc
 351              		@ args = 0, pretend = 0, frame = 8
 352              		@ frame_needed = 0, uses_anonymous_args = 0
 353              	.LVL42:
 354 0000 10B5     		push	{r4, lr}
 355              		.cfi_def_cfa_offset 8
 356              		.cfi_offset 4, -8
 357              		.cfi_offset 14, -4
 358 0002 82B0     		sub	sp, sp, #8
 359              		.cfi_def_cfa_offset 16
 360              		.loc 1 67 0
 361 0004 02AB     		add	r3, sp, #8
 362 0006 140A     		lsrs	r4, r2, #8
 363 0008 03F8084D 		strb	r4, [r3, #-8]!
 364              		.loc 1 64 0
 365 000c 084C     		ldr	r4, .L40
 366              		.loc 1 66 0
 367 000e 8DF80120 		strb	r2, [sp, #1]
 368              		.loc 1 68 0
 369 0012 1A46     		mov	r2, r3
 370              	.LVL43:
 371              		.loc 1 64 0
 372 0014 2368     		ldr	r3, [r4]
 373 0016 0193     		str	r3, [sp, #4]
 374              		.loc 1 68 0
 375 0018 0223     		movs	r3, #2
 376 001a FFF7FEFF 		bl	VL53L0X_write_multi
 377              	.LVL44:
 378              		.loc 1 69 0
 379 001e 019A     		ldr	r2, [sp, #4]
 380 0020 2368     		ldr	r3, [r4]
 381 0022 9A42     		cmp	r2, r3
 382 0024 01D1     		bne	.L39
 383 0026 02B0     		add	sp, sp, #8
 384              		.cfi_remember_state
 385              		.cfi_def_cfa_offset 8
 386              		@ sp needed
 387 0028 10BD     		pop	{r4, pc}
 388              	.L39:
 389              		.cfi_restore_state
 390 002a FFF7FEFF 		bl	__stack_chk_fail
 391              	.LVL45:
 392              	.L41:
 393 002e 00BF     		.align	2
 394              	.L40:
 395 0030 00000000 		.word	__stack_chk_guard
 396              		.cfi_endproc
 397              	.LFE259:
 398              		.size	VL53L0X_write_word, .-VL53L0X_write_word
 399              		.section	.text.VL53L0X_write_dword,"ax",%progbits
ARM GAS  C:\Users\shadi\AppData\Local\Temp\ccNtNRPv.s 			page 8


 400              		.align	1
 401              		.p2align 4,,15
 402              		.global	VL53L0X_write_dword
 403              		.syntax unified
 404              		.thumb
 405              		.thumb_func
 406              		.fpu fpv4-sp-d16
 407              		.type	VL53L0X_write_dword, %function
 408              	VL53L0X_write_dword:
 409              	.LFB260:
 410              		.loc 1 71 0
 411              		.cfi_startproc
 412              		@ args = 0, pretend = 0, frame = 8
 413              		@ frame_needed = 0, uses_anonymous_args = 0
 414              	.LVL46:
 415 0000 30B5     		push	{r4, r5, lr}
 416              		.cfi_def_cfa_offset 12
 417              		.cfi_offset 4, -12
 418              		.cfi_offset 5, -8
 419              		.cfi_offset 14, -4
 420 0002 83B0     		sub	sp, sp, #12
 421              		.cfi_def_cfa_offset 24
 422              		.loc 1 71 0
 423 0004 1346     		mov	r3, r2
 424              		.loc 1 77 0
 425 0006 02AA     		add	r2, sp, #8
 426              	.LVL47:
 427 0008 1C0E     		lsrs	r4, r3, #24
 428 000a 02F8084D 		strb	r4, [r2, #-8]!
 429              		.loc 1 71 0
 430 000e 0B4C     		ldr	r4, .L46
 431              		.loc 1 74 0
 432 0010 8DF80330 		strb	r3, [sp, #3]
 433              		.loc 1 75 0
 434 0014 1D0A     		lsrs	r5, r3, #8
 435              		.loc 1 76 0
 436 0016 1B0C     		lsrs	r3, r3, #16
 437              	.LVL48:
 438              		.loc 1 75 0
 439 0018 8DF80250 		strb	r5, [sp, #2]
 440              		.loc 1 76 0
 441 001c 8DF80130 		strb	r3, [sp, #1]
 442              		.loc 1 71 0
 443 0020 2568     		ldr	r5, [r4]
 444 0022 0195     		str	r5, [sp, #4]
 445              		.loc 1 79 0
 446 0024 0423     		movs	r3, #4
 447 0026 FFF7FEFF 		bl	VL53L0X_write_multi
 448              	.LVL49:
 449              		.loc 1 80 0
 450 002a 019A     		ldr	r2, [sp, #4]
 451 002c 2368     		ldr	r3, [r4]
 452 002e 9A42     		cmp	r2, r3
 453 0030 01D1     		bne	.L45
 454 0032 03B0     		add	sp, sp, #12
 455              		.cfi_remember_state
 456              		.cfi_def_cfa_offset 12
ARM GAS  C:\Users\shadi\AppData\Local\Temp\ccNtNRPv.s 			page 9


 457              		@ sp needed
 458 0034 30BD     		pop	{r4, r5, pc}
 459              	.L45:
 460              		.cfi_restore_state
 461 0036 FFF7FEFF 		bl	__stack_chk_fail
 462              	.LVL50:
 463              	.L47:
 464 003a 00BF     		.align	2
 465              	.L46:
 466 003c 00000000 		.word	__stack_chk_guard
 467              		.cfi_endproc
 468              	.LFE260:
 469              		.size	VL53L0X_write_dword, .-VL53L0X_write_dword
 470              		.section	.text.VL53L0X_read_byte,"ax",%progbits
 471              		.align	1
 472              		.p2align 4,,15
 473              		.global	VL53L0X_read_byte
 474              		.syntax unified
 475              		.thumb
 476              		.thumb_func
 477              		.fpu fpv4-sp-d16
 478              		.type	VL53L0X_read_byte, %function
 479              	VL53L0X_read_byte:
 480              	.LFB261:
 481              		.loc 1 82 0
 482              		.cfi_startproc
 483              		@ args = 0, pretend = 0, frame = 8
 484              		@ frame_needed = 0, uses_anonymous_args = 0
 485              	.LVL51:
 486 0000 10B5     		push	{r4, lr}
 487              		.cfi_def_cfa_offset 8
 488              		.cfi_offset 4, -8
 489              		.cfi_offset 14, -4
 490 0002 084B     		ldr	r3, .L53
 491 0004 82B0     		sub	sp, sp, #8
 492              		.cfi_def_cfa_offset 16
 493              		.loc 1 82 0
 494 0006 1C68     		ldr	r4, [r3]
 495 0008 0194     		str	r4, [sp, #4]
 496              		.loc 1 83 0
 497 000a 019C     		ldr	r4, [sp, #4]
 498 000c 1B68     		ldr	r3, [r3]
 499 000e 9C42     		cmp	r4, r3
 500 0010 05D1     		bne	.L52
 501 0012 0123     		movs	r3, #1
 502              		.loc 1 84 0
 503 0014 02B0     		add	sp, sp, #8
 504              		.cfi_remember_state
 505              		.cfi_def_cfa_offset 8
 506              		@ sp needed
 507 0016 BDE81040 		pop	{r4, lr}
 508              		.cfi_restore 14
 509              		.cfi_restore 4
 510              		.cfi_def_cfa_offset 0
 511              		.loc 1 83 0
 512 001a FFF7FEBF 		b	VL53L0X_read_multi
 513              	.LVL52:
ARM GAS  C:\Users\shadi\AppData\Local\Temp\ccNtNRPv.s 			page 10


 514              	.L52:
 515              		.cfi_restore_state
 516 001e FFF7FEFF 		bl	__stack_chk_fail
 517              	.LVL53:
 518              	.L54:
 519 0022 00BF     		.align	2
 520              	.L53:
 521 0024 00000000 		.word	__stack_chk_guard
 522              		.cfi_endproc
 523              	.LFE261:
 524              		.size	VL53L0X_read_byte, .-VL53L0X_read_byte
 525              		.section	.text.VL53L0X_read_word,"ax",%progbits
 526              		.align	1
 527              		.p2align 4,,15
 528              		.global	VL53L0X_read_word
 529              		.syntax unified
 530              		.thumb
 531              		.thumb_func
 532              		.fpu fpv4-sp-d16
 533              		.type	VL53L0X_read_word, %function
 534              	VL53L0X_read_word:
 535              	.LFB262:
 536              		.loc 1 86 0
 537              		.cfi_startproc
 538              		@ args = 0, pretend = 0, frame = 8
 539              		@ frame_needed = 0, uses_anonymous_args = 0
 540              	.LVL54:
 541 0000 30B5     		push	{r4, r5, lr}
 542              		.cfi_def_cfa_offset 12
 543              		.cfi_offset 4, -12
 544              		.cfi_offset 5, -8
 545              		.cfi_offset 14, -4
 546 0002 0A4C     		ldr	r4, .L59
 547 0004 83B0     		sub	sp, sp, #12
 548              		.cfi_def_cfa_offset 24
 549              		.loc 1 86 0
 550 0006 2368     		ldr	r3, [r4]
 551 0008 0193     		str	r3, [sp, #4]
 552 000a 1546     		mov	r5, r2
 553              		.loc 1 88 0
 554 000c 0223     		movs	r3, #2
 555 000e 6A46     		mov	r2, sp
 556              	.LVL55:
 557 0010 FFF7FEFF 		bl	VL53L0X_read_multi
 558              	.LVL56:
 559              		.loc 1 94 0
 560 0014 BDF80030 		ldrh	r3, [sp]
 561              		.loc 1 97 0
 562 0018 019A     		ldr	r2, [sp, #4]
 563              		.loc 1 94 0
 564 001a 5BBA     		rev16	r3, r3
 565 001c 2B80     		strh	r3, [r5]	@ movhi
 566              		.loc 1 97 0
 567 001e 2368     		ldr	r3, [r4]
 568 0020 9A42     		cmp	r2, r3
 569 0022 01D1     		bne	.L58
 570 0024 03B0     		add	sp, sp, #12
ARM GAS  C:\Users\shadi\AppData\Local\Temp\ccNtNRPv.s 			page 11


 571              		.cfi_remember_state
 572              		.cfi_def_cfa_offset 12
 573              	.LVL57:
 574              		@ sp needed
 575 0026 30BD     		pop	{r4, r5, pc}
 576              	.LVL58:
 577              	.L58:
 578              		.cfi_restore_state
 579 0028 FFF7FEFF 		bl	__stack_chk_fail
 580              	.LVL59:
 581              	.L60:
 582              		.align	2
 583              	.L59:
 584 002c 00000000 		.word	__stack_chk_guard
 585              		.cfi_endproc
 586              	.LFE262:
 587              		.size	VL53L0X_read_word, .-VL53L0X_read_word
 588              		.section	.text.VL53L0X_read_dword,"ax",%progbits
 589              		.align	1
 590              		.p2align 4,,15
 591              		.global	VL53L0X_read_dword
 592              		.syntax unified
 593              		.thumb
 594              		.thumb_func
 595              		.fpu fpv4-sp-d16
 596              		.type	VL53L0X_read_dword, %function
 597              	VL53L0X_read_dword:
 598              	.LFB263:
 599              		.loc 1 99 0
 600              		.cfi_startproc
 601              		@ args = 0, pretend = 0, frame = 8
 602              		@ frame_needed = 0, uses_anonymous_args = 0
 603              	.LVL60:
 604 0000 70B5     		push	{r4, r5, r6, lr}
 605              		.cfi_def_cfa_offset 16
 606              		.cfi_offset 4, -16
 607              		.cfi_offset 5, -12
 608              		.cfi_offset 6, -8
 609              		.cfi_offset 14, -4
 610 0002 0F4C     		ldr	r4, .L65
 611 0004 82B0     		sub	sp, sp, #8
 612              		.cfi_def_cfa_offset 24
 613              		.loc 1 99 0
 614 0006 2368     		ldr	r3, [r4]
 615 0008 0193     		str	r3, [sp, #4]
 616 000a 1546     		mov	r5, r2
 617              		.loc 1 101 0
 618 000c 0423     		movs	r3, #4
 619 000e 6A46     		mov	r2, sp
 620              	.LVL61:
 621 0010 FFF7FEFF 		bl	VL53L0X_read_multi
 622              	.LVL62:
 623 0014 BDF80030 		ldrh	r3, [sp]
 624              		.loc 1 108 0
 625 0018 9DF80210 		ldrb	r1, [sp, #2]	@ zero_extendqisi2
 626              		.loc 1 110 0
 627 001c 9DF80320 		ldrb	r2, [sp, #3]	@ zero_extendqisi2
ARM GAS  C:\Users\shadi\AppData\Local\Temp\ccNtNRPv.s 			page 12


 628              		.loc 1 115 0
 629 0020 019E     		ldr	r6, [sp, #4]
 630 0022 5BBA     		rev16	r3, r3
 631 0024 9BB2     		uxth	r3, r3
 632              	.LVL63:
 633              		.loc 1 108 0
 634 0026 41EA0323 		orr	r3, r1, r3, lsl #8
 635              	.LVL64:
 636              		.loc 1 110 0
 637 002a 42EA0323 		orr	r3, r2, r3, lsl #8
 638              	.LVL65:
 639              		.loc 1 112 0
 640 002e 2B60     		str	r3, [r5]
 641              		.loc 1 115 0
 642 0030 2368     		ldr	r3, [r4]
 643              	.LVL66:
 644 0032 9E42     		cmp	r6, r3
 645 0034 01D1     		bne	.L64
 646 0036 02B0     		add	sp, sp, #8
 647              		.cfi_remember_state
 648              		.cfi_def_cfa_offset 16
 649              		@ sp needed
 650 0038 70BD     		pop	{r4, r5, r6, pc}
 651              	.LVL67:
 652              	.L64:
 653              		.cfi_restore_state
 654 003a FFF7FEFF 		bl	__stack_chk_fail
 655              	.LVL68:
 656              	.L66:
 657 003e 00BF     		.align	2
 658              	.L65:
 659 0040 00000000 		.word	__stack_chk_guard
 660              		.cfi_endproc
 661              	.LFE263:
 662              		.size	VL53L0X_read_dword, .-VL53L0X_read_dword
 663              		.text
 664              	.Letext0:
 665              		.file 2 "c:\\users\\shadi\\downloads\\eclipse_e-puck2\\tools\\gcc-arm-none-eabi-7-2017-q4-major-wi
 666              		.file 3 "c:\\users\\shadi\\downloads\\eclipse_e-puck2\\tools\\gcc-arm-none-eabi-7-2017-q4-major-wi
 667              		.file 4 "c:\\users\\shadi\\downloads\\eclipse_e-puck2\\tools\\gcc-arm-none-eabi-7-2017-q4-major-wi
 668              		.file 5 "../../lib/e-puck2_main-processor/src/sensors/VL53L0X/Api/platform/src/../inc/../../core/i
 669              		.file 6 "../../lib/e-puck2_main-processor/ChibiOS//os/rt/ports/ARMCMx/compilers/GCC/chtypes.h"
 670              		.file 7 "../../lib/e-puck2_main-processor/ChibiOS//os/rt/include/chsystypes.h"
 671              		.file 8 "../../lib/e-puck2_main-processor/ChibiOS//os/rt/include/chschd.h"
 672              		.file 9 "../../lib/e-puck2_main-processor/ChibiOS//os/ext/CMSIS/include/core_cm4.h"
 673              		.file 10 "../../lib/e-puck2_main-processor/ChibiOS//os/ext/CMSIS/ST/system_stm32f4xx.h"
 674              		.file 11 "../../lib/e-puck2_main-processor/ChibiOS//os/ext/CMSIS/ST/stm32f407xx.h"
 675              		.file 12 "../../lib/e-puck2_main-processor/ChibiOS//os/rt/ports/ARMCMx/chcore.h"
 676              		.file 13 "../../lib/e-puck2_main-processor/ChibiOS//os/rt/ports/ARMCMx/chcore_v7m.h"
 677              		.file 14 "../../lib/e-puck2_main-processor/ChibiOS//os/rt/include/chdebug.h"
 678              		.file 15 "../../lib/e-puck2_main-processor/ChibiOS//os/rt/include/chtm.h"
 679              		.file 16 "../../lib/e-puck2_main-processor/ChibiOS//os/rt/include/chstats.h"
 680              		.file 17 "../../lib/e-puck2_main-processor/ChibiOS//os/rt/include/chsem.h"
 681              		.file 18 "../../lib/e-puck2_main-processor/ChibiOS//os/rt/include/chmtx.h"
 682              		.file 19 "../../lib/e-puck2_main-processor/ChibiOS//os/rt/include/chregistry.h"
 683              		.file 20 "../../lib/e-puck2_main-processor/ChibiOS//os/rt/include/chevents.h"
 684              		.file 21 "../../lib/e-puck2_main-processor/ChibiOS//os/rt/include/chqueues.h"
ARM GAS  C:\Users\shadi\AppData\Local\Temp\ccNtNRPv.s 			page 13


 685              		.file 22 "../../lib/e-puck2_main-processor/ChibiOS//os/hal/ports/STM32/STM32F4xx/stm32_dma.h"
 686              		.file 23 "../../lib/e-puck2_main-processor/ChibiOS//os/hal/include/hal_ioblock.h"
 687              		.file 24 "../../lib/e-puck2_main-processor/ChibiOS//os/hal/ports/STM32/LLD/GPIOv2/pal_lld.h"
 688              		.file 25 "../../lib/e-puck2_main-processor/ChibiOS//os/hal/include/adc.h"
 689              		.file 26 "../../lib/e-puck2_main-processor/ChibiOS//os/hal/ports/STM32/STM32F4xx/adc_lld.h"
 690              		.file 27 "../../lib/e-puck2_main-processor/ChibiOS//os/hal/include/can.h"
 691              		.file 28 "../../lib/e-puck2_main-processor/ChibiOS//os/hal/ports/STM32/LLD/can_lld.h"
 692              		.file 29 "../../lib/e-puck2_main-processor/ChibiOS//os/hal/include/dac.h"
 693              		.file 30 "../../lib/e-puck2_main-processor/ChibiOS//os/hal/ports/STM32/LLD/DACv1/dac_lld.h"
 694              		.file 31 "../../lib/e-puck2_main-processor/ChibiOS//os/hal/include/ext.h"
 695              		.file 32 "../../lib/e-puck2_main-processor/ChibiOS//os/hal/ports/STM32/LLD/ext_lld.h"
 696              		.file 33 "../../lib/e-puck2_main-processor/ChibiOS//os/hal/include/gpt.h"
 697              		.file 34 "../../lib/e-puck2_main-processor/ChibiOS//os/hal/ports/STM32/LLD/TIMv1/gpt_lld.h"
 698              		.file 35 "../../lib/e-puck2_main-processor/ChibiOS//os/hal/ports/STM32/LLD/TIMv1/stm32_tim.h"
 699              		.file 36 "../../lib/e-puck2_main-processor/ChibiOS//os/hal/include/i2c.h"
 700              		.file 37 "../../lib/e-puck2_main-processor/ChibiOS//os/hal/ports/STM32/LLD/I2Cv1/i2c_lld.h"
 701              		.file 38 "../../lib/e-puck2_main-processor/ChibiOS//os/hal/include/i2s.h"
 702              		.file 39 "../../lib/e-puck2_main-processor/ChibiOS//os/hal/ports/STM32/LLD/SPIv1/i2s_lld.h"
 703              		.file 40 "../../lib/e-puck2_main-processor/ChibiOS//os/hal/include/pwm.h"
 704              		.file 41 "../../lib/e-puck2_main-processor/ChibiOS//os/hal/ports/STM32/LLD/TIMv1/pwm_lld.h"
 705              		.file 42 "../../lib/e-puck2_main-processor/ChibiOS//os/hal/include/serial.h"
 706              		.file 43 "../../lib/e-puck2_main-processor/ChibiOS//os/hal/ports/STM32/LLD/USARTv1/serial_lld.h"
 707              		.file 44 "../../lib/e-puck2_main-processor/ChibiOS//os/hal/include/sdc.h"
 708              		.file 45 "../../lib/e-puck2_main-processor/ChibiOS//os/hal/ports/STM32/LLD/sdc_lld.h"
 709              		.file 46 "../../lib/e-puck2_main-processor/ChibiOS//os/hal/include/spi.h"
 710              		.file 47 "../../lib/e-puck2_main-processor/ChibiOS//os/hal/ports/STM32/LLD/SPIv1/spi_lld.h"
 711              		.file 48 "../../lib/e-puck2_main-processor/ChibiOS//os/hal/include/usb.h"
 712              		.file 49 "../../lib/e-puck2_main-processor/ChibiOS//os/hal/ports/STM32/LLD/OTGv1/usb_lld.h"
 713              		.file 50 "../../lib/e-puck2_main-processor/ChibiOS//os/hal/ports/STM32/LLD/OTGv1/stm32_otg.h"
 714              		.file 51 "../../lib/e-puck2_main-processor/src/i2c_bus.h"